
Master_01.elf:     file format elf32-littlearm

Sections:
Idx Name          Size      VMA       LMA       File off  Algn
  0 .isr_vector   000001c4  08000000  08000000  00010000  2**0
                  CONTENTS, ALLOC, LOAD, READONLY, DATA
  1 .text         00005b2c  080001c4  080001c4  000101c4  2**2
                  CONTENTS, ALLOC, LOAD, READONLY, CODE
  2 .rodata       00000020  08005cf0  08005cf0  00015cf0  2**2
                  CONTENTS, ALLOC, LOAD, READONLY, DATA
  3 .ARM.extab    00000000  08005d10  08005d10  0002000c  2**0
                  CONTENTS
  4 .ARM          00000008  08005d10  08005d10  00015d10  2**2
                  CONTENTS, ALLOC, LOAD, READONLY, DATA
  5 .preinit_array 00000000  08005d18  08005d18  0002000c  2**0
                  CONTENTS, ALLOC, LOAD, DATA
  6 .init_array   00000004  08005d18  08005d18  00015d18  2**2
                  CONTENTS, ALLOC, LOAD, DATA
  7 .fini_array   00000004  08005d1c  08005d1c  00015d1c  2**2
                  CONTENTS, ALLOC, LOAD, DATA
  8 .data         0000000c  20000000  08005d20  00020000  2**2
                  CONTENTS, ALLOC, LOAD, DATA
  9 .bss          00000480  2000000c  08005d2c  0002000c  2**2
                  ALLOC
 10 ._user_heap_stack 00000604  2000048c  08005d2c  0002048c  2**0
                  ALLOC
 11 .ARM.attributes 00000030  00000000  00000000  0002000c  2**0
                  CONTENTS, READONLY
 12 .debug_info   000171d2  00000000  00000000  0002003c  2**0
                  CONTENTS, READONLY, DEBUGGING, OCTETS
 13 .debug_abbrev 00003b05  00000000  00000000  0003720e  2**0
                  CONTENTS, READONLY, DEBUGGING, OCTETS
 14 .debug_aranges 00001138  00000000  00000000  0003ad18  2**3
                  CONTENTS, READONLY, DEBUGGING, OCTETS
 15 .debug_ranges 00000f30  00000000  00000000  0003be50  2**3
                  CONTENTS, READONLY, DEBUGGING, OCTETS
 16 .debug_macro  0002468a  00000000  00000000  0003cd80  2**0
                  CONTENTS, READONLY, DEBUGGING, OCTETS
 17 .debug_line   00017a1d  00000000  00000000  0006140a  2**0
                  CONTENTS, READONLY, DEBUGGING, OCTETS
 18 .debug_str    000d246a  00000000  00000000  00078e27  2**0
                  CONTENTS, READONLY, DEBUGGING, OCTETS
 19 .comment      00000053  00000000  00000000  0014b291  2**0
                  CONTENTS, READONLY
 20 .debug_frame  0000427c  00000000  00000000  0014b2e4  2**2
                  CONTENTS, READONLY, DEBUGGING, OCTETS

Disassembly of section .text:

080001c4 <__do_global_dtors_aux>:
 80001c4:	b510      	push	{r4, lr}
 80001c6:	4c05      	ldr	r4, [pc, #20]	; (80001dc <__do_global_dtors_aux+0x18>)
 80001c8:	7823      	ldrb	r3, [r4, #0]
 80001ca:	b933      	cbnz	r3, 80001da <__do_global_dtors_aux+0x16>
 80001cc:	4b04      	ldr	r3, [pc, #16]	; (80001e0 <__do_global_dtors_aux+0x1c>)
 80001ce:	b113      	cbz	r3, 80001d6 <__do_global_dtors_aux+0x12>
 80001d0:	4804      	ldr	r0, [pc, #16]	; (80001e4 <__do_global_dtors_aux+0x20>)
 80001d2:	f3af 8000 	nop.w
 80001d6:	2301      	movs	r3, #1
 80001d8:	7023      	strb	r3, [r4, #0]
 80001da:	bd10      	pop	{r4, pc}
 80001dc:	2000000c 	.word	0x2000000c
 80001e0:	00000000 	.word	0x00000000
 80001e4:	08005cd8 	.word	0x08005cd8

080001e8 <frame_dummy>:
 80001e8:	b508      	push	{r3, lr}
 80001ea:	4b03      	ldr	r3, [pc, #12]	; (80001f8 <frame_dummy+0x10>)
 80001ec:	b11b      	cbz	r3, 80001f6 <frame_dummy+0xe>
 80001ee:	4903      	ldr	r1, [pc, #12]	; (80001fc <frame_dummy+0x14>)
 80001f0:	4803      	ldr	r0, [pc, #12]	; (8000200 <frame_dummy+0x18>)
 80001f2:	f3af 8000 	nop.w
 80001f6:	bd08      	pop	{r3, pc}
 80001f8:	00000000 	.word	0x00000000
 80001fc:	20000010 	.word	0x20000010
 8000200:	08005cd8 	.word	0x08005cd8

08000204 <__aeabi_uldivmod>:
 8000204:	b953      	cbnz	r3, 800021c <__aeabi_uldivmod+0x18>
 8000206:	b94a      	cbnz	r2, 800021c <__aeabi_uldivmod+0x18>
 8000208:	2900      	cmp	r1, #0
 800020a:	bf08      	it	eq
 800020c:	2800      	cmpeq	r0, #0
 800020e:	bf1c      	itt	ne
 8000210:	f04f 31ff 	movne.w	r1, #4294967295
 8000214:	f04f 30ff 	movne.w	r0, #4294967295
 8000218:	f000 b96e 	b.w	80004f8 <__aeabi_idiv0>
 800021c:	f1ad 0c08 	sub.w	ip, sp, #8
 8000220:	e96d ce04 	strd	ip, lr, [sp, #-16]!
 8000224:	f000 f806 	bl	8000234 <__udivmoddi4>
 8000228:	f8dd e004 	ldr.w	lr, [sp, #4]
 800022c:	e9dd 2302 	ldrd	r2, r3, [sp, #8]
 8000230:	b004      	add	sp, #16
 8000232:	4770      	bx	lr

08000234 <__udivmoddi4>:
 8000234:	e92d 47f0 	stmdb	sp!, {r4, r5, r6, r7, r8, r9, sl, lr}
 8000238:	9d08      	ldr	r5, [sp, #32]
 800023a:	4604      	mov	r4, r0
 800023c:	468c      	mov	ip, r1
 800023e:	2b00      	cmp	r3, #0
 8000240:	f040 8083 	bne.w	800034a <__udivmoddi4+0x116>
 8000244:	428a      	cmp	r2, r1
 8000246:	4617      	mov	r7, r2
 8000248:	d947      	bls.n	80002da <__udivmoddi4+0xa6>
 800024a:	fab2 f282 	clz	r2, r2
 800024e:	b142      	cbz	r2, 8000262 <__udivmoddi4+0x2e>
 8000250:	f1c2 0020 	rsb	r0, r2, #32
 8000254:	fa24 f000 	lsr.w	r0, r4, r0
 8000258:	4091      	lsls	r1, r2
 800025a:	4097      	lsls	r7, r2
 800025c:	ea40 0c01 	orr.w	ip, r0, r1
 8000260:	4094      	lsls	r4, r2
 8000262:	ea4f 4817 	mov.w	r8, r7, lsr #16
 8000266:	0c23      	lsrs	r3, r4, #16
 8000268:	fbbc f6f8 	udiv	r6, ip, r8
 800026c:	fa1f fe87 	uxth.w	lr, r7
 8000270:	fb08 c116 	mls	r1, r8, r6, ip
 8000274:	ea43 4301 	orr.w	r3, r3, r1, lsl #16
 8000278:	fb06 f10e 	mul.w	r1, r6, lr
 800027c:	4299      	cmp	r1, r3
 800027e:	d909      	bls.n	8000294 <__udivmoddi4+0x60>
 8000280:	18fb      	adds	r3, r7, r3
 8000282:	f106 30ff 	add.w	r0, r6, #4294967295
 8000286:	f080 8119 	bcs.w	80004bc <__udivmoddi4+0x288>
 800028a:	4299      	cmp	r1, r3
 800028c:	f240 8116 	bls.w	80004bc <__udivmoddi4+0x288>
 8000290:	3e02      	subs	r6, #2
 8000292:	443b      	add	r3, r7
 8000294:	1a5b      	subs	r3, r3, r1
 8000296:	b2a4      	uxth	r4, r4
 8000298:	fbb3 f0f8 	udiv	r0, r3, r8
 800029c:	fb08 3310 	mls	r3, r8, r0, r3
 80002a0:	ea44 4403 	orr.w	r4, r4, r3, lsl #16
 80002a4:	fb00 fe0e 	mul.w	lr, r0, lr
 80002a8:	45a6      	cmp	lr, r4
 80002aa:	d909      	bls.n	80002c0 <__udivmoddi4+0x8c>
 80002ac:	193c      	adds	r4, r7, r4
 80002ae:	f100 33ff 	add.w	r3, r0, #4294967295
 80002b2:	f080 8105 	bcs.w	80004c0 <__udivmoddi4+0x28c>
 80002b6:	45a6      	cmp	lr, r4
 80002b8:	f240 8102 	bls.w	80004c0 <__udivmoddi4+0x28c>
 80002bc:	3802      	subs	r0, #2
 80002be:	443c      	add	r4, r7
 80002c0:	ea40 4006 	orr.w	r0, r0, r6, lsl #16
 80002c4:	eba4 040e 	sub.w	r4, r4, lr
 80002c8:	2600      	movs	r6, #0
 80002ca:	b11d      	cbz	r5, 80002d4 <__udivmoddi4+0xa0>
 80002cc:	40d4      	lsrs	r4, r2
 80002ce:	2300      	movs	r3, #0
 80002d0:	e9c5 4300 	strd	r4, r3, [r5]
 80002d4:	4631      	mov	r1, r6
 80002d6:	e8bd 87f0 	ldmia.w	sp!, {r4, r5, r6, r7, r8, r9, sl, pc}
 80002da:	b902      	cbnz	r2, 80002de <__udivmoddi4+0xaa>
 80002dc:	deff      	udf	#255	; 0xff
 80002de:	fab2 f282 	clz	r2, r2
 80002e2:	2a00      	cmp	r2, #0
 80002e4:	d150      	bne.n	8000388 <__udivmoddi4+0x154>
 80002e6:	1bcb      	subs	r3, r1, r7
 80002e8:	ea4f 4e17 	mov.w	lr, r7, lsr #16
 80002ec:	fa1f f887 	uxth.w	r8, r7
 80002f0:	2601      	movs	r6, #1
 80002f2:	fbb3 fcfe 	udiv	ip, r3, lr
 80002f6:	0c21      	lsrs	r1, r4, #16
 80002f8:	fb0e 331c 	mls	r3, lr, ip, r3
 80002fc:	ea41 4103 	orr.w	r1, r1, r3, lsl #16
 8000300:	fb08 f30c 	mul.w	r3, r8, ip
 8000304:	428b      	cmp	r3, r1
 8000306:	d907      	bls.n	8000318 <__udivmoddi4+0xe4>
 8000308:	1879      	adds	r1, r7, r1
 800030a:	f10c 30ff 	add.w	r0, ip, #4294967295
 800030e:	d202      	bcs.n	8000316 <__udivmoddi4+0xe2>
 8000310:	428b      	cmp	r3, r1
 8000312:	f200 80e9 	bhi.w	80004e8 <__udivmoddi4+0x2b4>
 8000316:	4684      	mov	ip, r0
 8000318:	1ac9      	subs	r1, r1, r3
 800031a:	b2a3      	uxth	r3, r4
 800031c:	fbb1 f0fe 	udiv	r0, r1, lr
 8000320:	fb0e 1110 	mls	r1, lr, r0, r1
 8000324:	ea43 4401 	orr.w	r4, r3, r1, lsl #16
 8000328:	fb08 f800 	mul.w	r8, r8, r0
 800032c:	45a0      	cmp	r8, r4
 800032e:	d907      	bls.n	8000340 <__udivmoddi4+0x10c>
 8000330:	193c      	adds	r4, r7, r4
 8000332:	f100 33ff 	add.w	r3, r0, #4294967295
 8000336:	d202      	bcs.n	800033e <__udivmoddi4+0x10a>
 8000338:	45a0      	cmp	r8, r4
 800033a:	f200 80d9 	bhi.w	80004f0 <__udivmoddi4+0x2bc>
 800033e:	4618      	mov	r0, r3
 8000340:	eba4 0408 	sub.w	r4, r4, r8
 8000344:	ea40 400c 	orr.w	r0, r0, ip, lsl #16
 8000348:	e7bf      	b.n	80002ca <__udivmoddi4+0x96>
 800034a:	428b      	cmp	r3, r1
 800034c:	d909      	bls.n	8000362 <__udivmoddi4+0x12e>
 800034e:	2d00      	cmp	r5, #0
 8000350:	f000 80b1 	beq.w	80004b6 <__udivmoddi4+0x282>
 8000354:	2600      	movs	r6, #0
 8000356:	e9c5 0100 	strd	r0, r1, [r5]
 800035a:	4630      	mov	r0, r6
 800035c:	4631      	mov	r1, r6
 800035e:	e8bd 87f0 	ldmia.w	sp!, {r4, r5, r6, r7, r8, r9, sl, pc}
 8000362:	fab3 f683 	clz	r6, r3
 8000366:	2e00      	cmp	r6, #0
 8000368:	d14a      	bne.n	8000400 <__udivmoddi4+0x1cc>
 800036a:	428b      	cmp	r3, r1
 800036c:	d302      	bcc.n	8000374 <__udivmoddi4+0x140>
 800036e:	4282      	cmp	r2, r0
 8000370:	f200 80b8 	bhi.w	80004e4 <__udivmoddi4+0x2b0>
 8000374:	1a84      	subs	r4, r0, r2
 8000376:	eb61 0103 	sbc.w	r1, r1, r3
 800037a:	2001      	movs	r0, #1
 800037c:	468c      	mov	ip, r1
 800037e:	2d00      	cmp	r5, #0
 8000380:	d0a8      	beq.n	80002d4 <__udivmoddi4+0xa0>
 8000382:	e9c5 4c00 	strd	r4, ip, [r5]
 8000386:	e7a5      	b.n	80002d4 <__udivmoddi4+0xa0>
 8000388:	f1c2 0320 	rsb	r3, r2, #32
 800038c:	fa20 f603 	lsr.w	r6, r0, r3
 8000390:	4097      	lsls	r7, r2
 8000392:	fa01 f002 	lsl.w	r0, r1, r2
 8000396:	ea4f 4e17 	mov.w	lr, r7, lsr #16
 800039a:	40d9      	lsrs	r1, r3
 800039c:	4330      	orrs	r0, r6
 800039e:	0c03      	lsrs	r3, r0, #16
 80003a0:	fbb1 f6fe 	udiv	r6, r1, lr
 80003a4:	fa1f f887 	uxth.w	r8, r7
 80003a8:	fb0e 1116 	mls	r1, lr, r6, r1
 80003ac:	ea43 4301 	orr.w	r3, r3, r1, lsl #16
 80003b0:	fb06 f108 	mul.w	r1, r6, r8
 80003b4:	4299      	cmp	r1, r3
 80003b6:	fa04 f402 	lsl.w	r4, r4, r2
 80003ba:	d909      	bls.n	80003d0 <__udivmoddi4+0x19c>
 80003bc:	18fb      	adds	r3, r7, r3
 80003be:	f106 3cff 	add.w	ip, r6, #4294967295
 80003c2:	f080 808d 	bcs.w	80004e0 <__udivmoddi4+0x2ac>
 80003c6:	4299      	cmp	r1, r3
 80003c8:	f240 808a 	bls.w	80004e0 <__udivmoddi4+0x2ac>
 80003cc:	3e02      	subs	r6, #2
 80003ce:	443b      	add	r3, r7
 80003d0:	1a5b      	subs	r3, r3, r1
 80003d2:	b281      	uxth	r1, r0
 80003d4:	fbb3 f0fe 	udiv	r0, r3, lr
 80003d8:	fb0e 3310 	mls	r3, lr, r0, r3
 80003dc:	ea41 4103 	orr.w	r1, r1, r3, lsl #16
 80003e0:	fb00 f308 	mul.w	r3, r0, r8
 80003e4:	428b      	cmp	r3, r1
 80003e6:	d907      	bls.n	80003f8 <__udivmoddi4+0x1c4>
 80003e8:	1879      	adds	r1, r7, r1
 80003ea:	f100 3cff 	add.w	ip, r0, #4294967295
 80003ee:	d273      	bcs.n	80004d8 <__udivmoddi4+0x2a4>
 80003f0:	428b      	cmp	r3, r1
 80003f2:	d971      	bls.n	80004d8 <__udivmoddi4+0x2a4>
 80003f4:	3802      	subs	r0, #2
 80003f6:	4439      	add	r1, r7
 80003f8:	1acb      	subs	r3, r1, r3
 80003fa:	ea40 4606 	orr.w	r6, r0, r6, lsl #16
 80003fe:	e778      	b.n	80002f2 <__udivmoddi4+0xbe>
 8000400:	f1c6 0c20 	rsb	ip, r6, #32
 8000404:	fa03 f406 	lsl.w	r4, r3, r6
 8000408:	fa22 f30c 	lsr.w	r3, r2, ip
 800040c:	431c      	orrs	r4, r3
 800040e:	fa20 f70c 	lsr.w	r7, r0, ip
 8000412:	fa01 f306 	lsl.w	r3, r1, r6
 8000416:	ea4f 4e14 	mov.w	lr, r4, lsr #16
 800041a:	fa21 f10c 	lsr.w	r1, r1, ip
 800041e:	431f      	orrs	r7, r3
 8000420:	0c3b      	lsrs	r3, r7, #16
 8000422:	fbb1 f9fe 	udiv	r9, r1, lr
 8000426:	fa1f f884 	uxth.w	r8, r4
 800042a:	fb0e 1119 	mls	r1, lr, r9, r1
 800042e:	ea43 4101 	orr.w	r1, r3, r1, lsl #16
 8000432:	fb09 fa08 	mul.w	sl, r9, r8
 8000436:	458a      	cmp	sl, r1
 8000438:	fa02 f206 	lsl.w	r2, r2, r6
 800043c:	fa00 f306 	lsl.w	r3, r0, r6
 8000440:	d908      	bls.n	8000454 <__udivmoddi4+0x220>
 8000442:	1861      	adds	r1, r4, r1
 8000444:	f109 30ff 	add.w	r0, r9, #4294967295
 8000448:	d248      	bcs.n	80004dc <__udivmoddi4+0x2a8>
 800044a:	458a      	cmp	sl, r1
 800044c:	d946      	bls.n	80004dc <__udivmoddi4+0x2a8>
 800044e:	f1a9 0902 	sub.w	r9, r9, #2
 8000452:	4421      	add	r1, r4
 8000454:	eba1 010a 	sub.w	r1, r1, sl
 8000458:	b2bf      	uxth	r7, r7
 800045a:	fbb1 f0fe 	udiv	r0, r1, lr
 800045e:	fb0e 1110 	mls	r1, lr, r0, r1
 8000462:	ea47 4701 	orr.w	r7, r7, r1, lsl #16
 8000466:	fb00 f808 	mul.w	r8, r0, r8
 800046a:	45b8      	cmp	r8, r7
 800046c:	d907      	bls.n	800047e <__udivmoddi4+0x24a>
 800046e:	19e7      	adds	r7, r4, r7
 8000470:	f100 31ff 	add.w	r1, r0, #4294967295
 8000474:	d22e      	bcs.n	80004d4 <__udivmoddi4+0x2a0>
 8000476:	45b8      	cmp	r8, r7
 8000478:	d92c      	bls.n	80004d4 <__udivmoddi4+0x2a0>
 800047a:	3802      	subs	r0, #2
 800047c:	4427      	add	r7, r4
 800047e:	ea40 4009 	orr.w	r0, r0, r9, lsl #16
 8000482:	eba7 0708 	sub.w	r7, r7, r8
 8000486:	fba0 8902 	umull	r8, r9, r0, r2
 800048a:	454f      	cmp	r7, r9
 800048c:	46c6      	mov	lr, r8
 800048e:	4649      	mov	r1, r9
 8000490:	d31a      	bcc.n	80004c8 <__udivmoddi4+0x294>
 8000492:	d017      	beq.n	80004c4 <__udivmoddi4+0x290>
 8000494:	b15d      	cbz	r5, 80004ae <__udivmoddi4+0x27a>
 8000496:	ebb3 020e 	subs.w	r2, r3, lr
 800049a:	eb67 0701 	sbc.w	r7, r7, r1
 800049e:	fa07 fc0c 	lsl.w	ip, r7, ip
 80004a2:	40f2      	lsrs	r2, r6
 80004a4:	ea4c 0202 	orr.w	r2, ip, r2
 80004a8:	40f7      	lsrs	r7, r6
 80004aa:	e9c5 2700 	strd	r2, r7, [r5]
 80004ae:	2600      	movs	r6, #0
 80004b0:	4631      	mov	r1, r6
 80004b2:	e8bd 87f0 	ldmia.w	sp!, {r4, r5, r6, r7, r8, r9, sl, pc}
 80004b6:	462e      	mov	r6, r5
 80004b8:	4628      	mov	r0, r5
 80004ba:	e70b      	b.n	80002d4 <__udivmoddi4+0xa0>
 80004bc:	4606      	mov	r6, r0
 80004be:	e6e9      	b.n	8000294 <__udivmoddi4+0x60>
 80004c0:	4618      	mov	r0, r3
 80004c2:	e6fd      	b.n	80002c0 <__udivmoddi4+0x8c>
 80004c4:	4543      	cmp	r3, r8
 80004c6:	d2e5      	bcs.n	8000494 <__udivmoddi4+0x260>
 80004c8:	ebb8 0e02 	subs.w	lr, r8, r2
 80004cc:	eb69 0104 	sbc.w	r1, r9, r4
 80004d0:	3801      	subs	r0, #1
 80004d2:	e7df      	b.n	8000494 <__udivmoddi4+0x260>
 80004d4:	4608      	mov	r0, r1
 80004d6:	e7d2      	b.n	800047e <__udivmoddi4+0x24a>
 80004d8:	4660      	mov	r0, ip
 80004da:	e78d      	b.n	80003f8 <__udivmoddi4+0x1c4>
 80004dc:	4681      	mov	r9, r0
 80004de:	e7b9      	b.n	8000454 <__udivmoddi4+0x220>
 80004e0:	4666      	mov	r6, ip
 80004e2:	e775      	b.n	80003d0 <__udivmoddi4+0x19c>
 80004e4:	4630      	mov	r0, r6
 80004e6:	e74a      	b.n	800037e <__udivmoddi4+0x14a>
 80004e8:	f1ac 0c02 	sub.w	ip, ip, #2
 80004ec:	4439      	add	r1, r7
 80004ee:	e713      	b.n	8000318 <__udivmoddi4+0xe4>
 80004f0:	3802      	subs	r0, #2
 80004f2:	443c      	add	r4, r7
 80004f4:	e724      	b.n	8000340 <__udivmoddi4+0x10c>
 80004f6:	bf00      	nop

080004f8 <__aeabi_idiv0>:
 80004f8:	4770      	bx	lr
 80004fa:	bf00      	nop

080004fc <MX_ADC2_Init>:
 80004fc:	b580      	push	{r7, lr}
 80004fe:	b084      	sub	sp, #16
 8000500:	af00      	add	r7, sp, #0
 8000502:	463b      	mov	r3, r7
 8000504:	2200      	movs	r2, #0
 8000506:	601a      	str	r2, [r3, #0]
 8000508:	605a      	str	r2, [r3, #4]
 800050a:	609a      	str	r2, [r3, #8]
 800050c:	60da      	str	r2, [r3, #12]
 800050e:	4b22      	ldr	r3, [pc, #136]	; (8000598 <MX_ADC2_Init+0x9c>)
 8000510:	4a22      	ldr	r2, [pc, #136]	; (800059c <MX_ADC2_Init+0xa0>)
 8000512:	601a      	str	r2, [r3, #0]
 8000514:	4b20      	ldr	r3, [pc, #128]	; (8000598 <MX_ADC2_Init+0x9c>)
 8000516:	f44f 3240 	mov.w	r2, #196608	; 0x30000
 800051a:	605a      	str	r2, [r3, #4]
 800051c:	4b1e      	ldr	r3, [pc, #120]	; (8000598 <MX_ADC2_Init+0x9c>)
 800051e:	2200      	movs	r2, #0
 8000520:	609a      	str	r2, [r3, #8]
 8000522:	4b1d      	ldr	r3, [pc, #116]	; (8000598 <MX_ADC2_Init+0x9c>)
 8000524:	2201      	movs	r2, #1
 8000526:	611a      	str	r2, [r3, #16]
 8000528:	4b1b      	ldr	r3, [pc, #108]	; (8000598 <MX_ADC2_Init+0x9c>)
 800052a:	2201      	movs	r2, #1
 800052c:	761a      	strb	r2, [r3, #24]
 800052e:	4b1a      	ldr	r3, [pc, #104]	; (8000598 <MX_ADC2_Init+0x9c>)
 8000530:	2200      	movs	r2, #0
 8000532:	f883 2020 	strb.w	r2, [r3, #32]
 8000536:	4b18      	ldr	r3, [pc, #96]	; (8000598 <MX_ADC2_Init+0x9c>)
 8000538:	f04f 5280 	mov.w	r2, #268435456	; 0x10000000
 800053c:	62da      	str	r2, [r3, #44]	; 0x2c
 800053e:	4b16      	ldr	r3, [pc, #88]	; (8000598 <MX_ADC2_Init+0x9c>)
 8000540:	f04f 62c0 	mov.w	r2, #100663296	; 0x6000000
 8000544:	629a      	str	r2, [r3, #40]	; 0x28
 8000546:	4b14      	ldr	r3, [pc, #80]	; (8000598 <MX_ADC2_Init+0x9c>)
 8000548:	2200      	movs	r2, #0
 800054a:	60da      	str	r2, [r3, #12]
 800054c:	4b12      	ldr	r3, [pc, #72]	; (8000598 <MX_ADC2_Init+0x9c>)
 800054e:	2201      	movs	r2, #1
 8000550:	61da      	str	r2, [r3, #28]
 8000552:	4b11      	ldr	r3, [pc, #68]	; (8000598 <MX_ADC2_Init+0x9c>)
 8000554:	2201      	movs	r2, #1
 8000556:	f883 2030 	strb.w	r2, [r3, #48]	; 0x30
 800055a:	4b0f      	ldr	r3, [pc, #60]	; (8000598 <MX_ADC2_Init+0x9c>)
 800055c:	2201      	movs	r2, #1
 800055e:	615a      	str	r2, [r3, #20]
 8000560:	480d      	ldr	r0, [pc, #52]	; (8000598 <MX_ADC2_Init+0x9c>)
 8000562:	f000 ff11 	bl	8001388 <HAL_ADC_Init>
 8000566:	4603      	mov	r3, r0
 8000568:	2b00      	cmp	r3, #0
 800056a:	d001      	beq.n	8000570 <MX_ADC2_Init+0x74>
 800056c:	f000 fa92 	bl	8000a94 <Error_Handler>
 8000570:	230c      	movs	r3, #12
 8000572:	603b      	str	r3, [r7, #0]
 8000574:	2301      	movs	r3, #1
 8000576:	607b      	str	r3, [r7, #4]
 8000578:	2307      	movs	r3, #7
 800057a:	60bb      	str	r3, [r7, #8]
 800057c:	463b      	mov	r3, r7
 800057e:	4619      	mov	r1, r3
 8000580:	4805      	ldr	r0, [pc, #20]	; (8000598 <MX_ADC2_Init+0x9c>)
 8000582:	f001 f8a3 	bl	80016cc <HAL_ADC_ConfigChannel>
 8000586:	4603      	mov	r3, r0
 8000588:	2b00      	cmp	r3, #0
 800058a:	d001      	beq.n	8000590 <MX_ADC2_Init+0x94>
 800058c:	f000 fa82 	bl	8000a94 <Error_Handler>
 8000590:	bf00      	nop
 8000592:	3710      	adds	r7, #16
 8000594:	46bd      	mov	sp, r7
 8000596:	bd80      	pop	{r7, pc}
 8000598:	2000009c 	.word	0x2000009c
 800059c:	40012100 	.word	0x40012100

080005a0 <HAL_ADC_MspInit>:
 80005a0:	b580      	push	{r7, lr}
 80005a2:	b08a      	sub	sp, #40	; 0x28
 80005a4:	af00      	add	r7, sp, #0
 80005a6:	6078      	str	r0, [r7, #4]
 80005a8:	f107 0314 	add.w	r3, r7, #20
 80005ac:	2200      	movs	r2, #0
 80005ae:	601a      	str	r2, [r3, #0]
 80005b0:	605a      	str	r2, [r3, #4]
 80005b2:	609a      	str	r2, [r3, #8]
 80005b4:	60da      	str	r2, [r3, #12]
 80005b6:	611a      	str	r2, [r3, #16]
 80005b8:	687b      	ldr	r3, [r7, #4]
 80005ba:	681b      	ldr	r3, [r3, #0]
 80005bc:	4a40      	ldr	r2, [pc, #256]	; (80006c0 <HAL_ADC_MspInit+0x120>)
 80005be:	4293      	cmp	r3, r2
 80005c0:	d17a      	bne.n	80006b8 <HAL_ADC_MspInit+0x118>
 80005c2:	2300      	movs	r3, #0
 80005c4:	613b      	str	r3, [r7, #16]
 80005c6:	4b3f      	ldr	r3, [pc, #252]	; (80006c4 <HAL_ADC_MspInit+0x124>)
 80005c8:	6c5b      	ldr	r3, [r3, #68]	; 0x44
 80005ca:	4a3e      	ldr	r2, [pc, #248]	; (80006c4 <HAL_ADC_MspInit+0x124>)
 80005cc:	f443 7300 	orr.w	r3, r3, #512	; 0x200
 80005d0:	6453      	str	r3, [r2, #68]	; 0x44
 80005d2:	4b3c      	ldr	r3, [pc, #240]	; (80006c4 <HAL_ADC_MspInit+0x124>)
 80005d4:	6c5b      	ldr	r3, [r3, #68]	; 0x44
 80005d6:	f403 7300 	and.w	r3, r3, #512	; 0x200
 80005da:	613b      	str	r3, [r7, #16]
 80005dc:	693b      	ldr	r3, [r7, #16]
 80005de:	2300      	movs	r3, #0
 80005e0:	60fb      	str	r3, [r7, #12]
 80005e2:	4b38      	ldr	r3, [pc, #224]	; (80006c4 <HAL_ADC_MspInit+0x124>)
 80005e4:	6b1b      	ldr	r3, [r3, #48]	; 0x30
 80005e6:	4a37      	ldr	r2, [pc, #220]	; (80006c4 <HAL_ADC_MspInit+0x124>)
 80005e8:	f043 0304 	orr.w	r3, r3, #4
 80005ec:	6313      	str	r3, [r2, #48]	; 0x30
 80005ee:	4b35      	ldr	r3, [pc, #212]	; (80006c4 <HAL_ADC_MspInit+0x124>)
 80005f0:	6b1b      	ldr	r3, [r3, #48]	; 0x30
 80005f2:	f003 0304 	and.w	r3, r3, #4
 80005f6:	60fb      	str	r3, [r7, #12]
 80005f8:	68fb      	ldr	r3, [r7, #12]
 80005fa:	2300      	movs	r3, #0
 80005fc:	60bb      	str	r3, [r7, #8]
 80005fe:	4b31      	ldr	r3, [pc, #196]	; (80006c4 <HAL_ADC_MspInit+0x124>)
 8000600:	6b1b      	ldr	r3, [r3, #48]	; 0x30
 8000602:	4a30      	ldr	r2, [pc, #192]	; (80006c4 <HAL_ADC_MspInit+0x124>)
 8000604:	f043 0301 	orr.w	r3, r3, #1
 8000608:	6313      	str	r3, [r2, #48]	; 0x30
 800060a:	4b2e      	ldr	r3, [pc, #184]	; (80006c4 <HAL_ADC_MspInit+0x124>)
 800060c:	6b1b      	ldr	r3, [r3, #48]	; 0x30
 800060e:	f003 0301 	and.w	r3, r3, #1
 8000612:	60bb      	str	r3, [r7, #8]
 8000614:	68bb      	ldr	r3, [r7, #8]
 8000616:	2304      	movs	r3, #4
 8000618:	617b      	str	r3, [r7, #20]
 800061a:	2303      	movs	r3, #3
 800061c:	61bb      	str	r3, [r7, #24]
 800061e:	2300      	movs	r3, #0
 8000620:	61fb      	str	r3, [r7, #28]
 8000622:	f107 0314 	add.w	r3, r7, #20
 8000626:	4619      	mov	r1, r3
 8000628:	4827      	ldr	r0, [pc, #156]	; (80006c8 <HAL_ADC_MspInit+0x128>)
 800062a:	f001 ff2b 	bl	8002484 <HAL_GPIO_Init>
 800062e:	2310      	movs	r3, #16
 8000630:	617b      	str	r3, [r7, #20]
 8000632:	2303      	movs	r3, #3
 8000634:	61bb      	str	r3, [r7, #24]
 8000636:	2300      	movs	r3, #0
 8000638:	61fb      	str	r3, [r7, #28]
 800063a:	f107 0314 	add.w	r3, r7, #20
 800063e:	4619      	mov	r1, r3
 8000640:	4822      	ldr	r0, [pc, #136]	; (80006cc <HAL_ADC_MspInit+0x12c>)
 8000642:	f001 ff1f 	bl	8002484 <HAL_GPIO_Init>
 8000646:	4b22      	ldr	r3, [pc, #136]	; (80006d0 <HAL_ADC_MspInit+0x130>)
 8000648:	4a22      	ldr	r2, [pc, #136]	; (80006d4 <HAL_ADC_MspInit+0x134>)
 800064a:	601a      	str	r2, [r3, #0]
 800064c:	4b20      	ldr	r3, [pc, #128]	; (80006d0 <HAL_ADC_MspInit+0x130>)
 800064e:	f04f 7200 	mov.w	r2, #33554432	; 0x2000000
 8000652:	605a      	str	r2, [r3, #4]
 8000654:	4b1e      	ldr	r3, [pc, #120]	; (80006d0 <HAL_ADC_MspInit+0x130>)
 8000656:	2200      	movs	r2, #0
 8000658:	609a      	str	r2, [r3, #8]
 800065a:	4b1d      	ldr	r3, [pc, #116]	; (80006d0 <HAL_ADC_MspInit+0x130>)
 800065c:	2200      	movs	r2, #0
 800065e:	60da      	str	r2, [r3, #12]
 8000660:	4b1b      	ldr	r3, [pc, #108]	; (80006d0 <HAL_ADC_MspInit+0x130>)
 8000662:	f44f 6280 	mov.w	r2, #1024	; 0x400
 8000666:	611a      	str	r2, [r3, #16]
 8000668:	4b19      	ldr	r3, [pc, #100]	; (80006d0 <HAL_ADC_MspInit+0x130>)
 800066a:	f44f 6200 	mov.w	r2, #2048	; 0x800
 800066e:	615a      	str	r2, [r3, #20]
 8000670:	4b17      	ldr	r3, [pc, #92]	; (80006d0 <HAL_ADC_MspInit+0x130>)
 8000672:	f44f 5200 	mov.w	r2, #8192	; 0x2000
 8000676:	619a      	str	r2, [r3, #24]
 8000678:	4b15      	ldr	r3, [pc, #84]	; (80006d0 <HAL_ADC_MspInit+0x130>)
 800067a:	f44f 7280 	mov.w	r2, #256	; 0x100
 800067e:	61da      	str	r2, [r3, #28]
 8000680:	4b13      	ldr	r3, [pc, #76]	; (80006d0 <HAL_ADC_MspInit+0x130>)
 8000682:	2200      	movs	r2, #0
 8000684:	621a      	str	r2, [r3, #32]
 8000686:	4b12      	ldr	r3, [pc, #72]	; (80006d0 <HAL_ADC_MspInit+0x130>)
 8000688:	2200      	movs	r2, #0
 800068a:	625a      	str	r2, [r3, #36]	; 0x24
 800068c:	4810      	ldr	r0, [pc, #64]	; (80006d0 <HAL_ADC_MspInit+0x130>)
 800068e:	f001 fb67 	bl	8001d60 <HAL_DMA_Init>
 8000692:	4603      	mov	r3, r0
 8000694:	2b00      	cmp	r3, #0
 8000696:	d001      	beq.n	800069c <HAL_ADC_MspInit+0xfc>
 8000698:	f000 f9fc 	bl	8000a94 <Error_Handler>
 800069c:	687b      	ldr	r3, [r7, #4]
 800069e:	4a0c      	ldr	r2, [pc, #48]	; (80006d0 <HAL_ADC_MspInit+0x130>)
 80006a0:	639a      	str	r2, [r3, #56]	; 0x38
 80006a2:	4a0b      	ldr	r2, [pc, #44]	; (80006d0 <HAL_ADC_MspInit+0x130>)
 80006a4:	687b      	ldr	r3, [r7, #4]
 80006a6:	6393      	str	r3, [r2, #56]	; 0x38
 80006a8:	2200      	movs	r2, #0
 80006aa:	2100      	movs	r1, #0
 80006ac:	2012      	movs	r0, #18
 80006ae:	f001 fb20 	bl	8001cf2 <HAL_NVIC_SetPriority>
 80006b2:	2012      	movs	r0, #18
 80006b4:	f001 fb39 	bl	8001d2a <HAL_NVIC_EnableIRQ>
 80006b8:	bf00      	nop
 80006ba:	3728      	adds	r7, #40	; 0x28
 80006bc:	46bd      	mov	sp, r7
 80006be:	bd80      	pop	{r7, pc}
 80006c0:	40012100 	.word	0x40012100
 80006c4:	40023800 	.word	0x40023800
 80006c8:	40020800 	.word	0x40020800
 80006cc:	40020000 	.word	0x40020000
 80006d0:	200000e4 	.word	0x200000e4
 80006d4:	40026440 	.word	0x40026440

080006d8 <MX_DMA_Init>:
 80006d8:	b580      	push	{r7, lr}
 80006da:	b082      	sub	sp, #8
 80006dc:	af00      	add	r7, sp, #0
 80006de:	2300      	movs	r3, #0
 80006e0:	607b      	str	r3, [r7, #4]
 80006e2:	4b1f      	ldr	r3, [pc, #124]	; (8000760 <MX_DMA_Init+0x88>)
 80006e4:	6b1b      	ldr	r3, [r3, #48]	; 0x30
 80006e6:	4a1e      	ldr	r2, [pc, #120]	; (8000760 <MX_DMA_Init+0x88>)
 80006e8:	f443 0380 	orr.w	r3, r3, #4194304	; 0x400000
 80006ec:	6313      	str	r3, [r2, #48]	; 0x30
 80006ee:	4b1c      	ldr	r3, [pc, #112]	; (8000760 <MX_DMA_Init+0x88>)
 80006f0:	6b1b      	ldr	r3, [r3, #48]	; 0x30
 80006f2:	f403 0380 	and.w	r3, r3, #4194304	; 0x400000
 80006f6:	607b      	str	r3, [r7, #4]
 80006f8:	687b      	ldr	r3, [r7, #4]
 80006fa:	2300      	movs	r3, #0
 80006fc:	603b      	str	r3, [r7, #0]
 80006fe:	4b18      	ldr	r3, [pc, #96]	; (8000760 <MX_DMA_Init+0x88>)
 8000700:	6b1b      	ldr	r3, [r3, #48]	; 0x30
 8000702:	4a17      	ldr	r2, [pc, #92]	; (8000760 <MX_DMA_Init+0x88>)
 8000704:	f443 1300 	orr.w	r3, r3, #2097152	; 0x200000
 8000708:	6313      	str	r3, [r2, #48]	; 0x30
 800070a:	4b15      	ldr	r3, [pc, #84]	; (8000760 <MX_DMA_Init+0x88>)
 800070c:	6b1b      	ldr	r3, [r3, #48]	; 0x30
 800070e:	f403 1300 	and.w	r3, r3, #2097152	; 0x200000
 8000712:	603b      	str	r3, [r7, #0]
 8000714:	683b      	ldr	r3, [r7, #0]
 8000716:	2200      	movs	r2, #0
 8000718:	2100      	movs	r1, #0
 800071a:	200c      	movs	r0, #12
 800071c:	f001 fae9 	bl	8001cf2 <HAL_NVIC_SetPriority>
 8000720:	200c      	movs	r0, #12
 8000722:	f001 fb02 	bl	8001d2a <HAL_NVIC_EnableIRQ>
 8000726:	2200      	movs	r2, #0
 8000728:	2100      	movs	r1, #0
 800072a:	200d      	movs	r0, #13
 800072c:	f001 fae1 	bl	8001cf2 <HAL_NVIC_SetPriority>
 8000730:	200d      	movs	r0, #13
 8000732:	f001 fafa 	bl	8001d2a <HAL_NVIC_EnableIRQ>
 8000736:	2200      	movs	r2, #0
 8000738:	2100      	movs	r1, #0
 800073a:	203a      	movs	r0, #58	; 0x3a
 800073c:	f001 fad9 	bl	8001cf2 <HAL_NVIC_SetPriority>
 8000740:	203a      	movs	r0, #58	; 0x3a
 8000742:	f001 faf2 	bl	8001d2a <HAL_NVIC_EnableIRQ>
 8000746:	2200      	movs	r2, #0
 8000748:	2100      	movs	r1, #0
 800074a:	2044      	movs	r0, #68	; 0x44
 800074c:	f001 fad1 	bl	8001cf2 <HAL_NVIC_SetPriority>
 8000750:	2044      	movs	r0, #68	; 0x44
 8000752:	f001 faea 	bl	8001d2a <HAL_NVIC_EnableIRQ>
 8000756:	bf00      	nop
 8000758:	3708      	adds	r7, #8
 800075a:	46bd      	mov	sp, r7
 800075c:	bd80      	pop	{r7, pc}
 800075e:	bf00      	nop
 8000760:	40023800 	.word	0x40023800

08000764 <MX_GPIO_Init>:
 8000764:	b580      	push	{r7, lr}
 8000766:	b08a      	sub	sp, #40	; 0x28
 8000768:	af00      	add	r7, sp, #0
 800076a:	f107 0314 	add.w	r3, r7, #20
 800076e:	2200      	movs	r2, #0
 8000770:	601a      	str	r2, [r3, #0]
 8000772:	605a      	str	r2, [r3, #4]
 8000774:	609a      	str	r2, [r3, #8]
 8000776:	60da      	str	r2, [r3, #12]
 8000778:	611a      	str	r2, [r3, #16]
 800077a:	2300      	movs	r3, #0
 800077c:	613b      	str	r3, [r7, #16]
 800077e:	4b68      	ldr	r3, [pc, #416]	; (8000920 <MX_GPIO_Init+0x1bc>)
 8000780:	6b1b      	ldr	r3, [r3, #48]	; 0x30
 8000782:	4a67      	ldr	r2, [pc, #412]	; (8000920 <MX_GPIO_Init+0x1bc>)
 8000784:	f043 0304 	orr.w	r3, r3, #4
 8000788:	6313      	str	r3, [r2, #48]	; 0x30
 800078a:	4b65      	ldr	r3, [pc, #404]	; (8000920 <MX_GPIO_Init+0x1bc>)
 800078c:	6b1b      	ldr	r3, [r3, #48]	; 0x30
 800078e:	f003 0304 	and.w	r3, r3, #4
 8000792:	613b      	str	r3, [r7, #16]
 8000794:	693b      	ldr	r3, [r7, #16]
 8000796:	2300      	movs	r3, #0
 8000798:	60fb      	str	r3, [r7, #12]
 800079a:	4b61      	ldr	r3, [pc, #388]	; (8000920 <MX_GPIO_Init+0x1bc>)
 800079c:	6b1b      	ldr	r3, [r3, #48]	; 0x30
 800079e:	4a60      	ldr	r2, [pc, #384]	; (8000920 <MX_GPIO_Init+0x1bc>)
 80007a0:	f043 0380 	orr.w	r3, r3, #128	; 0x80
 80007a4:	6313      	str	r3, [r2, #48]	; 0x30
 80007a6:	4b5e      	ldr	r3, [pc, #376]	; (8000920 <MX_GPIO_Init+0x1bc>)
 80007a8:	6b1b      	ldr	r3, [r3, #48]	; 0x30
 80007aa:	f003 0380 	and.w	r3, r3, #128	; 0x80
 80007ae:	60fb      	str	r3, [r7, #12]
 80007b0:	68fb      	ldr	r3, [r7, #12]
 80007b2:	2300      	movs	r3, #0
 80007b4:	60bb      	str	r3, [r7, #8]
 80007b6:	4b5a      	ldr	r3, [pc, #360]	; (8000920 <MX_GPIO_Init+0x1bc>)
 80007b8:	6b1b      	ldr	r3, [r3, #48]	; 0x30
 80007ba:	4a59      	ldr	r2, [pc, #356]	; (8000920 <MX_GPIO_Init+0x1bc>)
 80007bc:	f043 0301 	orr.w	r3, r3, #1
 80007c0:	6313      	str	r3, [r2, #48]	; 0x30
 80007c2:	4b57      	ldr	r3, [pc, #348]	; (8000920 <MX_GPIO_Init+0x1bc>)
 80007c4:	6b1b      	ldr	r3, [r3, #48]	; 0x30
 80007c6:	f003 0301 	and.w	r3, r3, #1
 80007ca:	60bb      	str	r3, [r7, #8]
 80007cc:	68bb      	ldr	r3, [r7, #8]
 80007ce:	2300      	movs	r3, #0
 80007d0:	607b      	str	r3, [r7, #4]
 80007d2:	4b53      	ldr	r3, [pc, #332]	; (8000920 <MX_GPIO_Init+0x1bc>)
 80007d4:	6b1b      	ldr	r3, [r3, #48]	; 0x30
 80007d6:	4a52      	ldr	r2, [pc, #328]	; (8000920 <MX_GPIO_Init+0x1bc>)
 80007d8:	f043 0302 	orr.w	r3, r3, #2
 80007dc:	6313      	str	r3, [r2, #48]	; 0x30
 80007de:	4b50      	ldr	r3, [pc, #320]	; (8000920 <MX_GPIO_Init+0x1bc>)
 80007e0:	6b1b      	ldr	r3, [r3, #48]	; 0x30
 80007e2:	f003 0302 	and.w	r3, r3, #2
 80007e6:	607b      	str	r3, [r7, #4]
 80007e8:	687b      	ldr	r3, [r7, #4]
 80007ea:	2300      	movs	r3, #0
 80007ec:	603b      	str	r3, [r7, #0]
 80007ee:	4b4c      	ldr	r3, [pc, #304]	; (8000920 <MX_GPIO_Init+0x1bc>)
 80007f0:	6b1b      	ldr	r3, [r3, #48]	; 0x30
 80007f2:	4a4b      	ldr	r2, [pc, #300]	; (8000920 <MX_GPIO_Init+0x1bc>)
 80007f4:	f043 0308 	orr.w	r3, r3, #8
 80007f8:	6313      	str	r3, [r2, #48]	; 0x30
 80007fa:	4b49      	ldr	r3, [pc, #292]	; (8000920 <MX_GPIO_Init+0x1bc>)
 80007fc:	6b1b      	ldr	r3, [r3, #48]	; 0x30
 80007fe:	f003 0308 	and.w	r3, r3, #8
 8000802:	603b      	str	r3, [r7, #0]
 8000804:	683b      	ldr	r3, [r7, #0]
 8000806:	2200      	movs	r2, #0
 8000808:	f44f 7100 	mov.w	r1, #512	; 0x200
 800080c:	4845      	ldr	r0, [pc, #276]	; (8000924 <MX_GPIO_Init+0x1c0>)
 800080e:	f001 ffcd 	bl	80027ac <HAL_GPIO_WritePin>
 8000812:	2200      	movs	r2, #0
 8000814:	f44f 7140 	mov.w	r1, #768	; 0x300
 8000818:	4843      	ldr	r0, [pc, #268]	; (8000928 <MX_GPIO_Init+0x1c4>)
 800081a:	f001 ffc7 	bl	80027ac <HAL_GPIO_WritePin>
 800081e:	f243 13e1 	movw	r3, #12769	; 0x31e1
 8000822:	617b      	str	r3, [r7, #20]
 8000824:	2303      	movs	r3, #3
 8000826:	61bb      	str	r3, [r7, #24]
 8000828:	2300      	movs	r3, #0
 800082a:	61fb      	str	r3, [r7, #28]
 800082c:	f107 0314 	add.w	r3, r7, #20
 8000830:	4619      	mov	r1, r3
 8000832:	483c      	ldr	r0, [pc, #240]	; (8000924 <MX_GPIO_Init+0x1c0>)
 8000834:	f001 fe26 	bl	8002484 <HAL_GPIO_Init>
 8000838:	2312      	movs	r3, #18
 800083a:	617b      	str	r3, [r7, #20]
 800083c:	2300      	movs	r3, #0
 800083e:	61bb      	str	r3, [r7, #24]
 8000840:	2300      	movs	r3, #0
 8000842:	61fb      	str	r3, [r7, #28]
 8000844:	f107 0314 	add.w	r3, r7, #20
 8000848:	4619      	mov	r1, r3
 800084a:	4836      	ldr	r0, [pc, #216]	; (8000924 <MX_GPIO_Init+0x1c0>)
 800084c:	f001 fe1a 	bl	8002484 <HAL_GPIO_Init>
 8000850:	2308      	movs	r3, #8
 8000852:	617b      	str	r3, [r7, #20]
 8000854:	4b35      	ldr	r3, [pc, #212]	; (800092c <MX_GPIO_Init+0x1c8>)
 8000856:	61bb      	str	r3, [r7, #24]
 8000858:	2300      	movs	r3, #0
 800085a:	61fb      	str	r3, [r7, #28]
 800085c:	f107 0314 	add.w	r3, r7, #20
 8000860:	4619      	mov	r1, r3
 8000862:	4830      	ldr	r0, [pc, #192]	; (8000924 <MX_GPIO_Init+0x1c0>)
 8000864:	f001 fe0e 	bl	8002484 <HAL_GPIO_Init>
 8000868:	f649 13ec 	movw	r3, #39404	; 0x99ec
 800086c:	617b      	str	r3, [r7, #20]
 800086e:	2303      	movs	r3, #3
 8000870:	61bb      	str	r3, [r7, #24]
 8000872:	2300      	movs	r3, #0
 8000874:	61fb      	str	r3, [r7, #28]
 8000876:	f107 0314 	add.w	r3, r7, #20
 800087a:	4619      	mov	r1, r3
 800087c:	482c      	ldr	r0, [pc, #176]	; (8000930 <MX_GPIO_Init+0x1cc>)
 800087e:	f001 fe01 	bl	8002484 <HAL_GPIO_Init>
 8000882:	2301      	movs	r3, #1
 8000884:	617b      	str	r3, [r7, #20]
 8000886:	4b2b      	ldr	r3, [pc, #172]	; (8000934 <MX_GPIO_Init+0x1d0>)
 8000888:	61bb      	str	r3, [r7, #24]
 800088a:	2301      	movs	r3, #1
 800088c:	61fb      	str	r3, [r7, #28]
 800088e:	f107 0314 	add.w	r3, r7, #20
 8000892:	4619      	mov	r1, r3
 8000894:	4824      	ldr	r0, [pc, #144]	; (8000928 <MX_GPIO_Init+0x1c4>)
 8000896:	f001 fdf5 	bl	8002484 <HAL_GPIO_Init>
 800089a:	f24f 43f6 	movw	r3, #62710	; 0xf4f6
 800089e:	617b      	str	r3, [r7, #20]
 80008a0:	2303      	movs	r3, #3
 80008a2:	61bb      	str	r3, [r7, #24]
 80008a4:	2300      	movs	r3, #0
 80008a6:	61fb      	str	r3, [r7, #28]
 80008a8:	f107 0314 	add.w	r3, r7, #20
 80008ac:	4619      	mov	r1, r3
 80008ae:	481e      	ldr	r0, [pc, #120]	; (8000928 <MX_GPIO_Init+0x1c4>)
 80008b0:	f001 fde8 	bl	8002484 <HAL_GPIO_Init>
 80008b4:	f44f 7300 	mov.w	r3, #512	; 0x200
 80008b8:	617b      	str	r3, [r7, #20]
 80008ba:	2301      	movs	r3, #1
 80008bc:	61bb      	str	r3, [r7, #24]
 80008be:	2300      	movs	r3, #0
 80008c0:	61fb      	str	r3, [r7, #28]
 80008c2:	2300      	movs	r3, #0
 80008c4:	623b      	str	r3, [r7, #32]
 80008c6:	f107 0314 	add.w	r3, r7, #20
 80008ca:	4619      	mov	r1, r3
 80008cc:	4815      	ldr	r0, [pc, #84]	; (8000924 <MX_GPIO_Init+0x1c0>)
 80008ce:	f001 fdd9 	bl	8002484 <HAL_GPIO_Init>
 80008d2:	2304      	movs	r3, #4
 80008d4:	617b      	str	r3, [r7, #20]
 80008d6:	2303      	movs	r3, #3
 80008d8:	61bb      	str	r3, [r7, #24]
 80008da:	2300      	movs	r3, #0
 80008dc:	61fb      	str	r3, [r7, #28]
 80008de:	f107 0314 	add.w	r3, r7, #20
 80008e2:	4619      	mov	r1, r3
 80008e4:	4814      	ldr	r0, [pc, #80]	; (8000938 <MX_GPIO_Init+0x1d4>)
 80008e6:	f001 fdcd 	bl	8002484 <HAL_GPIO_Init>
 80008ea:	f44f 7340 	mov.w	r3, #768	; 0x300
 80008ee:	617b      	str	r3, [r7, #20]
 80008f0:	2301      	movs	r3, #1
 80008f2:	61bb      	str	r3, [r7, #24]
 80008f4:	2300      	movs	r3, #0
 80008f6:	61fb      	str	r3, [r7, #28]
 80008f8:	2300      	movs	r3, #0
 80008fa:	623b      	str	r3, [r7, #32]
 80008fc:	f107 0314 	add.w	r3, r7, #20
 8000900:	4619      	mov	r1, r3
 8000902:	4809      	ldr	r0, [pc, #36]	; (8000928 <MX_GPIO_Init+0x1c4>)
 8000904:	f001 fdbe 	bl	8002484 <HAL_GPIO_Init>
 8000908:	2200      	movs	r2, #0
 800090a:	2100      	movs	r1, #0
 800090c:	2006      	movs	r0, #6
 800090e:	f001 f9f0 	bl	8001cf2 <HAL_NVIC_SetPriority>
 8000912:	2006      	movs	r0, #6
 8000914:	f001 fa09 	bl	8001d2a <HAL_NVIC_EnableIRQ>
 8000918:	bf00      	nop
 800091a:	3728      	adds	r7, #40	; 0x28
 800091c:	46bd      	mov	sp, r7
 800091e:	bd80      	pop	{r7, pc}
 8000920:	40023800 	.word	0x40023800
 8000924:	40020800 	.word	0x40020800
 8000928:	40020400 	.word	0x40020400
 800092c:	10110000 	.word	0x10110000
 8000930:	40020000 	.word	0x40020000
 8000934:	10210000 	.word	0x10210000
 8000938:	40020c00 	.word	0x40020c00

0800093c <MX_IWDG_Init>:
 800093c:	b580      	push	{r7, lr}
 800093e:	af00      	add	r7, sp, #0
 8000940:	4b09      	ldr	r3, [pc, #36]	; (8000968 <MX_IWDG_Init+0x2c>)
 8000942:	4a0a      	ldr	r2, [pc, #40]	; (800096c <MX_IWDG_Init+0x30>)
 8000944:	601a      	str	r2, [r3, #0]
 8000946:	4b08      	ldr	r3, [pc, #32]	; (8000968 <MX_IWDG_Init+0x2c>)
 8000948:	2200      	movs	r2, #0
 800094a:	605a      	str	r2, [r3, #4]
 800094c:	4b06      	ldr	r3, [pc, #24]	; (8000968 <MX_IWDG_Init+0x2c>)
 800094e:	f640 72ff 	movw	r2, #4095	; 0xfff
 8000952:	609a      	str	r2, [r3, #8]
 8000954:	4804      	ldr	r0, [pc, #16]	; (8000968 <MX_IWDG_Init+0x2c>)
 8000956:	f001 ff5b 	bl	8002810 <HAL_IWDG_Init>
 800095a:	4603      	mov	r3, r0
 800095c:	2b00      	cmp	r3, #0
 800095e:	d001      	beq.n	8000964 <MX_IWDG_Init+0x28>
 8000960:	f000 f898 	bl	8000a94 <Error_Handler>
 8000964:	bf00      	nop
 8000966:	bd80      	pop	{r7, pc}
 8000968:	20000144 	.word	0x20000144
 800096c:	40003000 	.word	0x40003000

08000970 <main>:
 8000970:	b580      	push	{r7, lr}
 8000972:	af00      	add	r7, sp, #0
 8000974:	f000 fc96 	bl	80012a4 <HAL_Init>
 8000978:	f000 f818 	bl	80009ac <SystemClock_Config>
 800097c:	f7ff fef2 	bl	8000764 <MX_GPIO_Init>
 8000980:	f7ff feaa 	bl	80006d8 <MX_DMA_Init>
 8000984:	f000 fa84 	bl	8000e90 <MX_UART4_Init>
 8000988:	f000 faac 	bl	8000ee4 <MX_USART1_UART_Init>
 800098c:	f000 f968 	bl	8000c60 <MX_TIM2_Init>
 8000990:	f7ff fdb4 	bl	80004fc <MX_ADC2_Init>
 8000994:	f000 fad0 	bl	8000f38 <MX_USART3_UART_Init>
 8000998:	f7ff ffd0 	bl	800093c <MX_IWDG_Init>
 800099c:	f000 f9ac 	bl	8000cf8 <MX_TIM6_Init>
 80009a0:	f000 f9de 	bl	8000d60 <MX_TIM7_Init>
 80009a4:	f004 f958 	bl	8004c58 <hydrogreen_main>
 80009a8:	e7fe      	b.n	80009a8 <main+0x38>
	...

080009ac <SystemClock_Config>:
 80009ac:	b580      	push	{r7, lr}
 80009ae:	b094      	sub	sp, #80	; 0x50
 80009b0:	af00      	add	r7, sp, #0
 80009b2:	f107 031c 	add.w	r3, r7, #28
 80009b6:	2234      	movs	r2, #52	; 0x34
 80009b8:	2100      	movs	r1, #0
 80009ba:	4618      	mov	r0, r3
 80009bc:	f005 f984 	bl	8005cc8 <memset>
 80009c0:	f107 0308 	add.w	r3, r7, #8
 80009c4:	2200      	movs	r2, #0
 80009c6:	601a      	str	r2, [r3, #0]
 80009c8:	605a      	str	r2, [r3, #4]
 80009ca:	609a      	str	r2, [r3, #8]
 80009cc:	60da      	str	r2, [r3, #12]
 80009ce:	611a      	str	r2, [r3, #16]
 80009d0:	2300      	movs	r3, #0
 80009d2:	607b      	str	r3, [r7, #4]
 80009d4:	4b2d      	ldr	r3, [pc, #180]	; (8000a8c <SystemClock_Config+0xe0>)
 80009d6:	6c1b      	ldr	r3, [r3, #64]	; 0x40
 80009d8:	4a2c      	ldr	r2, [pc, #176]	; (8000a8c <SystemClock_Config+0xe0>)
 80009da:	f043 5380 	orr.w	r3, r3, #268435456	; 0x10000000
 80009de:	6413      	str	r3, [r2, #64]	; 0x40
 80009e0:	4b2a      	ldr	r3, [pc, #168]	; (8000a8c <SystemClock_Config+0xe0>)
 80009e2:	6c1b      	ldr	r3, [r3, #64]	; 0x40
 80009e4:	f003 5380 	and.w	r3, r3, #268435456	; 0x10000000
 80009e8:	607b      	str	r3, [r7, #4]
 80009ea:	687b      	ldr	r3, [r7, #4]
 80009ec:	2300      	movs	r3, #0
 80009ee:	603b      	str	r3, [r7, #0]
 80009f0:	4b27      	ldr	r3, [pc, #156]	; (8000a90 <SystemClock_Config+0xe4>)
 80009f2:	681b      	ldr	r3, [r3, #0]
 80009f4:	4a26      	ldr	r2, [pc, #152]	; (8000a90 <SystemClock_Config+0xe4>)
 80009f6:	f443 4340 	orr.w	r3, r3, #49152	; 0xc000
 80009fa:	6013      	str	r3, [r2, #0]
 80009fc:	4b24      	ldr	r3, [pc, #144]	; (8000a90 <SystemClock_Config+0xe4>)
 80009fe:	681b      	ldr	r3, [r3, #0]
 8000a00:	f403 4340 	and.w	r3, r3, #49152	; 0xc000
 8000a04:	603b      	str	r3, [r7, #0]
 8000a06:	683b      	ldr	r3, [r7, #0]
 8000a08:	230a      	movs	r3, #10
 8000a0a:	61fb      	str	r3, [r7, #28]
 8000a0c:	2301      	movs	r3, #1
 8000a0e:	62bb      	str	r3, [r7, #40]	; 0x28
 8000a10:	2310      	movs	r3, #16
 8000a12:	62fb      	str	r3, [r7, #44]	; 0x2c
 8000a14:	2301      	movs	r3, #1
 8000a16:	633b      	str	r3, [r7, #48]	; 0x30
 8000a18:	2302      	movs	r3, #2
 8000a1a:	637b      	str	r3, [r7, #52]	; 0x34
 8000a1c:	2300      	movs	r3, #0
 8000a1e:	63bb      	str	r3, [r7, #56]	; 0x38
 8000a20:	2308      	movs	r3, #8
 8000a22:	63fb      	str	r3, [r7, #60]	; 0x3c
 8000a24:	23b4      	movs	r3, #180	; 0xb4
 8000a26:	643b      	str	r3, [r7, #64]	; 0x40
 8000a28:	2302      	movs	r3, #2
 8000a2a:	647b      	str	r3, [r7, #68]	; 0x44
 8000a2c:	2302      	movs	r3, #2
 8000a2e:	64bb      	str	r3, [r7, #72]	; 0x48
 8000a30:	2302      	movs	r3, #2
 8000a32:	64fb      	str	r3, [r7, #76]	; 0x4c
 8000a34:	f107 031c 	add.w	r3, r7, #28
 8000a38:	4618      	mov	r0, r3
 8000a3a:	f002 fa4f 	bl	8002edc <HAL_RCC_OscConfig>
 8000a3e:	4603      	mov	r3, r0
 8000a40:	2b00      	cmp	r3, #0
 8000a42:	d001      	beq.n	8000a48 <SystemClock_Config+0x9c>
 8000a44:	f000 f826 	bl	8000a94 <Error_Handler>
 8000a48:	f001 ff2c 	bl	80028a4 <HAL_PWREx_EnableOverDrive>
 8000a4c:	4603      	mov	r3, r0
 8000a4e:	2b00      	cmp	r3, #0
 8000a50:	d001      	beq.n	8000a56 <SystemClock_Config+0xaa>
 8000a52:	f000 f81f 	bl	8000a94 <Error_Handler>
 8000a56:	230f      	movs	r3, #15
 8000a58:	60bb      	str	r3, [r7, #8]
 8000a5a:	2302      	movs	r3, #2
 8000a5c:	60fb      	str	r3, [r7, #12]
 8000a5e:	2300      	movs	r3, #0
 8000a60:	613b      	str	r3, [r7, #16]
 8000a62:	f44f 53a0 	mov.w	r3, #5120	; 0x1400
 8000a66:	617b      	str	r3, [r7, #20]
 8000a68:	f44f 5380 	mov.w	r3, #4096	; 0x1000
 8000a6c:	61bb      	str	r3, [r7, #24]
 8000a6e:	f107 0308 	add.w	r3, r7, #8
 8000a72:	2105      	movs	r1, #5
 8000a74:	4618      	mov	r0, r3
 8000a76:	f001 ff65 	bl	8002944 <HAL_RCC_ClockConfig>
 8000a7a:	4603      	mov	r3, r0
 8000a7c:	2b00      	cmp	r3, #0
 8000a7e:	d001      	beq.n	8000a84 <SystemClock_Config+0xd8>
 8000a80:	f000 f808 	bl	8000a94 <Error_Handler>
 8000a84:	bf00      	nop
 8000a86:	3750      	adds	r7, #80	; 0x50
 8000a88:	46bd      	mov	sp, r7
 8000a8a:	bd80      	pop	{r7, pc}
 8000a8c:	40023800 	.word	0x40023800
 8000a90:	40007000 	.word	0x40007000

08000a94 <Error_Handler>:
 8000a94:	b580      	push	{r7, lr}
 8000a96:	af00      	add	r7, sp, #0
 8000a98:	f004 f900 	bl	8004c9c <hydrogreen_hardFault>
 8000a9c:	bf00      	nop
 8000a9e:	bd80      	pop	{r7, pc}

08000aa0 <HAL_MspInit>:
 8000aa0:	b580      	push	{r7, lr}
 8000aa2:	b082      	sub	sp, #8
 8000aa4:	af00      	add	r7, sp, #0
 8000aa6:	2300      	movs	r3, #0
 8000aa8:	607b      	str	r3, [r7, #4]
 8000aaa:	4b10      	ldr	r3, [pc, #64]	; (8000aec <HAL_MspInit+0x4c>)
 8000aac:	6c5b      	ldr	r3, [r3, #68]	; 0x44
 8000aae:	4a0f      	ldr	r2, [pc, #60]	; (8000aec <HAL_MspInit+0x4c>)
 8000ab0:	f443 4380 	orr.w	r3, r3, #16384	; 0x4000
 8000ab4:	6453      	str	r3, [r2, #68]	; 0x44
 8000ab6:	4b0d      	ldr	r3, [pc, #52]	; (8000aec <HAL_MspInit+0x4c>)
 8000ab8:	6c5b      	ldr	r3, [r3, #68]	; 0x44
 8000aba:	f403 4380 	and.w	r3, r3, #16384	; 0x4000
 8000abe:	607b      	str	r3, [r7, #4]
 8000ac0:	687b      	ldr	r3, [r7, #4]
 8000ac2:	2300      	movs	r3, #0
 8000ac4:	603b      	str	r3, [r7, #0]
 8000ac6:	4b09      	ldr	r3, [pc, #36]	; (8000aec <HAL_MspInit+0x4c>)
 8000ac8:	6c1b      	ldr	r3, [r3, #64]	; 0x40
 8000aca:	4a08      	ldr	r2, [pc, #32]	; (8000aec <HAL_MspInit+0x4c>)
 8000acc:	f043 5380 	orr.w	r3, r3, #268435456	; 0x10000000
 8000ad0:	6413      	str	r3, [r2, #64]	; 0x40
 8000ad2:	4b06      	ldr	r3, [pc, #24]	; (8000aec <HAL_MspInit+0x4c>)
 8000ad4:	6c1b      	ldr	r3, [r3, #64]	; 0x40
 8000ad6:	f003 5380 	and.w	r3, r3, #268435456	; 0x10000000
 8000ada:	603b      	str	r3, [r7, #0]
 8000adc:	683b      	ldr	r3, [r7, #0]
 8000ade:	2007      	movs	r0, #7
 8000ae0:	f001 f8fc 	bl	8001cdc <HAL_NVIC_SetPriorityGrouping>
 8000ae4:	bf00      	nop
 8000ae6:	3708      	adds	r7, #8
 8000ae8:	46bd      	mov	sp, r7
 8000aea:	bd80      	pop	{r7, pc}
 8000aec:	40023800 	.word	0x40023800

08000af0 <NMI_Handler>:
 8000af0:	b480      	push	{r7}
 8000af2:	af00      	add	r7, sp, #0
 8000af4:	e7fe      	b.n	8000af4 <NMI_Handler+0x4>

08000af6 <HardFault_Handler>:
 8000af6:	b480      	push	{r7}
 8000af8:	af00      	add	r7, sp, #0
 8000afa:	e7fe      	b.n	8000afa <HardFault_Handler+0x4>

08000afc <MemManage_Handler>:
 8000afc:	b480      	push	{r7}
 8000afe:	af00      	add	r7, sp, #0
 8000b00:	e7fe      	b.n	8000b00 <MemManage_Handler+0x4>

08000b02 <BusFault_Handler>:
 8000b02:	b480      	push	{r7}
 8000b04:	af00      	add	r7, sp, #0
 8000b06:	e7fe      	b.n	8000b06 <BusFault_Handler+0x4>

08000b08 <UsageFault_Handler>:
 8000b08:	b480      	push	{r7}
 8000b0a:	af00      	add	r7, sp, #0
 8000b0c:	e7fe      	b.n	8000b0c <UsageFault_Handler+0x4>

08000b0e <SVC_Handler>:
 8000b0e:	b480      	push	{r7}
 8000b10:	af00      	add	r7, sp, #0
 8000b12:	bf00      	nop
 8000b14:	46bd      	mov	sp, r7
 8000b16:	f85d 7b04 	ldr.w	r7, [sp], #4
 8000b1a:	4770      	bx	lr

08000b1c <DebugMon_Handler>:
 8000b1c:	b480      	push	{r7}
 8000b1e:	af00      	add	r7, sp, #0
 8000b20:	bf00      	nop
 8000b22:	46bd      	mov	sp, r7
 8000b24:	f85d 7b04 	ldr.w	r7, [sp], #4
 8000b28:	4770      	bx	lr

08000b2a <PendSV_Handler>:
 8000b2a:	b480      	push	{r7}
 8000b2c:	af00      	add	r7, sp, #0
 8000b2e:	bf00      	nop
 8000b30:	46bd      	mov	sp, r7
 8000b32:	f85d 7b04 	ldr.w	r7, [sp], #4
 8000b36:	4770      	bx	lr

08000b38 <SysTick_Handler>:
 8000b38:	b580      	push	{r7, lr}
 8000b3a:	af00      	add	r7, sp, #0
 8000b3c:	f005 f83a 	bl	8005bb4 <HAL_SYSTICK_Callback>
 8000b40:	f000 fc02 	bl	8001348 <HAL_IncTick>
 8000b44:	bf00      	nop
 8000b46:	bd80      	pop	{r7, pc}

08000b48 <EXTI0_IRQHandler>:
 8000b48:	b580      	push	{r7, lr}
 8000b4a:	af00      	add	r7, sp, #0
 8000b4c:	2001      	movs	r0, #1
 8000b4e:	f001 fe47 	bl	80027e0 <HAL_GPIO_EXTI_IRQHandler>
 8000b52:	bf00      	nop
 8000b54:	bd80      	pop	{r7, pc}
	...

08000b58 <DMA1_Stream1_IRQHandler>:
 8000b58:	b580      	push	{r7, lr}
 8000b5a:	af00      	add	r7, sp, #0
 8000b5c:	4802      	ldr	r0, [pc, #8]	; (8000b68 <DMA1_Stream1_IRQHandler+0x10>)
 8000b5e:	f001 fa27 	bl	8001fb0 <HAL_DMA_IRQHandler>
 8000b62:	bf00      	nop
 8000b64:	bd80      	pop	{r7, pc}
 8000b66:	bf00      	nop
 8000b68:	20000270 	.word	0x20000270

08000b6c <DMA1_Stream2_IRQHandler>:
 8000b6c:	b580      	push	{r7, lr}
 8000b6e:	af00      	add	r7, sp, #0
 8000b70:	4802      	ldr	r0, [pc, #8]	; (8000b7c <DMA1_Stream2_IRQHandler+0x10>)
 8000b72:	f001 fa1d 	bl	8001fb0 <HAL_DMA_IRQHandler>
 8000b76:	bf00      	nop
 8000b78:	bd80      	pop	{r7, pc}
 8000b7a:	bf00      	nop
 8000b7c:	20000210 	.word	0x20000210

08000b80 <ADC_IRQHandler>:
 8000b80:	b580      	push	{r7, lr}
 8000b82:	af00      	add	r7, sp, #0
 8000b84:	4802      	ldr	r0, [pc, #8]	; (8000b90 <ADC_IRQHandler+0x10>)
 8000b86:	f000 fc42 	bl	800140e <HAL_ADC_IRQHandler>
 8000b8a:	bf00      	nop
 8000b8c:	bd80      	pop	{r7, pc}
 8000b8e:	bf00      	nop
 8000b90:	2000009c 	.word	0x2000009c

08000b94 <TIM2_IRQHandler>:
 8000b94:	b580      	push	{r7, lr}
 8000b96:	af00      	add	r7, sp, #0
 8000b98:	4802      	ldr	r0, [pc, #8]	; (8000ba4 <TIM2_IRQHandler+0x10>)
 8000b9a:	f002 fc48 	bl	800342e <HAL_TIM_IRQHandler>
 8000b9e:	bf00      	nop
 8000ba0:	bd80      	pop	{r7, pc}
 8000ba2:	bf00      	nop
 8000ba4:	20000190 	.word	0x20000190

08000ba8 <USART1_IRQHandler>:
 8000ba8:	b580      	push	{r7, lr}
 8000baa:	af00      	add	r7, sp, #0
 8000bac:	4802      	ldr	r0, [pc, #8]	; (8000bb8 <USART1_IRQHandler+0x10>)
 8000bae:	f003 f963 	bl	8003e78 <HAL_UART_IRQHandler>
 8000bb2:	bf00      	nop
 8000bb4:	bd80      	pop	{r7, pc}
 8000bb6:	bf00      	nop
 8000bb8:	20000370 	.word	0x20000370

08000bbc <USART3_IRQHandler>:
 8000bbc:	b580      	push	{r7, lr}
 8000bbe:	af00      	add	r7, sp, #0
 8000bc0:	4802      	ldr	r0, [pc, #8]	; (8000bcc <USART3_IRQHandler+0x10>)
 8000bc2:	f003 f959 	bl	8003e78 <HAL_UART_IRQHandler>
 8000bc6:	bf00      	nop
 8000bc8:	bd80      	pop	{r7, pc}
 8000bca:	bf00      	nop
 8000bcc:	200002d0 	.word	0x200002d0

08000bd0 <UART4_IRQHandler>:
 8000bd0:	b580      	push	{r7, lr}
 8000bd2:	af00      	add	r7, sp, #0
 8000bd4:	4802      	ldr	r0, [pc, #8]	; (8000be0 <UART4_IRQHandler+0x10>)
 8000bd6:	f003 f94f 	bl	8003e78 <HAL_UART_IRQHandler>
 8000bda:	bf00      	nop
 8000bdc:	bd80      	pop	{r7, pc}
 8000bde:	bf00      	nop
 8000be0:	200003b0 	.word	0x200003b0

08000be4 <TIM6_DAC_IRQHandler>:
 8000be4:	b580      	push	{r7, lr}
 8000be6:	af00      	add	r7, sp, #0
 8000be8:	4802      	ldr	r0, [pc, #8]	; (8000bf4 <TIM6_DAC_IRQHandler+0x10>)
 8000bea:	f002 fc20 	bl	800342e <HAL_TIM_IRQHandler>
 8000bee:	bf00      	nop
 8000bf0:	bd80      	pop	{r7, pc}
 8000bf2:	bf00      	nop
 8000bf4:	20000150 	.word	0x20000150

08000bf8 <TIM7_IRQHandler>:
 8000bf8:	b580      	push	{r7, lr}
 8000bfa:	af00      	add	r7, sp, #0
 8000bfc:	4802      	ldr	r0, [pc, #8]	; (8000c08 <TIM7_IRQHandler+0x10>)
 8000bfe:	f002 fc16 	bl	800342e <HAL_TIM_IRQHandler>
 8000c02:	bf00      	nop
 8000c04:	bd80      	pop	{r7, pc}
 8000c06:	bf00      	nop
 8000c08:	200001d0 	.word	0x200001d0

08000c0c <DMA2_Stream2_IRQHandler>:
 8000c0c:	b580      	push	{r7, lr}
 8000c0e:	af00      	add	r7, sp, #0
 8000c10:	4802      	ldr	r0, [pc, #8]	; (8000c1c <DMA2_Stream2_IRQHandler+0x10>)
 8000c12:	f001 f9cd 	bl	8001fb0 <HAL_DMA_IRQHandler>
 8000c16:	bf00      	nop
 8000c18:	bd80      	pop	{r7, pc}
 8000c1a:	bf00      	nop
 8000c1c:	200000e4 	.word	0x200000e4

08000c20 <DMA2_Stream5_IRQHandler>:
 8000c20:	b580      	push	{r7, lr}
 8000c22:	af00      	add	r7, sp, #0
 8000c24:	4802      	ldr	r0, [pc, #8]	; (8000c30 <DMA2_Stream5_IRQHandler+0x10>)
 8000c26:	f001 f9c3 	bl	8001fb0 <HAL_DMA_IRQHandler>
 8000c2a:	bf00      	nop
 8000c2c:	bd80      	pop	{r7, pc}
 8000c2e:	bf00      	nop
 8000c30:	20000310 	.word	0x20000310

08000c34 <SystemInit>:
 8000c34:	b480      	push	{r7}
 8000c36:	af00      	add	r7, sp, #0
 8000c38:	4b08      	ldr	r3, [pc, #32]	; (8000c5c <SystemInit+0x28>)
 8000c3a:	f8d3 3088 	ldr.w	r3, [r3, #136]	; 0x88
 8000c3e:	4a07      	ldr	r2, [pc, #28]	; (8000c5c <SystemInit+0x28>)
 8000c40:	f443 0370 	orr.w	r3, r3, #15728640	; 0xf00000
 8000c44:	f8c2 3088 	str.w	r3, [r2, #136]	; 0x88
 8000c48:	4b04      	ldr	r3, [pc, #16]	; (8000c5c <SystemInit+0x28>)
 8000c4a:	f04f 6200 	mov.w	r2, #134217728	; 0x8000000
 8000c4e:	609a      	str	r2, [r3, #8]
 8000c50:	bf00      	nop
 8000c52:	46bd      	mov	sp, r7
 8000c54:	f85d 7b04 	ldr.w	r7, [sp], #4
 8000c58:	4770      	bx	lr
 8000c5a:	bf00      	nop
 8000c5c:	e000ed00 	.word	0xe000ed00

08000c60 <MX_TIM2_Init>:
 8000c60:	b580      	push	{r7, lr}
 8000c62:	b086      	sub	sp, #24
 8000c64:	af00      	add	r7, sp, #0
 8000c66:	f107 0308 	add.w	r3, r7, #8
 8000c6a:	2200      	movs	r2, #0
 8000c6c:	601a      	str	r2, [r3, #0]
 8000c6e:	605a      	str	r2, [r3, #4]
 8000c70:	609a      	str	r2, [r3, #8]
 8000c72:	60da      	str	r2, [r3, #12]
 8000c74:	463b      	mov	r3, r7
 8000c76:	2200      	movs	r2, #0
 8000c78:	601a      	str	r2, [r3, #0]
 8000c7a:	605a      	str	r2, [r3, #4]
 8000c7c:	4b1d      	ldr	r3, [pc, #116]	; (8000cf4 <MX_TIM2_Init+0x94>)
 8000c7e:	f04f 4280 	mov.w	r2, #1073741824	; 0x40000000
 8000c82:	601a      	str	r2, [r3, #0]
 8000c84:	4b1b      	ldr	r3, [pc, #108]	; (8000cf4 <MX_TIM2_Init+0x94>)
 8000c86:	f242 02cf 	movw	r2, #8399	; 0x20cf
 8000c8a:	605a      	str	r2, [r3, #4]
 8000c8c:	4b19      	ldr	r3, [pc, #100]	; (8000cf4 <MX_TIM2_Init+0x94>)
 8000c8e:	2200      	movs	r2, #0
 8000c90:	609a      	str	r2, [r3, #8]
 8000c92:	4b18      	ldr	r3, [pc, #96]	; (8000cf4 <MX_TIM2_Init+0x94>)
 8000c94:	2231      	movs	r2, #49	; 0x31
 8000c96:	60da      	str	r2, [r3, #12]
 8000c98:	4b16      	ldr	r3, [pc, #88]	; (8000cf4 <MX_TIM2_Init+0x94>)
 8000c9a:	2200      	movs	r2, #0
 8000c9c:	611a      	str	r2, [r3, #16]
 8000c9e:	4b15      	ldr	r3, [pc, #84]	; (8000cf4 <MX_TIM2_Init+0x94>)
 8000ca0:	2200      	movs	r2, #0
 8000ca2:	619a      	str	r2, [r3, #24]
 8000ca4:	4813      	ldr	r0, [pc, #76]	; (8000cf4 <MX_TIM2_Init+0x94>)
 8000ca6:	f002 fb73 	bl	8003390 <HAL_TIM_Base_Init>
 8000caa:	4603      	mov	r3, r0
 8000cac:	2b00      	cmp	r3, #0
 8000cae:	d001      	beq.n	8000cb4 <MX_TIM2_Init+0x54>
 8000cb0:	f7ff fef0 	bl	8000a94 <Error_Handler>
 8000cb4:	f44f 5380 	mov.w	r3, #4096	; 0x1000
 8000cb8:	60bb      	str	r3, [r7, #8]
 8000cba:	f107 0308 	add.w	r3, r7, #8
 8000cbe:	4619      	mov	r1, r3
 8000cc0:	480c      	ldr	r0, [pc, #48]	; (8000cf4 <MX_TIM2_Init+0x94>)
 8000cc2:	f002 fcbc 	bl	800363e <HAL_TIM_ConfigClockSource>
 8000cc6:	4603      	mov	r3, r0
 8000cc8:	2b00      	cmp	r3, #0
 8000cca:	d001      	beq.n	8000cd0 <MX_TIM2_Init+0x70>
 8000ccc:	f7ff fee2 	bl	8000a94 <Error_Handler>
 8000cd0:	2320      	movs	r3, #32
 8000cd2:	603b      	str	r3, [r7, #0]
 8000cd4:	2300      	movs	r3, #0
 8000cd6:	607b      	str	r3, [r7, #4]
 8000cd8:	463b      	mov	r3, r7
 8000cda:	4619      	mov	r1, r3
 8000cdc:	4805      	ldr	r0, [pc, #20]	; (8000cf4 <MX_TIM2_Init+0x94>)
 8000cde:	f002 fed5 	bl	8003a8c <HAL_TIMEx_MasterConfigSynchronization>
 8000ce2:	4603      	mov	r3, r0
 8000ce4:	2b00      	cmp	r3, #0
 8000ce6:	d001      	beq.n	8000cec <MX_TIM2_Init+0x8c>
 8000ce8:	f7ff fed4 	bl	8000a94 <Error_Handler>
 8000cec:	bf00      	nop
 8000cee:	3718      	adds	r7, #24
 8000cf0:	46bd      	mov	sp, r7
 8000cf2:	bd80      	pop	{r7, pc}
 8000cf4:	20000190 	.word	0x20000190

08000cf8 <MX_TIM6_Init>:
 8000cf8:	b580      	push	{r7, lr}
 8000cfa:	b082      	sub	sp, #8
 8000cfc:	af00      	add	r7, sp, #0
 8000cfe:	463b      	mov	r3, r7
 8000d00:	2200      	movs	r2, #0
 8000d02:	601a      	str	r2, [r3, #0]
 8000d04:	605a      	str	r2, [r3, #4]
 8000d06:	4b14      	ldr	r3, [pc, #80]	; (8000d58 <MX_TIM6_Init+0x60>)
 8000d08:	4a14      	ldr	r2, [pc, #80]	; (8000d5c <MX_TIM6_Init+0x64>)
 8000d0a:	601a      	str	r2, [r3, #0]
 8000d0c:	4b12      	ldr	r3, [pc, #72]	; (8000d58 <MX_TIM6_Init+0x60>)
 8000d0e:	2259      	movs	r2, #89	; 0x59
 8000d10:	605a      	str	r2, [r3, #4]
 8000d12:	4b11      	ldr	r3, [pc, #68]	; (8000d58 <MX_TIM6_Init+0x60>)
 8000d14:	2200      	movs	r2, #0
 8000d16:	609a      	str	r2, [r3, #8]
 8000d18:	4b0f      	ldr	r3, [pc, #60]	; (8000d58 <MX_TIM6_Init+0x60>)
 8000d1a:	2263      	movs	r2, #99	; 0x63
 8000d1c:	60da      	str	r2, [r3, #12]
 8000d1e:	4b0e      	ldr	r3, [pc, #56]	; (8000d58 <MX_TIM6_Init+0x60>)
 8000d20:	2200      	movs	r2, #0
 8000d22:	619a      	str	r2, [r3, #24]
 8000d24:	480c      	ldr	r0, [pc, #48]	; (8000d58 <MX_TIM6_Init+0x60>)
 8000d26:	f002 fb33 	bl	8003390 <HAL_TIM_Base_Init>
 8000d2a:	4603      	mov	r3, r0
 8000d2c:	2b00      	cmp	r3, #0
 8000d2e:	d001      	beq.n	8000d34 <MX_TIM6_Init+0x3c>
 8000d30:	f7ff feb0 	bl	8000a94 <Error_Handler>
 8000d34:	2300      	movs	r3, #0
 8000d36:	603b      	str	r3, [r7, #0]
 8000d38:	2300      	movs	r3, #0
 8000d3a:	607b      	str	r3, [r7, #4]
 8000d3c:	463b      	mov	r3, r7
 8000d3e:	4619      	mov	r1, r3
 8000d40:	4805      	ldr	r0, [pc, #20]	; (8000d58 <MX_TIM6_Init+0x60>)
 8000d42:	f002 fea3 	bl	8003a8c <HAL_TIMEx_MasterConfigSynchronization>
 8000d46:	4603      	mov	r3, r0
 8000d48:	2b00      	cmp	r3, #0
 8000d4a:	d001      	beq.n	8000d50 <MX_TIM6_Init+0x58>
 8000d4c:	f7ff fea2 	bl	8000a94 <Error_Handler>
 8000d50:	bf00      	nop
 8000d52:	3708      	adds	r7, #8
 8000d54:	46bd      	mov	sp, r7
 8000d56:	bd80      	pop	{r7, pc}
 8000d58:	20000150 	.word	0x20000150
 8000d5c:	40001000 	.word	0x40001000

08000d60 <MX_TIM7_Init>:
 8000d60:	b580      	push	{r7, lr}
 8000d62:	b082      	sub	sp, #8
 8000d64:	af00      	add	r7, sp, #0
 8000d66:	463b      	mov	r3, r7
 8000d68:	2200      	movs	r2, #0
 8000d6a:	601a      	str	r2, [r3, #0]
 8000d6c:	605a      	str	r2, [r3, #4]
 8000d6e:	4b15      	ldr	r3, [pc, #84]	; (8000dc4 <MX_TIM7_Init+0x64>)
 8000d70:	4a15      	ldr	r2, [pc, #84]	; (8000dc8 <MX_TIM7_Init+0x68>)
 8000d72:	601a      	str	r2, [r3, #0]
 8000d74:	4b13      	ldr	r3, [pc, #76]	; (8000dc4 <MX_TIM7_Init+0x64>)
 8000d76:	2259      	movs	r2, #89	; 0x59
 8000d78:	605a      	str	r2, [r3, #4]
 8000d7a:	4b12      	ldr	r3, [pc, #72]	; (8000dc4 <MX_TIM7_Init+0x64>)
 8000d7c:	2200      	movs	r2, #0
 8000d7e:	609a      	str	r2, [r3, #8]
 8000d80:	4b10      	ldr	r3, [pc, #64]	; (8000dc4 <MX_TIM7_Init+0x64>)
 8000d82:	f240 32e7 	movw	r2, #999	; 0x3e7
 8000d86:	60da      	str	r2, [r3, #12]
 8000d88:	4b0e      	ldr	r3, [pc, #56]	; (8000dc4 <MX_TIM7_Init+0x64>)
 8000d8a:	2280      	movs	r2, #128	; 0x80
 8000d8c:	619a      	str	r2, [r3, #24]
 8000d8e:	480d      	ldr	r0, [pc, #52]	; (8000dc4 <MX_TIM7_Init+0x64>)
 8000d90:	f002 fafe 	bl	8003390 <HAL_TIM_Base_Init>
 8000d94:	4603      	mov	r3, r0
 8000d96:	2b00      	cmp	r3, #0
 8000d98:	d001      	beq.n	8000d9e <MX_TIM7_Init+0x3e>
 8000d9a:	f7ff fe7b 	bl	8000a94 <Error_Handler>
 8000d9e:	2300      	movs	r3, #0
 8000da0:	603b      	str	r3, [r7, #0]
 8000da2:	2300      	movs	r3, #0
 8000da4:	607b      	str	r3, [r7, #4]
 8000da6:	463b      	mov	r3, r7
 8000da8:	4619      	mov	r1, r3
 8000daa:	4806      	ldr	r0, [pc, #24]	; (8000dc4 <MX_TIM7_Init+0x64>)
 8000dac:	f002 fe6e 	bl	8003a8c <HAL_TIMEx_MasterConfigSynchronization>
 8000db0:	4603      	mov	r3, r0
 8000db2:	2b00      	cmp	r3, #0
 8000db4:	d001      	beq.n	8000dba <MX_TIM7_Init+0x5a>
 8000db6:	f7ff fe6d 	bl	8000a94 <Error_Handler>
 8000dba:	bf00      	nop
 8000dbc:	3708      	adds	r7, #8
 8000dbe:	46bd      	mov	sp, r7
 8000dc0:	bd80      	pop	{r7, pc}
 8000dc2:	bf00      	nop
 8000dc4:	200001d0 	.word	0x200001d0
 8000dc8:	40001400 	.word	0x40001400

08000dcc <HAL_TIM_Base_MspInit>:
 8000dcc:	b580      	push	{r7, lr}
 8000dce:	b086      	sub	sp, #24
 8000dd0:	af00      	add	r7, sp, #0
 8000dd2:	6078      	str	r0, [r7, #4]
 8000dd4:	687b      	ldr	r3, [r7, #4]
 8000dd6:	681b      	ldr	r3, [r3, #0]
 8000dd8:	f1b3 4f80 	cmp.w	r3, #1073741824	; 0x40000000
 8000ddc:	d116      	bne.n	8000e0c <HAL_TIM_Base_MspInit+0x40>
 8000dde:	2300      	movs	r3, #0
 8000de0:	617b      	str	r3, [r7, #20]
 8000de2:	4b28      	ldr	r3, [pc, #160]	; (8000e84 <HAL_TIM_Base_MspInit+0xb8>)
 8000de4:	6c1b      	ldr	r3, [r3, #64]	; 0x40
 8000de6:	4a27      	ldr	r2, [pc, #156]	; (8000e84 <HAL_TIM_Base_MspInit+0xb8>)
 8000de8:	f043 0301 	orr.w	r3, r3, #1
 8000dec:	6413      	str	r3, [r2, #64]	; 0x40
 8000dee:	4b25      	ldr	r3, [pc, #148]	; (8000e84 <HAL_TIM_Base_MspInit+0xb8>)
 8000df0:	6c1b      	ldr	r3, [r3, #64]	; 0x40
 8000df2:	f003 0301 	and.w	r3, r3, #1
 8000df6:	617b      	str	r3, [r7, #20]
 8000df8:	697b      	ldr	r3, [r7, #20]
 8000dfa:	2200      	movs	r2, #0
 8000dfc:	2100      	movs	r1, #0
 8000dfe:	201c      	movs	r0, #28
 8000e00:	f000 ff77 	bl	8001cf2 <HAL_NVIC_SetPriority>
 8000e04:	201c      	movs	r0, #28
 8000e06:	f000 ff90 	bl	8001d2a <HAL_NVIC_EnableIRQ>
 8000e0a:	e036      	b.n	8000e7a <HAL_TIM_Base_MspInit+0xae>
 8000e0c:	687b      	ldr	r3, [r7, #4]
 8000e0e:	681b      	ldr	r3, [r3, #0]
 8000e10:	4a1d      	ldr	r2, [pc, #116]	; (8000e88 <HAL_TIM_Base_MspInit+0xbc>)
 8000e12:	4293      	cmp	r3, r2
 8000e14:	d116      	bne.n	8000e44 <HAL_TIM_Base_MspInit+0x78>
 8000e16:	2300      	movs	r3, #0
 8000e18:	613b      	str	r3, [r7, #16]
 8000e1a:	4b1a      	ldr	r3, [pc, #104]	; (8000e84 <HAL_TIM_Base_MspInit+0xb8>)
 8000e1c:	6c1b      	ldr	r3, [r3, #64]	; 0x40
 8000e1e:	4a19      	ldr	r2, [pc, #100]	; (8000e84 <HAL_TIM_Base_MspInit+0xb8>)
 8000e20:	f043 0310 	orr.w	r3, r3, #16
 8000e24:	6413      	str	r3, [r2, #64]	; 0x40
 8000e26:	4b17      	ldr	r3, [pc, #92]	; (8000e84 <HAL_TIM_Base_MspInit+0xb8>)
 8000e28:	6c1b      	ldr	r3, [r3, #64]	; 0x40
 8000e2a:	f003 0310 	and.w	r3, r3, #16
 8000e2e:	613b      	str	r3, [r7, #16]
 8000e30:	693b      	ldr	r3, [r7, #16]
 8000e32:	2200      	movs	r2, #0
 8000e34:	2100      	movs	r1, #0
 8000e36:	2036      	movs	r0, #54	; 0x36
 8000e38:	f000 ff5b 	bl	8001cf2 <HAL_NVIC_SetPriority>
 8000e3c:	2036      	movs	r0, #54	; 0x36
 8000e3e:	f000 ff74 	bl	8001d2a <HAL_NVIC_EnableIRQ>
 8000e42:	e01a      	b.n	8000e7a <HAL_TIM_Base_MspInit+0xae>
 8000e44:	687b      	ldr	r3, [r7, #4]
 8000e46:	681b      	ldr	r3, [r3, #0]
 8000e48:	4a10      	ldr	r2, [pc, #64]	; (8000e8c <HAL_TIM_Base_MspInit+0xc0>)
 8000e4a:	4293      	cmp	r3, r2
 8000e4c:	d115      	bne.n	8000e7a <HAL_TIM_Base_MspInit+0xae>
 8000e4e:	2300      	movs	r3, #0
 8000e50:	60fb      	str	r3, [r7, #12]
 8000e52:	4b0c      	ldr	r3, [pc, #48]	; (8000e84 <HAL_TIM_Base_MspInit+0xb8>)
 8000e54:	6c1b      	ldr	r3, [r3, #64]	; 0x40
 8000e56:	4a0b      	ldr	r2, [pc, #44]	; (8000e84 <HAL_TIM_Base_MspInit+0xb8>)
 8000e58:	f043 0320 	orr.w	r3, r3, #32
 8000e5c:	6413      	str	r3, [r2, #64]	; 0x40
 8000e5e:	4b09      	ldr	r3, [pc, #36]	; (8000e84 <HAL_TIM_Base_MspInit+0xb8>)
 8000e60:	6c1b      	ldr	r3, [r3, #64]	; 0x40
 8000e62:	f003 0320 	and.w	r3, r3, #32
 8000e66:	60fb      	str	r3, [r7, #12]
 8000e68:	68fb      	ldr	r3, [r7, #12]
 8000e6a:	2200      	movs	r2, #0
 8000e6c:	2100      	movs	r1, #0
 8000e6e:	2037      	movs	r0, #55	; 0x37
 8000e70:	f000 ff3f 	bl	8001cf2 <HAL_NVIC_SetPriority>
 8000e74:	2037      	movs	r0, #55	; 0x37
 8000e76:	f000 ff58 	bl	8001d2a <HAL_NVIC_EnableIRQ>
 8000e7a:	bf00      	nop
 8000e7c:	3718      	adds	r7, #24
 8000e7e:	46bd      	mov	sp, r7
 8000e80:	bd80      	pop	{r7, pc}
 8000e82:	bf00      	nop
 8000e84:	40023800 	.word	0x40023800
 8000e88:	40001000 	.word	0x40001000
 8000e8c:	40001400 	.word	0x40001400

08000e90 <MX_UART4_Init>:
 8000e90:	b580      	push	{r7, lr}
 8000e92:	af00      	add	r7, sp, #0
 8000e94:	4b11      	ldr	r3, [pc, #68]	; (8000edc <MX_UART4_Init+0x4c>)
 8000e96:	4a12      	ldr	r2, [pc, #72]	; (8000ee0 <MX_UART4_Init+0x50>)
 8000e98:	601a      	str	r2, [r3, #0]
 8000e9a:	4b10      	ldr	r3, [pc, #64]	; (8000edc <MX_UART4_Init+0x4c>)
 8000e9c:	f44f 5216 	mov.w	r2, #9600	; 0x2580
 8000ea0:	605a      	str	r2, [r3, #4]
 8000ea2:	4b0e      	ldr	r3, [pc, #56]	; (8000edc <MX_UART4_Init+0x4c>)
 8000ea4:	2200      	movs	r2, #0
 8000ea6:	609a      	str	r2, [r3, #8]
 8000ea8:	4b0c      	ldr	r3, [pc, #48]	; (8000edc <MX_UART4_Init+0x4c>)
 8000eaa:	2200      	movs	r2, #0
 8000eac:	60da      	str	r2, [r3, #12]
 8000eae:	4b0b      	ldr	r3, [pc, #44]	; (8000edc <MX_UART4_Init+0x4c>)
 8000eb0:	2200      	movs	r2, #0
 8000eb2:	611a      	str	r2, [r3, #16]
 8000eb4:	4b09      	ldr	r3, [pc, #36]	; (8000edc <MX_UART4_Init+0x4c>)
 8000eb6:	220c      	movs	r2, #12
 8000eb8:	615a      	str	r2, [r3, #20]
 8000eba:	4b08      	ldr	r3, [pc, #32]	; (8000edc <MX_UART4_Init+0x4c>)
 8000ebc:	2200      	movs	r2, #0
 8000ebe:	619a      	str	r2, [r3, #24]
 8000ec0:	4b06      	ldr	r3, [pc, #24]	; (8000edc <MX_UART4_Init+0x4c>)
 8000ec2:	f44f 4200 	mov.w	r2, #32768	; 0x8000
 8000ec6:	61da      	str	r2, [r3, #28]
 8000ec8:	4804      	ldr	r0, [pc, #16]	; (8000edc <MX_UART4_Init+0x4c>)
 8000eca:	f002 fe6f 	bl	8003bac <HAL_UART_Init>
 8000ece:	4603      	mov	r3, r0
 8000ed0:	2b00      	cmp	r3, #0
 8000ed2:	d001      	beq.n	8000ed8 <MX_UART4_Init+0x48>
 8000ed4:	f7ff fdde 	bl	8000a94 <Error_Handler>
 8000ed8:	bf00      	nop
 8000eda:	bd80      	pop	{r7, pc}
 8000edc:	200003b0 	.word	0x200003b0
 8000ee0:	40004c00 	.word	0x40004c00

08000ee4 <MX_USART1_UART_Init>:
 8000ee4:	b580      	push	{r7, lr}
 8000ee6:	af00      	add	r7, sp, #0
 8000ee8:	4b11      	ldr	r3, [pc, #68]	; (8000f30 <MX_USART1_UART_Init+0x4c>)
 8000eea:	4a12      	ldr	r2, [pc, #72]	; (8000f34 <MX_USART1_UART_Init+0x50>)
 8000eec:	601a      	str	r2, [r3, #0]
 8000eee:	4b10      	ldr	r3, [pc, #64]	; (8000f30 <MX_USART1_UART_Init+0x4c>)
 8000ef0:	f44f 4261 	mov.w	r2, #57600	; 0xe100
 8000ef4:	605a      	str	r2, [r3, #4]
 8000ef6:	4b0e      	ldr	r3, [pc, #56]	; (8000f30 <MX_USART1_UART_Init+0x4c>)
 8000ef8:	2200      	movs	r2, #0
 8000efa:	609a      	str	r2, [r3, #8]
 8000efc:	4b0c      	ldr	r3, [pc, #48]	; (8000f30 <MX_USART1_UART_Init+0x4c>)
 8000efe:	2200      	movs	r2, #0
 8000f00:	60da      	str	r2, [r3, #12]
 8000f02:	4b0b      	ldr	r3, [pc, #44]	; (8000f30 <MX_USART1_UART_Init+0x4c>)
 8000f04:	2200      	movs	r2, #0
 8000f06:	611a      	str	r2, [r3, #16]
 8000f08:	4b09      	ldr	r3, [pc, #36]	; (8000f30 <MX_USART1_UART_Init+0x4c>)
 8000f0a:	220c      	movs	r2, #12
 8000f0c:	615a      	str	r2, [r3, #20]
 8000f0e:	4b08      	ldr	r3, [pc, #32]	; (8000f30 <MX_USART1_UART_Init+0x4c>)
 8000f10:	2200      	movs	r2, #0
 8000f12:	619a      	str	r2, [r3, #24]
 8000f14:	4b06      	ldr	r3, [pc, #24]	; (8000f30 <MX_USART1_UART_Init+0x4c>)
 8000f16:	f44f 4200 	mov.w	r2, #32768	; 0x8000
 8000f1a:	61da      	str	r2, [r3, #28]
 8000f1c:	4804      	ldr	r0, [pc, #16]	; (8000f30 <MX_USART1_UART_Init+0x4c>)
 8000f1e:	f002 fe45 	bl	8003bac <HAL_UART_Init>
 8000f22:	4603      	mov	r3, r0
 8000f24:	2b00      	cmp	r3, #0
 8000f26:	d001      	beq.n	8000f2c <MX_USART1_UART_Init+0x48>
 8000f28:	f7ff fdb4 	bl	8000a94 <Error_Handler>
 8000f2c:	bf00      	nop
 8000f2e:	bd80      	pop	{r7, pc}
 8000f30:	20000370 	.word	0x20000370
 8000f34:	40011000 	.word	0x40011000

08000f38 <MX_USART3_UART_Init>:
 8000f38:	b580      	push	{r7, lr}
 8000f3a:	af00      	add	r7, sp, #0
 8000f3c:	4b11      	ldr	r3, [pc, #68]	; (8000f84 <MX_USART3_UART_Init+0x4c>)
 8000f3e:	4a12      	ldr	r2, [pc, #72]	; (8000f88 <MX_USART3_UART_Init+0x50>)
 8000f40:	601a      	str	r2, [r3, #0]
 8000f42:	4b10      	ldr	r3, [pc, #64]	; (8000f84 <MX_USART3_UART_Init+0x4c>)
 8000f44:	f44f 4261 	mov.w	r2, #57600	; 0xe100
 8000f48:	605a      	str	r2, [r3, #4]
 8000f4a:	4b0e      	ldr	r3, [pc, #56]	; (8000f84 <MX_USART3_UART_Init+0x4c>)
 8000f4c:	2200      	movs	r2, #0
 8000f4e:	609a      	str	r2, [r3, #8]
 8000f50:	4b0c      	ldr	r3, [pc, #48]	; (8000f84 <MX_USART3_UART_Init+0x4c>)
 8000f52:	2200      	movs	r2, #0
 8000f54:	60da      	str	r2, [r3, #12]
 8000f56:	4b0b      	ldr	r3, [pc, #44]	; (8000f84 <MX_USART3_UART_Init+0x4c>)
 8000f58:	2200      	movs	r2, #0
 8000f5a:	611a      	str	r2, [r3, #16]
 8000f5c:	4b09      	ldr	r3, [pc, #36]	; (8000f84 <MX_USART3_UART_Init+0x4c>)
 8000f5e:	220c      	movs	r2, #12
 8000f60:	615a      	str	r2, [r3, #20]
 8000f62:	4b08      	ldr	r3, [pc, #32]	; (8000f84 <MX_USART3_UART_Init+0x4c>)
 8000f64:	2200      	movs	r2, #0
 8000f66:	619a      	str	r2, [r3, #24]
 8000f68:	4b06      	ldr	r3, [pc, #24]	; (8000f84 <MX_USART3_UART_Init+0x4c>)
 8000f6a:	f44f 4200 	mov.w	r2, #32768	; 0x8000
 8000f6e:	61da      	str	r2, [r3, #28]
 8000f70:	4804      	ldr	r0, [pc, #16]	; (8000f84 <MX_USART3_UART_Init+0x4c>)
 8000f72:	f002 fe1b 	bl	8003bac <HAL_UART_Init>
 8000f76:	4603      	mov	r3, r0
 8000f78:	2b00      	cmp	r3, #0
 8000f7a:	d001      	beq.n	8000f80 <MX_USART3_UART_Init+0x48>
 8000f7c:	f7ff fd8a 	bl	8000a94 <Error_Handler>
 8000f80:	bf00      	nop
 8000f82:	bd80      	pop	{r7, pc}
 8000f84:	200002d0 	.word	0x200002d0
 8000f88:	40004800 	.word	0x40004800

08000f8c <HAL_UART_MspInit>:
 8000f8c:	b580      	push	{r7, lr}
 8000f8e:	b08e      	sub	sp, #56	; 0x38
 8000f90:	af00      	add	r7, sp, #0
 8000f92:	6078      	str	r0, [r7, #4]
 8000f94:	f107 0324 	add.w	r3, r7, #36	; 0x24
 8000f98:	2200      	movs	r2, #0
 8000f9a:	601a      	str	r2, [r3, #0]
 8000f9c:	605a      	str	r2, [r3, #4]
 8000f9e:	609a      	str	r2, [r3, #8]
 8000fa0:	60da      	str	r2, [r3, #12]
 8000fa2:	611a      	str	r2, [r3, #16]
 8000fa4:	687b      	ldr	r3, [r7, #4]
 8000fa6:	681b      	ldr	r3, [r3, #0]
 8000fa8:	4a9d      	ldr	r2, [pc, #628]	; (8001220 <HAL_UART_MspInit+0x294>)
 8000faa:	4293      	cmp	r3, r2
 8000fac:	d162      	bne.n	8001074 <HAL_UART_MspInit+0xe8>
 8000fae:	2300      	movs	r3, #0
 8000fb0:	623b      	str	r3, [r7, #32]
 8000fb2:	4b9c      	ldr	r3, [pc, #624]	; (8001224 <HAL_UART_MspInit+0x298>)
 8000fb4:	6c1b      	ldr	r3, [r3, #64]	; 0x40
 8000fb6:	4a9b      	ldr	r2, [pc, #620]	; (8001224 <HAL_UART_MspInit+0x298>)
 8000fb8:	f443 2300 	orr.w	r3, r3, #524288	; 0x80000
 8000fbc:	6413      	str	r3, [r2, #64]	; 0x40
 8000fbe:	4b99      	ldr	r3, [pc, #612]	; (8001224 <HAL_UART_MspInit+0x298>)
 8000fc0:	6c1b      	ldr	r3, [r3, #64]	; 0x40
 8000fc2:	f403 2300 	and.w	r3, r3, #524288	; 0x80000
 8000fc6:	623b      	str	r3, [r7, #32]
 8000fc8:	6a3b      	ldr	r3, [r7, #32]
 8000fca:	2300      	movs	r3, #0
 8000fcc:	61fb      	str	r3, [r7, #28]
 8000fce:	4b95      	ldr	r3, [pc, #596]	; (8001224 <HAL_UART_MspInit+0x298>)
 8000fd0:	6b1b      	ldr	r3, [r3, #48]	; 0x30
 8000fd2:	4a94      	ldr	r2, [pc, #592]	; (8001224 <HAL_UART_MspInit+0x298>)
 8000fd4:	f043 0301 	orr.w	r3, r3, #1
 8000fd8:	6313      	str	r3, [r2, #48]	; 0x30
 8000fda:	4b92      	ldr	r3, [pc, #584]	; (8001224 <HAL_UART_MspInit+0x298>)
 8000fdc:	6b1b      	ldr	r3, [r3, #48]	; 0x30
 8000fde:	f003 0301 	and.w	r3, r3, #1
 8000fe2:	61fb      	str	r3, [r7, #28]
 8000fe4:	69fb      	ldr	r3, [r7, #28]
 8000fe6:	2303      	movs	r3, #3
 8000fe8:	627b      	str	r3, [r7, #36]	; 0x24
 8000fea:	2302      	movs	r3, #2
 8000fec:	62bb      	str	r3, [r7, #40]	; 0x28
 8000fee:	2301      	movs	r3, #1
 8000ff0:	62fb      	str	r3, [r7, #44]	; 0x2c
 8000ff2:	2303      	movs	r3, #3
 8000ff4:	633b      	str	r3, [r7, #48]	; 0x30
 8000ff6:	2308      	movs	r3, #8
 8000ff8:	637b      	str	r3, [r7, #52]	; 0x34
 8000ffa:	f107 0324 	add.w	r3, r7, #36	; 0x24
 8000ffe:	4619      	mov	r1, r3
 8001000:	4889      	ldr	r0, [pc, #548]	; (8001228 <HAL_UART_MspInit+0x29c>)
 8001002:	f001 fa3f 	bl	8002484 <HAL_GPIO_Init>
 8001006:	4b89      	ldr	r3, [pc, #548]	; (800122c <HAL_UART_MspInit+0x2a0>)
 8001008:	4a89      	ldr	r2, [pc, #548]	; (8001230 <HAL_UART_MspInit+0x2a4>)
 800100a:	601a      	str	r2, [r3, #0]
 800100c:	4b87      	ldr	r3, [pc, #540]	; (800122c <HAL_UART_MspInit+0x2a0>)
 800100e:	f04f 6200 	mov.w	r2, #134217728	; 0x8000000
 8001012:	605a      	str	r2, [r3, #4]
 8001014:	4b85      	ldr	r3, [pc, #532]	; (800122c <HAL_UART_MspInit+0x2a0>)
 8001016:	2200      	movs	r2, #0
 8001018:	609a      	str	r2, [r3, #8]
 800101a:	4b84      	ldr	r3, [pc, #528]	; (800122c <HAL_UART_MspInit+0x2a0>)
 800101c:	2200      	movs	r2, #0
 800101e:	60da      	str	r2, [r3, #12]
 8001020:	4b82      	ldr	r3, [pc, #520]	; (800122c <HAL_UART_MspInit+0x2a0>)
 8001022:	f44f 6280 	mov.w	r2, #1024	; 0x400
 8001026:	611a      	str	r2, [r3, #16]
 8001028:	4b80      	ldr	r3, [pc, #512]	; (800122c <HAL_UART_MspInit+0x2a0>)
 800102a:	2200      	movs	r2, #0
 800102c:	615a      	str	r2, [r3, #20]
 800102e:	4b7f      	ldr	r3, [pc, #508]	; (800122c <HAL_UART_MspInit+0x2a0>)
 8001030:	2200      	movs	r2, #0
 8001032:	619a      	str	r2, [r3, #24]
 8001034:	4b7d      	ldr	r3, [pc, #500]	; (800122c <HAL_UART_MspInit+0x2a0>)
 8001036:	2200      	movs	r2, #0
 8001038:	61da      	str	r2, [r3, #28]
 800103a:	4b7c      	ldr	r3, [pc, #496]	; (800122c <HAL_UART_MspInit+0x2a0>)
 800103c:	2200      	movs	r2, #0
 800103e:	621a      	str	r2, [r3, #32]
 8001040:	4b7a      	ldr	r3, [pc, #488]	; (800122c <HAL_UART_MspInit+0x2a0>)
 8001042:	2200      	movs	r2, #0
 8001044:	625a      	str	r2, [r3, #36]	; 0x24
 8001046:	4879      	ldr	r0, [pc, #484]	; (800122c <HAL_UART_MspInit+0x2a0>)
 8001048:	f000 fe8a 	bl	8001d60 <HAL_DMA_Init>
 800104c:	4603      	mov	r3, r0
 800104e:	2b00      	cmp	r3, #0
 8001050:	d001      	beq.n	8001056 <HAL_UART_MspInit+0xca>
 8001052:	f7ff fd1f 	bl	8000a94 <Error_Handler>
 8001056:	687b      	ldr	r3, [r7, #4]
 8001058:	4a74      	ldr	r2, [pc, #464]	; (800122c <HAL_UART_MspInit+0x2a0>)
 800105a:	635a      	str	r2, [r3, #52]	; 0x34
 800105c:	4a73      	ldr	r2, [pc, #460]	; (800122c <HAL_UART_MspInit+0x2a0>)
 800105e:	687b      	ldr	r3, [r7, #4]
 8001060:	6393      	str	r3, [r2, #56]	; 0x38
 8001062:	2200      	movs	r2, #0
 8001064:	2100      	movs	r1, #0
 8001066:	2034      	movs	r0, #52	; 0x34
 8001068:	f000 fe43 	bl	8001cf2 <HAL_NVIC_SetPriority>
 800106c:	2034      	movs	r0, #52	; 0x34
 800106e:	f000 fe5c 	bl	8001d2a <HAL_NVIC_EnableIRQ>
 8001072:	e0d0      	b.n	8001216 <HAL_UART_MspInit+0x28a>
 8001074:	687b      	ldr	r3, [r7, #4]
 8001076:	681b      	ldr	r3, [r3, #0]
 8001078:	4a6e      	ldr	r2, [pc, #440]	; (8001234 <HAL_UART_MspInit+0x2a8>)
 800107a:	4293      	cmp	r3, r2
 800107c:	d163      	bne.n	8001146 <HAL_UART_MspInit+0x1ba>
 800107e:	2300      	movs	r3, #0
 8001080:	61bb      	str	r3, [r7, #24]
 8001082:	4b68      	ldr	r3, [pc, #416]	; (8001224 <HAL_UART_MspInit+0x298>)
 8001084:	6c5b      	ldr	r3, [r3, #68]	; 0x44
 8001086:	4a67      	ldr	r2, [pc, #412]	; (8001224 <HAL_UART_MspInit+0x298>)
 8001088:	f043 0310 	orr.w	r3, r3, #16
 800108c:	6453      	str	r3, [r2, #68]	; 0x44
 800108e:	4b65      	ldr	r3, [pc, #404]	; (8001224 <HAL_UART_MspInit+0x298>)
 8001090:	6c5b      	ldr	r3, [r3, #68]	; 0x44
 8001092:	f003 0310 	and.w	r3, r3, #16
 8001096:	61bb      	str	r3, [r7, #24]
 8001098:	69bb      	ldr	r3, [r7, #24]
 800109a:	2300      	movs	r3, #0
 800109c:	617b      	str	r3, [r7, #20]
 800109e:	4b61      	ldr	r3, [pc, #388]	; (8001224 <HAL_UART_MspInit+0x298>)
 80010a0:	6b1b      	ldr	r3, [r3, #48]	; 0x30
 80010a2:	4a60      	ldr	r2, [pc, #384]	; (8001224 <HAL_UART_MspInit+0x298>)
 80010a4:	f043 0301 	orr.w	r3, r3, #1
 80010a8:	6313      	str	r3, [r2, #48]	; 0x30
 80010aa:	4b5e      	ldr	r3, [pc, #376]	; (8001224 <HAL_UART_MspInit+0x298>)
 80010ac:	6b1b      	ldr	r3, [r3, #48]	; 0x30
 80010ae:	f003 0301 	and.w	r3, r3, #1
 80010b2:	617b      	str	r3, [r7, #20]
 80010b4:	697b      	ldr	r3, [r7, #20]
 80010b6:	f44f 63c0 	mov.w	r3, #1536	; 0x600
 80010ba:	627b      	str	r3, [r7, #36]	; 0x24
 80010bc:	2302      	movs	r3, #2
 80010be:	62bb      	str	r3, [r7, #40]	; 0x28
 80010c0:	2300      	movs	r3, #0
 80010c2:	62fb      	str	r3, [r7, #44]	; 0x2c
 80010c4:	2303      	movs	r3, #3
 80010c6:	633b      	str	r3, [r7, #48]	; 0x30
 80010c8:	2307      	movs	r3, #7
 80010ca:	637b      	str	r3, [r7, #52]	; 0x34
 80010cc:	f107 0324 	add.w	r3, r7, #36	; 0x24
 80010d0:	4619      	mov	r1, r3
 80010d2:	4855      	ldr	r0, [pc, #340]	; (8001228 <HAL_UART_MspInit+0x29c>)
 80010d4:	f001 f9d6 	bl	8002484 <HAL_GPIO_Init>
 80010d8:	4b57      	ldr	r3, [pc, #348]	; (8001238 <HAL_UART_MspInit+0x2ac>)
 80010da:	4a58      	ldr	r2, [pc, #352]	; (800123c <HAL_UART_MspInit+0x2b0>)
 80010dc:	601a      	str	r2, [r3, #0]
 80010de:	4b56      	ldr	r3, [pc, #344]	; (8001238 <HAL_UART_MspInit+0x2ac>)
 80010e0:	f04f 6200 	mov.w	r2, #134217728	; 0x8000000
 80010e4:	605a      	str	r2, [r3, #4]
 80010e6:	4b54      	ldr	r3, [pc, #336]	; (8001238 <HAL_UART_MspInit+0x2ac>)
 80010e8:	2200      	movs	r2, #0
 80010ea:	609a      	str	r2, [r3, #8]
 80010ec:	4b52      	ldr	r3, [pc, #328]	; (8001238 <HAL_UART_MspInit+0x2ac>)
 80010ee:	2200      	movs	r2, #0
 80010f0:	60da      	str	r2, [r3, #12]
 80010f2:	4b51      	ldr	r3, [pc, #324]	; (8001238 <HAL_UART_MspInit+0x2ac>)
 80010f4:	f44f 6280 	mov.w	r2, #1024	; 0x400
 80010f8:	611a      	str	r2, [r3, #16]
 80010fa:	4b4f      	ldr	r3, [pc, #316]	; (8001238 <HAL_UART_MspInit+0x2ac>)
 80010fc:	2200      	movs	r2, #0
 80010fe:	615a      	str	r2, [r3, #20]
 8001100:	4b4d      	ldr	r3, [pc, #308]	; (8001238 <HAL_UART_MspInit+0x2ac>)
 8001102:	2200      	movs	r2, #0
 8001104:	619a      	str	r2, [r3, #24]
 8001106:	4b4c      	ldr	r3, [pc, #304]	; (8001238 <HAL_UART_MspInit+0x2ac>)
 8001108:	2200      	movs	r2, #0
 800110a:	61da      	str	r2, [r3, #28]
 800110c:	4b4a      	ldr	r3, [pc, #296]	; (8001238 <HAL_UART_MspInit+0x2ac>)
 800110e:	2200      	movs	r2, #0
 8001110:	621a      	str	r2, [r3, #32]
 8001112:	4b49      	ldr	r3, [pc, #292]	; (8001238 <HAL_UART_MspInit+0x2ac>)
 8001114:	2200      	movs	r2, #0
 8001116:	625a      	str	r2, [r3, #36]	; 0x24
 8001118:	4847      	ldr	r0, [pc, #284]	; (8001238 <HAL_UART_MspInit+0x2ac>)
 800111a:	f000 fe21 	bl	8001d60 <HAL_DMA_Init>
 800111e:	4603      	mov	r3, r0
 8001120:	2b00      	cmp	r3, #0
 8001122:	d001      	beq.n	8001128 <HAL_UART_MspInit+0x19c>
 8001124:	f7ff fcb6 	bl	8000a94 <Error_Handler>
 8001128:	687b      	ldr	r3, [r7, #4]
 800112a:	4a43      	ldr	r2, [pc, #268]	; (8001238 <HAL_UART_MspInit+0x2ac>)
 800112c:	635a      	str	r2, [r3, #52]	; 0x34
 800112e:	4a42      	ldr	r2, [pc, #264]	; (8001238 <HAL_UART_MspInit+0x2ac>)
 8001130:	687b      	ldr	r3, [r7, #4]
 8001132:	6393      	str	r3, [r2, #56]	; 0x38
 8001134:	2200      	movs	r2, #0
 8001136:	2100      	movs	r1, #0
 8001138:	2025      	movs	r0, #37	; 0x25
 800113a:	f000 fdda 	bl	8001cf2 <HAL_NVIC_SetPriority>
 800113e:	2025      	movs	r0, #37	; 0x25
 8001140:	f000 fdf3 	bl	8001d2a <HAL_NVIC_EnableIRQ>
 8001144:	e067      	b.n	8001216 <HAL_UART_MspInit+0x28a>
 8001146:	687b      	ldr	r3, [r7, #4]
 8001148:	681b      	ldr	r3, [r3, #0]
 800114a:	4a3d      	ldr	r2, [pc, #244]	; (8001240 <HAL_UART_MspInit+0x2b4>)
 800114c:	4293      	cmp	r3, r2
 800114e:	d162      	bne.n	8001216 <HAL_UART_MspInit+0x28a>
 8001150:	2300      	movs	r3, #0
 8001152:	613b      	str	r3, [r7, #16]
 8001154:	4b33      	ldr	r3, [pc, #204]	; (8001224 <HAL_UART_MspInit+0x298>)
 8001156:	6c1b      	ldr	r3, [r3, #64]	; 0x40
 8001158:	4a32      	ldr	r2, [pc, #200]	; (8001224 <HAL_UART_MspInit+0x298>)
 800115a:	f443 2380 	orr.w	r3, r3, #262144	; 0x40000
 800115e:	6413      	str	r3, [r2, #64]	; 0x40
 8001160:	4b30      	ldr	r3, [pc, #192]	; (8001224 <HAL_UART_MspInit+0x298>)
 8001162:	6c1b      	ldr	r3, [r3, #64]	; 0x40
 8001164:	f403 2380 	and.w	r3, r3, #262144	; 0x40000
 8001168:	613b      	str	r3, [r7, #16]
 800116a:	693b      	ldr	r3, [r7, #16]
 800116c:	2300      	movs	r3, #0
 800116e:	60fb      	str	r3, [r7, #12]
 8001170:	4b2c      	ldr	r3, [pc, #176]	; (8001224 <HAL_UART_MspInit+0x298>)
 8001172:	6b1b      	ldr	r3, [r3, #48]	; 0x30
 8001174:	4a2b      	ldr	r2, [pc, #172]	; (8001224 <HAL_UART_MspInit+0x298>)
 8001176:	f043 0304 	orr.w	r3, r3, #4
 800117a:	6313      	str	r3, [r2, #48]	; 0x30
 800117c:	4b29      	ldr	r3, [pc, #164]	; (8001224 <HAL_UART_MspInit+0x298>)
 800117e:	6b1b      	ldr	r3, [r3, #48]	; 0x30
 8001180:	f003 0304 	and.w	r3, r3, #4
 8001184:	60fb      	str	r3, [r7, #12]
 8001186:	68fb      	ldr	r3, [r7, #12]
 8001188:	f44f 6340 	mov.w	r3, #3072	; 0xc00
 800118c:	627b      	str	r3, [r7, #36]	; 0x24
 800118e:	2302      	movs	r3, #2
 8001190:	62bb      	str	r3, [r7, #40]	; 0x28
 8001192:	2300      	movs	r3, #0
 8001194:	62fb      	str	r3, [r7, #44]	; 0x2c
 8001196:	2303      	movs	r3, #3
 8001198:	633b      	str	r3, [r7, #48]	; 0x30
 800119a:	2307      	movs	r3, #7
 800119c:	637b      	str	r3, [r7, #52]	; 0x34
 800119e:	f107 0324 	add.w	r3, r7, #36	; 0x24
 80011a2:	4619      	mov	r1, r3
 80011a4:	4827      	ldr	r0, [pc, #156]	; (8001244 <HAL_UART_MspInit+0x2b8>)
 80011a6:	f001 f96d 	bl	8002484 <HAL_GPIO_Init>
 80011aa:	4b27      	ldr	r3, [pc, #156]	; (8001248 <HAL_UART_MspInit+0x2bc>)
 80011ac:	4a27      	ldr	r2, [pc, #156]	; (800124c <HAL_UART_MspInit+0x2c0>)
 80011ae:	601a      	str	r2, [r3, #0]
 80011b0:	4b25      	ldr	r3, [pc, #148]	; (8001248 <HAL_UART_MspInit+0x2bc>)
 80011b2:	f04f 6200 	mov.w	r2, #134217728	; 0x8000000
 80011b6:	605a      	str	r2, [r3, #4]
 80011b8:	4b23      	ldr	r3, [pc, #140]	; (8001248 <HAL_UART_MspInit+0x2bc>)
 80011ba:	2200      	movs	r2, #0
 80011bc:	609a      	str	r2, [r3, #8]
 80011be:	4b22      	ldr	r3, [pc, #136]	; (8001248 <HAL_UART_MspInit+0x2bc>)
 80011c0:	2200      	movs	r2, #0
 80011c2:	60da      	str	r2, [r3, #12]
 80011c4:	4b20      	ldr	r3, [pc, #128]	; (8001248 <HAL_UART_MspInit+0x2bc>)
 80011c6:	f44f 6280 	mov.w	r2, #1024	; 0x400
 80011ca:	611a      	str	r2, [r3, #16]
 80011cc:	4b1e      	ldr	r3, [pc, #120]	; (8001248 <HAL_UART_MspInit+0x2bc>)
 80011ce:	2200      	movs	r2, #0
 80011d0:	615a      	str	r2, [r3, #20]
 80011d2:	4b1d      	ldr	r3, [pc, #116]	; (8001248 <HAL_UART_MspInit+0x2bc>)
 80011d4:	2200      	movs	r2, #0
 80011d6:	619a      	str	r2, [r3, #24]
 80011d8:	4b1b      	ldr	r3, [pc, #108]	; (8001248 <HAL_UART_MspInit+0x2bc>)
 80011da:	2200      	movs	r2, #0
 80011dc:	61da      	str	r2, [r3, #28]
 80011de:	4b1a      	ldr	r3, [pc, #104]	; (8001248 <HAL_UART_MspInit+0x2bc>)
 80011e0:	2200      	movs	r2, #0
 80011e2:	621a      	str	r2, [r3, #32]
 80011e4:	4b18      	ldr	r3, [pc, #96]	; (8001248 <HAL_UART_MspInit+0x2bc>)
 80011e6:	2200      	movs	r2, #0
 80011e8:	625a      	str	r2, [r3, #36]	; 0x24
 80011ea:	4817      	ldr	r0, [pc, #92]	; (8001248 <HAL_UART_MspInit+0x2bc>)
 80011ec:	f000 fdb8 	bl	8001d60 <HAL_DMA_Init>
 80011f0:	4603      	mov	r3, r0
 80011f2:	2b00      	cmp	r3, #0
 80011f4:	d001      	beq.n	80011fa <HAL_UART_MspInit+0x26e>
 80011f6:	f7ff fc4d 	bl	8000a94 <Error_Handler>
 80011fa:	687b      	ldr	r3, [r7, #4]
 80011fc:	4a12      	ldr	r2, [pc, #72]	; (8001248 <HAL_UART_MspInit+0x2bc>)
 80011fe:	635a      	str	r2, [r3, #52]	; 0x34
 8001200:	4a11      	ldr	r2, [pc, #68]	; (8001248 <HAL_UART_MspInit+0x2bc>)
 8001202:	687b      	ldr	r3, [r7, #4]
 8001204:	6393      	str	r3, [r2, #56]	; 0x38
 8001206:	2200      	movs	r2, #0
 8001208:	2100      	movs	r1, #0
 800120a:	2027      	movs	r0, #39	; 0x27
 800120c:	f000 fd71 	bl	8001cf2 <HAL_NVIC_SetPriority>
 8001210:	2027      	movs	r0, #39	; 0x27
 8001212:	f000 fd8a 	bl	8001d2a <HAL_NVIC_EnableIRQ>
 8001216:	bf00      	nop
 8001218:	3738      	adds	r7, #56	; 0x38
 800121a:	46bd      	mov	sp, r7
 800121c:	bd80      	pop	{r7, pc}
 800121e:	bf00      	nop
 8001220:	40004c00 	.word	0x40004c00
 8001224:	40023800 	.word	0x40023800
 8001228:	40020000 	.word	0x40020000
 800122c:	20000210 	.word	0x20000210
 8001230:	40026040 	.word	0x40026040
 8001234:	40011000 	.word	0x40011000
 8001238:	20000310 	.word	0x20000310
 800123c:	40026488 	.word	0x40026488
 8001240:	40004800 	.word	0x40004800
 8001244:	40020800 	.word	0x40020800
 8001248:	20000270 	.word	0x20000270
 800124c:	40026028 	.word	0x40026028

08001250 <Reset_Handler>:
 8001250:	f8df d034 	ldr.w	sp, [pc, #52]	; 8001288 <LoopFillZerobss+0x14>
 8001254:	2100      	movs	r1, #0
 8001256:	e003      	b.n	8001260 <LoopCopyDataInit>

08001258 <CopyDataInit>:
 8001258:	4b0c      	ldr	r3, [pc, #48]	; (800128c <LoopFillZerobss+0x18>)
 800125a:	585b      	ldr	r3, [r3, r1]
 800125c:	5043      	str	r3, [r0, r1]
 800125e:	3104      	adds	r1, #4

08001260 <LoopCopyDataInit>:
 8001260:	480b      	ldr	r0, [pc, #44]	; (8001290 <LoopFillZerobss+0x1c>)
 8001262:	4b0c      	ldr	r3, [pc, #48]	; (8001294 <LoopFillZerobss+0x20>)
 8001264:	1842      	adds	r2, r0, r1
 8001266:	429a      	cmp	r2, r3
 8001268:	d3f6      	bcc.n	8001258 <CopyDataInit>
 800126a:	4a0b      	ldr	r2, [pc, #44]	; (8001298 <LoopFillZerobss+0x24>)
 800126c:	e002      	b.n	8001274 <LoopFillZerobss>

0800126e <FillZerobss>:
 800126e:	2300      	movs	r3, #0
 8001270:	f842 3b04 	str.w	r3, [r2], #4

08001274 <LoopFillZerobss>:
 8001274:	4b09      	ldr	r3, [pc, #36]	; (800129c <LoopFillZerobss+0x28>)
 8001276:	429a      	cmp	r2, r3
 8001278:	d3f9      	bcc.n	800126e <FillZerobss>
 800127a:	f7ff fcdb 	bl	8000c34 <SystemInit>
 800127e:	f004 fcff 	bl	8005c80 <__libc_init_array>
 8001282:	f7ff fb75 	bl	8000970 <main>
 8001286:	4770      	bx	lr
 8001288:	20020000 	.word	0x20020000
 800128c:	08005d20 	.word	0x08005d20
 8001290:	20000000 	.word	0x20000000
 8001294:	2000000c 	.word	0x2000000c
 8001298:	2000000c 	.word	0x2000000c
 800129c:	2000048c 	.word	0x2000048c

080012a0 <CAN1_RX0_IRQHandler>:
 80012a0:	e7fe      	b.n	80012a0 <CAN1_RX0_IRQHandler>
	...

080012a4 <HAL_Init>:
 80012a4:	b580      	push	{r7, lr}
 80012a6:	af00      	add	r7, sp, #0
 80012a8:	4b0e      	ldr	r3, [pc, #56]	; (80012e4 <HAL_Init+0x40>)
 80012aa:	681b      	ldr	r3, [r3, #0]
 80012ac:	4a0d      	ldr	r2, [pc, #52]	; (80012e4 <HAL_Init+0x40>)
 80012ae:	f443 7300 	orr.w	r3, r3, #512	; 0x200
 80012b2:	6013      	str	r3, [r2, #0]
 80012b4:	4b0b      	ldr	r3, [pc, #44]	; (80012e4 <HAL_Init+0x40>)
 80012b6:	681b      	ldr	r3, [r3, #0]
 80012b8:	4a0a      	ldr	r2, [pc, #40]	; (80012e4 <HAL_Init+0x40>)
 80012ba:	f443 6380 	orr.w	r3, r3, #1024	; 0x400
 80012be:	6013      	str	r3, [r2, #0]
 80012c0:	4b08      	ldr	r3, [pc, #32]	; (80012e4 <HAL_Init+0x40>)
 80012c2:	681b      	ldr	r3, [r3, #0]
 80012c4:	4a07      	ldr	r2, [pc, #28]	; (80012e4 <HAL_Init+0x40>)
 80012c6:	f443 7380 	orr.w	r3, r3, #256	; 0x100
 80012ca:	6013      	str	r3, [r2, #0]
 80012cc:	2003      	movs	r0, #3
 80012ce:	f000 fd05 	bl	8001cdc <HAL_NVIC_SetPriorityGrouping>
 80012d2:	2000      	movs	r0, #0
 80012d4:	f000 f808 	bl	80012e8 <HAL_InitTick>
 80012d8:	f7ff fbe2 	bl	8000aa0 <HAL_MspInit>
 80012dc:	2300      	movs	r3, #0
 80012de:	4618      	mov	r0, r3
 80012e0:	bd80      	pop	{r7, pc}
 80012e2:	bf00      	nop
 80012e4:	40023c00 	.word	0x40023c00

080012e8 <HAL_InitTick>:
 80012e8:	b580      	push	{r7, lr}
 80012ea:	b082      	sub	sp, #8
 80012ec:	af00      	add	r7, sp, #0
 80012ee:	6078      	str	r0, [r7, #4]
 80012f0:	4b12      	ldr	r3, [pc, #72]	; (800133c <HAL_InitTick+0x54>)
 80012f2:	681a      	ldr	r2, [r3, #0]
 80012f4:	4b12      	ldr	r3, [pc, #72]	; (8001340 <HAL_InitTick+0x58>)
 80012f6:	781b      	ldrb	r3, [r3, #0]
 80012f8:	4619      	mov	r1, r3
 80012fa:	f44f 737a 	mov.w	r3, #1000	; 0x3e8
 80012fe:	fbb3 f3f1 	udiv	r3, r3, r1
 8001302:	fbb2 f3f3 	udiv	r3, r2, r3
 8001306:	4618      	mov	r0, r3
 8001308:	f000 fd1d 	bl	8001d46 <HAL_SYSTICK_Config>
 800130c:	4603      	mov	r3, r0
 800130e:	2b00      	cmp	r3, #0
 8001310:	d001      	beq.n	8001316 <HAL_InitTick+0x2e>
 8001312:	2301      	movs	r3, #1
 8001314:	e00e      	b.n	8001334 <HAL_InitTick+0x4c>
 8001316:	687b      	ldr	r3, [r7, #4]
 8001318:	2b0f      	cmp	r3, #15
 800131a:	d80a      	bhi.n	8001332 <HAL_InitTick+0x4a>
 800131c:	2200      	movs	r2, #0
 800131e:	6879      	ldr	r1, [r7, #4]
 8001320:	f04f 30ff 	mov.w	r0, #4294967295
 8001324:	f000 fce5 	bl	8001cf2 <HAL_NVIC_SetPriority>
 8001328:	4a06      	ldr	r2, [pc, #24]	; (8001344 <HAL_InitTick+0x5c>)
 800132a:	687b      	ldr	r3, [r7, #4]
 800132c:	6013      	str	r3, [r2, #0]
 800132e:	2300      	movs	r3, #0
 8001330:	e000      	b.n	8001334 <HAL_InitTick+0x4c>
 8001332:	2301      	movs	r3, #1
 8001334:	4618      	mov	r0, r3
 8001336:	3708      	adds	r7, #8
 8001338:	46bd      	mov	sp, r7
 800133a:	bd80      	pop	{r7, pc}
 800133c:	20000000 	.word	0x20000000
 8001340:	20000008 	.word	0x20000008
 8001344:	20000004 	.word	0x20000004

08001348 <HAL_IncTick>:
 8001348:	b480      	push	{r7}
 800134a:	af00      	add	r7, sp, #0
 800134c:	4b06      	ldr	r3, [pc, #24]	; (8001368 <HAL_IncTick+0x20>)
 800134e:	781b      	ldrb	r3, [r3, #0]
 8001350:	461a      	mov	r2, r3
 8001352:	4b06      	ldr	r3, [pc, #24]	; (800136c <HAL_IncTick+0x24>)
 8001354:	681b      	ldr	r3, [r3, #0]
 8001356:	4413      	add	r3, r2
 8001358:	4a04      	ldr	r2, [pc, #16]	; (800136c <HAL_IncTick+0x24>)
 800135a:	6013      	str	r3, [r2, #0]
 800135c:	bf00      	nop
 800135e:	46bd      	mov	sp, r7
 8001360:	f85d 7b04 	ldr.w	r7, [sp], #4
 8001364:	4770      	bx	lr
 8001366:	bf00      	nop
 8001368:	20000008 	.word	0x20000008
 800136c:	200003f0 	.word	0x200003f0

08001370 <HAL_GetTick>:
 8001370:	b480      	push	{r7}
 8001372:	af00      	add	r7, sp, #0
 8001374:	4b03      	ldr	r3, [pc, #12]	; (8001384 <HAL_GetTick+0x14>)
 8001376:	681b      	ldr	r3, [r3, #0]
 8001378:	4618      	mov	r0, r3
 800137a:	46bd      	mov	sp, r7
 800137c:	f85d 7b04 	ldr.w	r7, [sp], #4
 8001380:	4770      	bx	lr
 8001382:	bf00      	nop
 8001384:	200003f0 	.word	0x200003f0

08001388 <HAL_ADC_Init>:
 8001388:	b580      	push	{r7, lr}
 800138a:	b084      	sub	sp, #16
 800138c:	af00      	add	r7, sp, #0
 800138e:	6078      	str	r0, [r7, #4]
 8001390:	2300      	movs	r3, #0
 8001392:	73fb      	strb	r3, [r7, #15]
 8001394:	687b      	ldr	r3, [r7, #4]
 8001396:	2b00      	cmp	r3, #0
 8001398:	d101      	bne.n	800139e <HAL_ADC_Init+0x16>
 800139a:	2301      	movs	r3, #1
 800139c:	e033      	b.n	8001406 <HAL_ADC_Init+0x7e>
 800139e:	687b      	ldr	r3, [r7, #4]
 80013a0:	6c1b      	ldr	r3, [r3, #64]	; 0x40
 80013a2:	2b00      	cmp	r3, #0
 80013a4:	d109      	bne.n	80013ba <HAL_ADC_Init+0x32>
 80013a6:	6878      	ldr	r0, [r7, #4]
 80013a8:	f7ff f8fa 	bl	80005a0 <HAL_ADC_MspInit>
 80013ac:	687b      	ldr	r3, [r7, #4]
 80013ae:	2200      	movs	r2, #0
 80013b0:	645a      	str	r2, [r3, #68]	; 0x44
 80013b2:	687b      	ldr	r3, [r7, #4]
 80013b4:	2200      	movs	r2, #0
 80013b6:	f883 203c 	strb.w	r2, [r3, #60]	; 0x3c
 80013ba:	687b      	ldr	r3, [r7, #4]
 80013bc:	6c1b      	ldr	r3, [r3, #64]	; 0x40
 80013be:	f003 0310 	and.w	r3, r3, #16
 80013c2:	2b00      	cmp	r3, #0
 80013c4:	d118      	bne.n	80013f8 <HAL_ADC_Init+0x70>
 80013c6:	687b      	ldr	r3, [r7, #4]
 80013c8:	6c1b      	ldr	r3, [r3, #64]	; 0x40
 80013ca:	f423 5388 	bic.w	r3, r3, #4352	; 0x1100
 80013ce:	f023 0302 	bic.w	r3, r3, #2
 80013d2:	f043 0202 	orr.w	r2, r3, #2
 80013d6:	687b      	ldr	r3, [r7, #4]
 80013d8:	641a      	str	r2, [r3, #64]	; 0x40
 80013da:	6878      	ldr	r0, [r7, #4]
 80013dc:	f000 faa8 	bl	8001930 <ADC_Init>
 80013e0:	687b      	ldr	r3, [r7, #4]
 80013e2:	2200      	movs	r2, #0
 80013e4:	645a      	str	r2, [r3, #68]	; 0x44
 80013e6:	687b      	ldr	r3, [r7, #4]
 80013e8:	6c1b      	ldr	r3, [r3, #64]	; 0x40
 80013ea:	f023 0303 	bic.w	r3, r3, #3
 80013ee:	f043 0201 	orr.w	r2, r3, #1
 80013f2:	687b      	ldr	r3, [r7, #4]
 80013f4:	641a      	str	r2, [r3, #64]	; 0x40
 80013f6:	e001      	b.n	80013fc <HAL_ADC_Init+0x74>
 80013f8:	2301      	movs	r3, #1
 80013fa:	73fb      	strb	r3, [r7, #15]
 80013fc:	687b      	ldr	r3, [r7, #4]
 80013fe:	2200      	movs	r2, #0
 8001400:	f883 203c 	strb.w	r2, [r3, #60]	; 0x3c
 8001404:	7bfb      	ldrb	r3, [r7, #15]
 8001406:	4618      	mov	r0, r3
 8001408:	3710      	adds	r7, #16
 800140a:	46bd      	mov	sp, r7
 800140c:	bd80      	pop	{r7, pc}

0800140e <HAL_ADC_IRQHandler>:
 800140e:	b580      	push	{r7, lr}
 8001410:	b084      	sub	sp, #16
 8001412:	af00      	add	r7, sp, #0
 8001414:	6078      	str	r0, [r7, #4]
 8001416:	2300      	movs	r3, #0
 8001418:	60fb      	str	r3, [r7, #12]
 800141a:	2300      	movs	r3, #0
 800141c:	60bb      	str	r3, [r7, #8]
 800141e:	687b      	ldr	r3, [r7, #4]
 8001420:	681b      	ldr	r3, [r3, #0]
 8001422:	681b      	ldr	r3, [r3, #0]
 8001424:	f003 0302 	and.w	r3, r3, #2
 8001428:	2b02      	cmp	r3, #2
 800142a:	bf0c      	ite	eq
 800142c:	2301      	moveq	r3, #1
 800142e:	2300      	movne	r3, #0
 8001430:	b2db      	uxtb	r3, r3
 8001432:	60fb      	str	r3, [r7, #12]
 8001434:	687b      	ldr	r3, [r7, #4]
 8001436:	681b      	ldr	r3, [r3, #0]
 8001438:	685b      	ldr	r3, [r3, #4]
 800143a:	f003 0320 	and.w	r3, r3, #32
 800143e:	2b20      	cmp	r3, #32
 8001440:	bf0c      	ite	eq
 8001442:	2301      	moveq	r3, #1
 8001444:	2300      	movne	r3, #0
 8001446:	b2db      	uxtb	r3, r3
 8001448:	60bb      	str	r3, [r7, #8]
 800144a:	68fb      	ldr	r3, [r7, #12]
 800144c:	2b00      	cmp	r3, #0
 800144e:	d049      	beq.n	80014e4 <HAL_ADC_IRQHandler+0xd6>
 8001450:	68bb      	ldr	r3, [r7, #8]
 8001452:	2b00      	cmp	r3, #0
 8001454:	d046      	beq.n	80014e4 <HAL_ADC_IRQHandler+0xd6>
 8001456:	687b      	ldr	r3, [r7, #4]
 8001458:	6c1b      	ldr	r3, [r3, #64]	; 0x40
 800145a:	f003 0310 	and.w	r3, r3, #16
 800145e:	2b00      	cmp	r3, #0
 8001460:	d105      	bne.n	800146e <HAL_ADC_IRQHandler+0x60>
 8001462:	687b      	ldr	r3, [r7, #4]
 8001464:	6c1b      	ldr	r3, [r3, #64]	; 0x40
 8001466:	f443 7200 	orr.w	r2, r3, #512	; 0x200
 800146a:	687b      	ldr	r3, [r7, #4]
 800146c:	641a      	str	r2, [r3, #64]	; 0x40
 800146e:	687b      	ldr	r3, [r7, #4]
 8001470:	681b      	ldr	r3, [r3, #0]
 8001472:	689b      	ldr	r3, [r3, #8]
 8001474:	f003 5340 	and.w	r3, r3, #805306368	; 0x30000000
 8001478:	2b00      	cmp	r3, #0
 800147a:	d12b      	bne.n	80014d4 <HAL_ADC_IRQHandler+0xc6>
 800147c:	687b      	ldr	r3, [r7, #4]
 800147e:	7e1b      	ldrb	r3, [r3, #24]
 8001480:	2b00      	cmp	r3, #0
 8001482:	d127      	bne.n	80014d4 <HAL_ADC_IRQHandler+0xc6>
 8001484:	687b      	ldr	r3, [r7, #4]
 8001486:	681b      	ldr	r3, [r3, #0]
 8001488:	6adb      	ldr	r3, [r3, #44]	; 0x2c
 800148a:	f403 0370 	and.w	r3, r3, #15728640	; 0xf00000
 800148e:	2b00      	cmp	r3, #0
 8001490:	d006      	beq.n	80014a0 <HAL_ADC_IRQHandler+0x92>
 8001492:	687b      	ldr	r3, [r7, #4]
 8001494:	681b      	ldr	r3, [r3, #0]
 8001496:	689b      	ldr	r3, [r3, #8]
 8001498:	f403 6380 	and.w	r3, r3, #1024	; 0x400
 800149c:	2b00      	cmp	r3, #0
 800149e:	d119      	bne.n	80014d4 <HAL_ADC_IRQHandler+0xc6>
 80014a0:	687b      	ldr	r3, [r7, #4]
 80014a2:	681b      	ldr	r3, [r3, #0]
 80014a4:	685a      	ldr	r2, [r3, #4]
 80014a6:	687b      	ldr	r3, [r7, #4]
 80014a8:	681b      	ldr	r3, [r3, #0]
 80014aa:	f022 0220 	bic.w	r2, r2, #32
 80014ae:	605a      	str	r2, [r3, #4]
 80014b0:	687b      	ldr	r3, [r7, #4]
 80014b2:	6c1b      	ldr	r3, [r3, #64]	; 0x40
 80014b4:	f423 7280 	bic.w	r2, r3, #256	; 0x100
 80014b8:	687b      	ldr	r3, [r7, #4]
 80014ba:	641a      	str	r2, [r3, #64]	; 0x40
 80014bc:	687b      	ldr	r3, [r7, #4]
 80014be:	6c1b      	ldr	r3, [r3, #64]	; 0x40
 80014c0:	f403 5380 	and.w	r3, r3, #4096	; 0x1000
 80014c4:	2b00      	cmp	r3, #0
 80014c6:	d105      	bne.n	80014d4 <HAL_ADC_IRQHandler+0xc6>
 80014c8:	687b      	ldr	r3, [r7, #4]
 80014ca:	6c1b      	ldr	r3, [r3, #64]	; 0x40
 80014cc:	f043 0201 	orr.w	r2, r3, #1
 80014d0:	687b      	ldr	r3, [r7, #4]
 80014d2:	641a      	str	r2, [r3, #64]	; 0x40
 80014d4:	6878      	ldr	r0, [r7, #4]
 80014d6:	f000 f8db 	bl	8001690 <HAL_ADC_ConvCpltCallback>
 80014da:	687b      	ldr	r3, [r7, #4]
 80014dc:	681b      	ldr	r3, [r3, #0]
 80014de:	f06f 0212 	mvn.w	r2, #18
 80014e2:	601a      	str	r2, [r3, #0]
 80014e4:	687b      	ldr	r3, [r7, #4]
 80014e6:	681b      	ldr	r3, [r3, #0]
 80014e8:	681b      	ldr	r3, [r3, #0]
 80014ea:	f003 0304 	and.w	r3, r3, #4
 80014ee:	2b04      	cmp	r3, #4
 80014f0:	bf0c      	ite	eq
 80014f2:	2301      	moveq	r3, #1
 80014f4:	2300      	movne	r3, #0
 80014f6:	b2db      	uxtb	r3, r3
 80014f8:	60fb      	str	r3, [r7, #12]
 80014fa:	687b      	ldr	r3, [r7, #4]
 80014fc:	681b      	ldr	r3, [r3, #0]
 80014fe:	685b      	ldr	r3, [r3, #4]
 8001500:	f003 0380 	and.w	r3, r3, #128	; 0x80
 8001504:	2b80      	cmp	r3, #128	; 0x80
 8001506:	bf0c      	ite	eq
 8001508:	2301      	moveq	r3, #1
 800150a:	2300      	movne	r3, #0
 800150c:	b2db      	uxtb	r3, r3
 800150e:	60bb      	str	r3, [r7, #8]
 8001510:	68fb      	ldr	r3, [r7, #12]
 8001512:	2b00      	cmp	r3, #0
 8001514:	d057      	beq.n	80015c6 <HAL_ADC_IRQHandler+0x1b8>
 8001516:	68bb      	ldr	r3, [r7, #8]
 8001518:	2b00      	cmp	r3, #0
 800151a:	d054      	beq.n	80015c6 <HAL_ADC_IRQHandler+0x1b8>
 800151c:	687b      	ldr	r3, [r7, #4]
 800151e:	6c1b      	ldr	r3, [r3, #64]	; 0x40
 8001520:	f003 0310 	and.w	r3, r3, #16
 8001524:	2b00      	cmp	r3, #0
 8001526:	d105      	bne.n	8001534 <HAL_ADC_IRQHandler+0x126>
 8001528:	687b      	ldr	r3, [r7, #4]
 800152a:	6c1b      	ldr	r3, [r3, #64]	; 0x40
 800152c:	f443 5200 	orr.w	r2, r3, #8192	; 0x2000
 8001530:	687b      	ldr	r3, [r7, #4]
 8001532:	641a      	str	r2, [r3, #64]	; 0x40
 8001534:	687b      	ldr	r3, [r7, #4]
 8001536:	681b      	ldr	r3, [r3, #0]
 8001538:	689b      	ldr	r3, [r3, #8]
 800153a:	f403 1340 	and.w	r3, r3, #3145728	; 0x300000
 800153e:	2b00      	cmp	r3, #0
 8001540:	d139      	bne.n	80015b6 <HAL_ADC_IRQHandler+0x1a8>
 8001542:	687b      	ldr	r3, [r7, #4]
 8001544:	681b      	ldr	r3, [r3, #0]
 8001546:	6b9b      	ldr	r3, [r3, #56]	; 0x38
 8001548:	f403 1340 	and.w	r3, r3, #3145728	; 0x300000
 800154c:	2b00      	cmp	r3, #0
 800154e:	d006      	beq.n	800155e <HAL_ADC_IRQHandler+0x150>
 8001550:	687b      	ldr	r3, [r7, #4]
 8001552:	681b      	ldr	r3, [r3, #0]
 8001554:	689b      	ldr	r3, [r3, #8]
 8001556:	f403 6380 	and.w	r3, r3, #1024	; 0x400
 800155a:	2b00      	cmp	r3, #0
 800155c:	d12b      	bne.n	80015b6 <HAL_ADC_IRQHandler+0x1a8>
 800155e:	687b      	ldr	r3, [r7, #4]
 8001560:	681b      	ldr	r3, [r3, #0]
 8001562:	685b      	ldr	r3, [r3, #4]
 8001564:	f403 6380 	and.w	r3, r3, #1024	; 0x400
 8001568:	2b00      	cmp	r3, #0
 800156a:	d124      	bne.n	80015b6 <HAL_ADC_IRQHandler+0x1a8>
 800156c:	687b      	ldr	r3, [r7, #4]
 800156e:	681b      	ldr	r3, [r3, #0]
 8001570:	689b      	ldr	r3, [r3, #8]
 8001572:	f003 5340 	and.w	r3, r3, #805306368	; 0x30000000
 8001576:	2b00      	cmp	r3, #0
 8001578:	d11d      	bne.n	80015b6 <HAL_ADC_IRQHandler+0x1a8>
 800157a:	687b      	ldr	r3, [r7, #4]
 800157c:	7e1b      	ldrb	r3, [r3, #24]
 800157e:	2b00      	cmp	r3, #0
 8001580:	d119      	bne.n	80015b6 <HAL_ADC_IRQHandler+0x1a8>
 8001582:	687b      	ldr	r3, [r7, #4]
 8001584:	681b      	ldr	r3, [r3, #0]
 8001586:	685a      	ldr	r2, [r3, #4]
 8001588:	687b      	ldr	r3, [r7, #4]
 800158a:	681b      	ldr	r3, [r3, #0]
 800158c:	f022 0280 	bic.w	r2, r2, #128	; 0x80
 8001590:	605a      	str	r2, [r3, #4]
 8001592:	687b      	ldr	r3, [r7, #4]
 8001594:	6c1b      	ldr	r3, [r3, #64]	; 0x40
 8001596:	f423 5280 	bic.w	r2, r3, #4096	; 0x1000
 800159a:	687b      	ldr	r3, [r7, #4]
 800159c:	641a      	str	r2, [r3, #64]	; 0x40
 800159e:	687b      	ldr	r3, [r7, #4]
 80015a0:	6c1b      	ldr	r3, [r3, #64]	; 0x40
 80015a2:	f403 7380 	and.w	r3, r3, #256	; 0x100
 80015a6:	2b00      	cmp	r3, #0
 80015a8:	d105      	bne.n	80015b6 <HAL_ADC_IRQHandler+0x1a8>
 80015aa:	687b      	ldr	r3, [r7, #4]
 80015ac:	6c1b      	ldr	r3, [r3, #64]	; 0x40
 80015ae:	f043 0201 	orr.w	r2, r3, #1
 80015b2:	687b      	ldr	r3, [r7, #4]
 80015b4:	641a      	str	r2, [r3, #64]	; 0x40
 80015b6:	6878      	ldr	r0, [r7, #4]
 80015b8:	f000 fab6 	bl	8001b28 <HAL_ADCEx_InjectedConvCpltCallback>
 80015bc:	687b      	ldr	r3, [r7, #4]
 80015be:	681b      	ldr	r3, [r3, #0]
 80015c0:	f06f 020c 	mvn.w	r2, #12
 80015c4:	601a      	str	r2, [r3, #0]
 80015c6:	687b      	ldr	r3, [r7, #4]
 80015c8:	681b      	ldr	r3, [r3, #0]
 80015ca:	681b      	ldr	r3, [r3, #0]
 80015cc:	f003 0301 	and.w	r3, r3, #1
 80015d0:	2b01      	cmp	r3, #1
 80015d2:	bf0c      	ite	eq
 80015d4:	2301      	moveq	r3, #1
 80015d6:	2300      	movne	r3, #0
 80015d8:	b2db      	uxtb	r3, r3
 80015da:	60fb      	str	r3, [r7, #12]
 80015dc:	687b      	ldr	r3, [r7, #4]
 80015de:	681b      	ldr	r3, [r3, #0]
 80015e0:	685b      	ldr	r3, [r3, #4]
 80015e2:	f003 0340 	and.w	r3, r3, #64	; 0x40
 80015e6:	2b40      	cmp	r3, #64	; 0x40
 80015e8:	bf0c      	ite	eq
 80015ea:	2301      	moveq	r3, #1
 80015ec:	2300      	movne	r3, #0
 80015ee:	b2db      	uxtb	r3, r3
 80015f0:	60bb      	str	r3, [r7, #8]
 80015f2:	68fb      	ldr	r3, [r7, #12]
 80015f4:	2b00      	cmp	r3, #0
 80015f6:	d017      	beq.n	8001628 <HAL_ADC_IRQHandler+0x21a>
 80015f8:	68bb      	ldr	r3, [r7, #8]
 80015fa:	2b00      	cmp	r3, #0
 80015fc:	d014      	beq.n	8001628 <HAL_ADC_IRQHandler+0x21a>
 80015fe:	687b      	ldr	r3, [r7, #4]
 8001600:	681b      	ldr	r3, [r3, #0]
 8001602:	681b      	ldr	r3, [r3, #0]
 8001604:	f003 0301 	and.w	r3, r3, #1
 8001608:	2b01      	cmp	r3, #1
 800160a:	d10d      	bne.n	8001628 <HAL_ADC_IRQHandler+0x21a>
 800160c:	687b      	ldr	r3, [r7, #4]
 800160e:	6c1b      	ldr	r3, [r3, #64]	; 0x40
 8001610:	f443 3280 	orr.w	r2, r3, #65536	; 0x10000
 8001614:	687b      	ldr	r3, [r7, #4]
 8001616:	641a      	str	r2, [r3, #64]	; 0x40
 8001618:	6878      	ldr	r0, [r7, #4]
 800161a:	f000 f843 	bl	80016a4 <HAL_ADC_LevelOutOfWindowCallback>
 800161e:	687b      	ldr	r3, [r7, #4]
 8001620:	681b      	ldr	r3, [r3, #0]
 8001622:	f06f 0201 	mvn.w	r2, #1
 8001626:	601a      	str	r2, [r3, #0]
 8001628:	687b      	ldr	r3, [r7, #4]
 800162a:	681b      	ldr	r3, [r3, #0]
 800162c:	681b      	ldr	r3, [r3, #0]
 800162e:	f003 0320 	and.w	r3, r3, #32
 8001632:	2b20      	cmp	r3, #32
 8001634:	bf0c      	ite	eq
 8001636:	2301      	moveq	r3, #1
 8001638:	2300      	movne	r3, #0
 800163a:	b2db      	uxtb	r3, r3
 800163c:	60fb      	str	r3, [r7, #12]
 800163e:	687b      	ldr	r3, [r7, #4]
 8001640:	681b      	ldr	r3, [r3, #0]
 8001642:	685b      	ldr	r3, [r3, #4]
 8001644:	f003 6380 	and.w	r3, r3, #67108864	; 0x4000000
 8001648:	f1b3 6f80 	cmp.w	r3, #67108864	; 0x4000000
 800164c:	bf0c      	ite	eq
 800164e:	2301      	moveq	r3, #1
 8001650:	2300      	movne	r3, #0
 8001652:	b2db      	uxtb	r3, r3
 8001654:	60bb      	str	r3, [r7, #8]
 8001656:	68fb      	ldr	r3, [r7, #12]
 8001658:	2b00      	cmp	r3, #0
 800165a:	d015      	beq.n	8001688 <HAL_ADC_IRQHandler+0x27a>
 800165c:	68bb      	ldr	r3, [r7, #8]
 800165e:	2b00      	cmp	r3, #0
 8001660:	d012      	beq.n	8001688 <HAL_ADC_IRQHandler+0x27a>
 8001662:	687b      	ldr	r3, [r7, #4]
 8001664:	6c5b      	ldr	r3, [r3, #68]	; 0x44
 8001666:	f043 0202 	orr.w	r2, r3, #2
 800166a:	687b      	ldr	r3, [r7, #4]
 800166c:	645a      	str	r2, [r3, #68]	; 0x44
 800166e:	687b      	ldr	r3, [r7, #4]
 8001670:	681b      	ldr	r3, [r3, #0]
 8001672:	f06f 0220 	mvn.w	r2, #32
 8001676:	601a      	str	r2, [r3, #0]
 8001678:	6878      	ldr	r0, [r7, #4]
 800167a:	f000 f81d 	bl	80016b8 <HAL_ADC_ErrorCallback>
 800167e:	687b      	ldr	r3, [r7, #4]
 8001680:	681b      	ldr	r3, [r3, #0]
 8001682:	f06f 0220 	mvn.w	r2, #32
 8001686:	601a      	str	r2, [r3, #0]
 8001688:	bf00      	nop
 800168a:	3710      	adds	r7, #16
 800168c:	46bd      	mov	sp, r7
 800168e:	bd80      	pop	{r7, pc}

08001690 <HAL_ADC_ConvCpltCallback>:
 8001690:	b480      	push	{r7}
 8001692:	b083      	sub	sp, #12
 8001694:	af00      	add	r7, sp, #0
 8001696:	6078      	str	r0, [r7, #4]
 8001698:	bf00      	nop
 800169a:	370c      	adds	r7, #12
 800169c:	46bd      	mov	sp, r7
 800169e:	f85d 7b04 	ldr.w	r7, [sp], #4
 80016a2:	4770      	bx	lr

080016a4 <HAL_ADC_LevelOutOfWindowCallback>:
 80016a4:	b480      	push	{r7}
 80016a6:	b083      	sub	sp, #12
 80016a8:	af00      	add	r7, sp, #0
 80016aa:	6078      	str	r0, [r7, #4]
 80016ac:	bf00      	nop
 80016ae:	370c      	adds	r7, #12
 80016b0:	46bd      	mov	sp, r7
 80016b2:	f85d 7b04 	ldr.w	r7, [sp], #4
 80016b6:	4770      	bx	lr

080016b8 <HAL_ADC_ErrorCallback>:
 80016b8:	b480      	push	{r7}
 80016ba:	b083      	sub	sp, #12
 80016bc:	af00      	add	r7, sp, #0
 80016be:	6078      	str	r0, [r7, #4]
 80016c0:	bf00      	nop
 80016c2:	370c      	adds	r7, #12
 80016c4:	46bd      	mov	sp, r7
 80016c6:	f85d 7b04 	ldr.w	r7, [sp], #4
 80016ca:	4770      	bx	lr

080016cc <HAL_ADC_ConfigChannel>:
 80016cc:	b480      	push	{r7}
 80016ce:	b085      	sub	sp, #20
 80016d0:	af00      	add	r7, sp, #0
 80016d2:	6078      	str	r0, [r7, #4]
 80016d4:	6039      	str	r1, [r7, #0]
 80016d6:	2300      	movs	r3, #0
 80016d8:	60bb      	str	r3, [r7, #8]
 80016da:	687b      	ldr	r3, [r7, #4]
 80016dc:	f893 303c 	ldrb.w	r3, [r3, #60]	; 0x3c
 80016e0:	2b01      	cmp	r3, #1
 80016e2:	d101      	bne.n	80016e8 <HAL_ADC_ConfigChannel+0x1c>
 80016e4:	2302      	movs	r3, #2
 80016e6:	e113      	b.n	8001910 <HAL_ADC_ConfigChannel+0x244>
 80016e8:	687b      	ldr	r3, [r7, #4]
 80016ea:	2201      	movs	r2, #1
 80016ec:	f883 203c 	strb.w	r2, [r3, #60]	; 0x3c
 80016f0:	683b      	ldr	r3, [r7, #0]
 80016f2:	681b      	ldr	r3, [r3, #0]
 80016f4:	2b09      	cmp	r3, #9
 80016f6:	d925      	bls.n	8001744 <HAL_ADC_ConfigChannel+0x78>
 80016f8:	687b      	ldr	r3, [r7, #4]
 80016fa:	681b      	ldr	r3, [r3, #0]
 80016fc:	68d9      	ldr	r1, [r3, #12]
 80016fe:	683b      	ldr	r3, [r7, #0]
 8001700:	681b      	ldr	r3, [r3, #0]
 8001702:	b29b      	uxth	r3, r3
 8001704:	461a      	mov	r2, r3
 8001706:	4613      	mov	r3, r2
 8001708:	005b      	lsls	r3, r3, #1
 800170a:	4413      	add	r3, r2
 800170c:	3b1e      	subs	r3, #30
 800170e:	2207      	movs	r2, #7
 8001710:	fa02 f303 	lsl.w	r3, r2, r3
 8001714:	43da      	mvns	r2, r3
 8001716:	687b      	ldr	r3, [r7, #4]
 8001718:	681b      	ldr	r3, [r3, #0]
 800171a:	400a      	ands	r2, r1
 800171c:	60da      	str	r2, [r3, #12]
 800171e:	687b      	ldr	r3, [r7, #4]
 8001720:	681b      	ldr	r3, [r3, #0]
 8001722:	68d9      	ldr	r1, [r3, #12]
 8001724:	683b      	ldr	r3, [r7, #0]
 8001726:	689a      	ldr	r2, [r3, #8]
 8001728:	683b      	ldr	r3, [r7, #0]
 800172a:	681b      	ldr	r3, [r3, #0]
 800172c:	b29b      	uxth	r3, r3
 800172e:	4618      	mov	r0, r3
 8001730:	4603      	mov	r3, r0
 8001732:	005b      	lsls	r3, r3, #1
 8001734:	4403      	add	r3, r0
 8001736:	3b1e      	subs	r3, #30
 8001738:	409a      	lsls	r2, r3
 800173a:	687b      	ldr	r3, [r7, #4]
 800173c:	681b      	ldr	r3, [r3, #0]
 800173e:	430a      	orrs	r2, r1
 8001740:	60da      	str	r2, [r3, #12]
 8001742:	e022      	b.n	800178a <HAL_ADC_ConfigChannel+0xbe>
 8001744:	687b      	ldr	r3, [r7, #4]
 8001746:	681b      	ldr	r3, [r3, #0]
 8001748:	6919      	ldr	r1, [r3, #16]
 800174a:	683b      	ldr	r3, [r7, #0]
 800174c:	681b      	ldr	r3, [r3, #0]
 800174e:	b29b      	uxth	r3, r3
 8001750:	461a      	mov	r2, r3
 8001752:	4613      	mov	r3, r2
 8001754:	005b      	lsls	r3, r3, #1
 8001756:	4413      	add	r3, r2
 8001758:	2207      	movs	r2, #7
 800175a:	fa02 f303 	lsl.w	r3, r2, r3
 800175e:	43da      	mvns	r2, r3
 8001760:	687b      	ldr	r3, [r7, #4]
 8001762:	681b      	ldr	r3, [r3, #0]
 8001764:	400a      	ands	r2, r1
 8001766:	611a      	str	r2, [r3, #16]
 8001768:	687b      	ldr	r3, [r7, #4]
 800176a:	681b      	ldr	r3, [r3, #0]
 800176c:	6919      	ldr	r1, [r3, #16]
 800176e:	683b      	ldr	r3, [r7, #0]
 8001770:	689a      	ldr	r2, [r3, #8]
 8001772:	683b      	ldr	r3, [r7, #0]
 8001774:	681b      	ldr	r3, [r3, #0]
 8001776:	b29b      	uxth	r3, r3
 8001778:	4618      	mov	r0, r3
 800177a:	4603      	mov	r3, r0
 800177c:	005b      	lsls	r3, r3, #1
 800177e:	4403      	add	r3, r0
 8001780:	409a      	lsls	r2, r3
 8001782:	687b      	ldr	r3, [r7, #4]
 8001784:	681b      	ldr	r3, [r3, #0]
 8001786:	430a      	orrs	r2, r1
 8001788:	611a      	str	r2, [r3, #16]
 800178a:	683b      	ldr	r3, [r7, #0]
 800178c:	685b      	ldr	r3, [r3, #4]
 800178e:	2b06      	cmp	r3, #6
 8001790:	d824      	bhi.n	80017dc <HAL_ADC_ConfigChannel+0x110>
 8001792:	687b      	ldr	r3, [r7, #4]
 8001794:	681b      	ldr	r3, [r3, #0]
 8001796:	6b59      	ldr	r1, [r3, #52]	; 0x34
 8001798:	683b      	ldr	r3, [r7, #0]
 800179a:	685a      	ldr	r2, [r3, #4]
 800179c:	4613      	mov	r3, r2
 800179e:	009b      	lsls	r3, r3, #2
 80017a0:	4413      	add	r3, r2
 80017a2:	3b05      	subs	r3, #5
 80017a4:	221f      	movs	r2, #31
 80017a6:	fa02 f303 	lsl.w	r3, r2, r3
 80017aa:	43da      	mvns	r2, r3
 80017ac:	687b      	ldr	r3, [r7, #4]
 80017ae:	681b      	ldr	r3, [r3, #0]
 80017b0:	400a      	ands	r2, r1
 80017b2:	635a      	str	r2, [r3, #52]	; 0x34
 80017b4:	687b      	ldr	r3, [r7, #4]
 80017b6:	681b      	ldr	r3, [r3, #0]
 80017b8:	6b59      	ldr	r1, [r3, #52]	; 0x34
 80017ba:	683b      	ldr	r3, [r7, #0]
 80017bc:	681b      	ldr	r3, [r3, #0]
 80017be:	b29b      	uxth	r3, r3
 80017c0:	4618      	mov	r0, r3
 80017c2:	683b      	ldr	r3, [r7, #0]
 80017c4:	685a      	ldr	r2, [r3, #4]
 80017c6:	4613      	mov	r3, r2
 80017c8:	009b      	lsls	r3, r3, #2
 80017ca:	4413      	add	r3, r2
 80017cc:	3b05      	subs	r3, #5
 80017ce:	fa00 f203 	lsl.w	r2, r0, r3
 80017d2:	687b      	ldr	r3, [r7, #4]
 80017d4:	681b      	ldr	r3, [r3, #0]
 80017d6:	430a      	orrs	r2, r1
 80017d8:	635a      	str	r2, [r3, #52]	; 0x34
 80017da:	e04c      	b.n	8001876 <HAL_ADC_ConfigChannel+0x1aa>
 80017dc:	683b      	ldr	r3, [r7, #0]
 80017de:	685b      	ldr	r3, [r3, #4]
 80017e0:	2b0c      	cmp	r3, #12
 80017e2:	d824      	bhi.n	800182e <HAL_ADC_ConfigChannel+0x162>
 80017e4:	687b      	ldr	r3, [r7, #4]
 80017e6:	681b      	ldr	r3, [r3, #0]
 80017e8:	6b19      	ldr	r1, [r3, #48]	; 0x30
 80017ea:	683b      	ldr	r3, [r7, #0]
 80017ec:	685a      	ldr	r2, [r3, #4]
 80017ee:	4613      	mov	r3, r2
 80017f0:	009b      	lsls	r3, r3, #2
 80017f2:	4413      	add	r3, r2
 80017f4:	3b23      	subs	r3, #35	; 0x23
 80017f6:	221f      	movs	r2, #31
 80017f8:	fa02 f303 	lsl.w	r3, r2, r3
 80017fc:	43da      	mvns	r2, r3
 80017fe:	687b      	ldr	r3, [r7, #4]
 8001800:	681b      	ldr	r3, [r3, #0]
 8001802:	400a      	ands	r2, r1
 8001804:	631a      	str	r2, [r3, #48]	; 0x30
 8001806:	687b      	ldr	r3, [r7, #4]
 8001808:	681b      	ldr	r3, [r3, #0]
 800180a:	6b19      	ldr	r1, [r3, #48]	; 0x30
 800180c:	683b      	ldr	r3, [r7, #0]
 800180e:	681b      	ldr	r3, [r3, #0]
 8001810:	b29b      	uxth	r3, r3
 8001812:	4618      	mov	r0, r3
 8001814:	683b      	ldr	r3, [r7, #0]
 8001816:	685a      	ldr	r2, [r3, #4]
 8001818:	4613      	mov	r3, r2
 800181a:	009b      	lsls	r3, r3, #2
 800181c:	4413      	add	r3, r2
 800181e:	3b23      	subs	r3, #35	; 0x23
 8001820:	fa00 f203 	lsl.w	r2, r0, r3
 8001824:	687b      	ldr	r3, [r7, #4]
 8001826:	681b      	ldr	r3, [r3, #0]
 8001828:	430a      	orrs	r2, r1
 800182a:	631a      	str	r2, [r3, #48]	; 0x30
 800182c:	e023      	b.n	8001876 <HAL_ADC_ConfigChannel+0x1aa>
 800182e:	687b      	ldr	r3, [r7, #4]
 8001830:	681b      	ldr	r3, [r3, #0]
 8001832:	6ad9      	ldr	r1, [r3, #44]	; 0x2c
 8001834:	683b      	ldr	r3, [r7, #0]
 8001836:	685a      	ldr	r2, [r3, #4]
 8001838:	4613      	mov	r3, r2
 800183a:	009b      	lsls	r3, r3, #2
 800183c:	4413      	add	r3, r2
 800183e:	3b41      	subs	r3, #65	; 0x41
 8001840:	221f      	movs	r2, #31
 8001842:	fa02 f303 	lsl.w	r3, r2, r3
 8001846:	43da      	mvns	r2, r3
 8001848:	687b      	ldr	r3, [r7, #4]
 800184a:	681b      	ldr	r3, [r3, #0]
 800184c:	400a      	ands	r2, r1
 800184e:	62da      	str	r2, [r3, #44]	; 0x2c
 8001850:	687b      	ldr	r3, [r7, #4]
 8001852:	681b      	ldr	r3, [r3, #0]
 8001854:	6ad9      	ldr	r1, [r3, #44]	; 0x2c
 8001856:	683b      	ldr	r3, [r7, #0]
 8001858:	681b      	ldr	r3, [r3, #0]
 800185a:	b29b      	uxth	r3, r3
 800185c:	4618      	mov	r0, r3
 800185e:	683b      	ldr	r3, [r7, #0]
 8001860:	685a      	ldr	r2, [r3, #4]
 8001862:	4613      	mov	r3, r2
 8001864:	009b      	lsls	r3, r3, #2
 8001866:	4413      	add	r3, r2
 8001868:	3b41      	subs	r3, #65	; 0x41
 800186a:	fa00 f203 	lsl.w	r2, r0, r3
 800186e:	687b      	ldr	r3, [r7, #4]
 8001870:	681b      	ldr	r3, [r3, #0]
 8001872:	430a      	orrs	r2, r1
 8001874:	62da      	str	r2, [r3, #44]	; 0x2c
 8001876:	4b29      	ldr	r3, [pc, #164]	; (800191c <HAL_ADC_ConfigChannel+0x250>)
 8001878:	60fb      	str	r3, [r7, #12]
 800187a:	687b      	ldr	r3, [r7, #4]
 800187c:	681b      	ldr	r3, [r3, #0]
 800187e:	4a28      	ldr	r2, [pc, #160]	; (8001920 <HAL_ADC_ConfigChannel+0x254>)
 8001880:	4293      	cmp	r3, r2
 8001882:	d10f      	bne.n	80018a4 <HAL_ADC_ConfigChannel+0x1d8>
 8001884:	683b      	ldr	r3, [r7, #0]
 8001886:	681b      	ldr	r3, [r3, #0]
 8001888:	2b12      	cmp	r3, #18
 800188a:	d10b      	bne.n	80018a4 <HAL_ADC_ConfigChannel+0x1d8>
 800188c:	68fb      	ldr	r3, [r7, #12]
 800188e:	685b      	ldr	r3, [r3, #4]
 8001890:	f423 0200 	bic.w	r2, r3, #8388608	; 0x800000
 8001894:	68fb      	ldr	r3, [r7, #12]
 8001896:	605a      	str	r2, [r3, #4]
 8001898:	68fb      	ldr	r3, [r7, #12]
 800189a:	685b      	ldr	r3, [r3, #4]
 800189c:	f443 0280 	orr.w	r2, r3, #4194304	; 0x400000
 80018a0:	68fb      	ldr	r3, [r7, #12]
 80018a2:	605a      	str	r2, [r3, #4]
 80018a4:	687b      	ldr	r3, [r7, #4]
 80018a6:	681b      	ldr	r3, [r3, #0]
 80018a8:	4a1d      	ldr	r2, [pc, #116]	; (8001920 <HAL_ADC_ConfigChannel+0x254>)
 80018aa:	4293      	cmp	r3, r2
 80018ac:	d12b      	bne.n	8001906 <HAL_ADC_ConfigChannel+0x23a>
 80018ae:	683b      	ldr	r3, [r7, #0]
 80018b0:	681b      	ldr	r3, [r3, #0]
 80018b2:	4a1c      	ldr	r2, [pc, #112]	; (8001924 <HAL_ADC_ConfigChannel+0x258>)
 80018b4:	4293      	cmp	r3, r2
 80018b6:	d003      	beq.n	80018c0 <HAL_ADC_ConfigChannel+0x1f4>
 80018b8:	683b      	ldr	r3, [r7, #0]
 80018ba:	681b      	ldr	r3, [r3, #0]
 80018bc:	2b11      	cmp	r3, #17
 80018be:	d122      	bne.n	8001906 <HAL_ADC_ConfigChannel+0x23a>
 80018c0:	68fb      	ldr	r3, [r7, #12]
 80018c2:	685b      	ldr	r3, [r3, #4]
 80018c4:	f423 0280 	bic.w	r2, r3, #4194304	; 0x400000
 80018c8:	68fb      	ldr	r3, [r7, #12]
 80018ca:	605a      	str	r2, [r3, #4]
 80018cc:	68fb      	ldr	r3, [r7, #12]
 80018ce:	685b      	ldr	r3, [r3, #4]
 80018d0:	f443 0200 	orr.w	r2, r3, #8388608	; 0x800000
 80018d4:	68fb      	ldr	r3, [r7, #12]
 80018d6:	605a      	str	r2, [r3, #4]
 80018d8:	683b      	ldr	r3, [r7, #0]
 80018da:	681b      	ldr	r3, [r3, #0]
 80018dc:	4a11      	ldr	r2, [pc, #68]	; (8001924 <HAL_ADC_ConfigChannel+0x258>)
 80018de:	4293      	cmp	r3, r2
 80018e0:	d111      	bne.n	8001906 <HAL_ADC_ConfigChannel+0x23a>
 80018e2:	4b11      	ldr	r3, [pc, #68]	; (8001928 <HAL_ADC_ConfigChannel+0x25c>)
 80018e4:	681b      	ldr	r3, [r3, #0]
 80018e6:	4a11      	ldr	r2, [pc, #68]	; (800192c <HAL_ADC_ConfigChannel+0x260>)
 80018e8:	fba2 2303 	umull	r2, r3, r2, r3
 80018ec:	0c9a      	lsrs	r2, r3, #18
 80018ee:	4613      	mov	r3, r2
 80018f0:	009b      	lsls	r3, r3, #2
 80018f2:	4413      	add	r3, r2
 80018f4:	005b      	lsls	r3, r3, #1
 80018f6:	60bb      	str	r3, [r7, #8]
 80018f8:	e002      	b.n	8001900 <HAL_ADC_ConfigChannel+0x234>
 80018fa:	68bb      	ldr	r3, [r7, #8]
 80018fc:	3b01      	subs	r3, #1
 80018fe:	60bb      	str	r3, [r7, #8]
 8001900:	68bb      	ldr	r3, [r7, #8]
 8001902:	2b00      	cmp	r3, #0
 8001904:	d1f9      	bne.n	80018fa <HAL_ADC_ConfigChannel+0x22e>
 8001906:	687b      	ldr	r3, [r7, #4]
 8001908:	2200      	movs	r2, #0
 800190a:	f883 203c 	strb.w	r2, [r3, #60]	; 0x3c
 800190e:	2300      	movs	r3, #0
 8001910:	4618      	mov	r0, r3
 8001912:	3714      	adds	r7, #20
 8001914:	46bd      	mov	sp, r7
 8001916:	f85d 7b04 	ldr.w	r7, [sp], #4
 800191a:	4770      	bx	lr
 800191c:	40012300 	.word	0x40012300
 8001920:	40012000 	.word	0x40012000
 8001924:	10000012 	.word	0x10000012
 8001928:	20000000 	.word	0x20000000
 800192c:	431bde83 	.word	0x431bde83

08001930 <ADC_Init>:
 8001930:	b480      	push	{r7}
 8001932:	b085      	sub	sp, #20
 8001934:	af00      	add	r7, sp, #0
 8001936:	6078      	str	r0, [r7, #4]
 8001938:	4b79      	ldr	r3, [pc, #484]	; (8001b20 <ADC_Init+0x1f0>)
 800193a:	60fb      	str	r3, [r7, #12]
 800193c:	68fb      	ldr	r3, [r7, #12]
 800193e:	685b      	ldr	r3, [r3, #4]
 8001940:	f423 3240 	bic.w	r2, r3, #196608	; 0x30000
 8001944:	68fb      	ldr	r3, [r7, #12]
 8001946:	605a      	str	r2, [r3, #4]
 8001948:	68fb      	ldr	r3, [r7, #12]
 800194a:	685a      	ldr	r2, [r3, #4]
 800194c:	687b      	ldr	r3, [r7, #4]
 800194e:	685b      	ldr	r3, [r3, #4]
 8001950:	431a      	orrs	r2, r3
 8001952:	68fb      	ldr	r3, [r7, #12]
 8001954:	605a      	str	r2, [r3, #4]
 8001956:	687b      	ldr	r3, [r7, #4]
 8001958:	681b      	ldr	r3, [r3, #0]
 800195a:	685a      	ldr	r2, [r3, #4]
 800195c:	687b      	ldr	r3, [r7, #4]
 800195e:	681b      	ldr	r3, [r3, #0]
 8001960:	f422 7280 	bic.w	r2, r2, #256	; 0x100
 8001964:	605a      	str	r2, [r3, #4]
 8001966:	687b      	ldr	r3, [r7, #4]
 8001968:	681b      	ldr	r3, [r3, #0]
 800196a:	6859      	ldr	r1, [r3, #4]
 800196c:	687b      	ldr	r3, [r7, #4]
 800196e:	691b      	ldr	r3, [r3, #16]
 8001970:	021a      	lsls	r2, r3, #8
 8001972:	687b      	ldr	r3, [r7, #4]
 8001974:	681b      	ldr	r3, [r3, #0]
 8001976:	430a      	orrs	r2, r1
 8001978:	605a      	str	r2, [r3, #4]
 800197a:	687b      	ldr	r3, [r7, #4]
 800197c:	681b      	ldr	r3, [r3, #0]
 800197e:	685a      	ldr	r2, [r3, #4]
 8001980:	687b      	ldr	r3, [r7, #4]
 8001982:	681b      	ldr	r3, [r3, #0]
 8001984:	f022 7240 	bic.w	r2, r2, #50331648	; 0x3000000
 8001988:	605a      	str	r2, [r3, #4]
 800198a:	687b      	ldr	r3, [r7, #4]
 800198c:	681b      	ldr	r3, [r3, #0]
 800198e:	6859      	ldr	r1, [r3, #4]
 8001990:	687b      	ldr	r3, [r7, #4]
 8001992:	689a      	ldr	r2, [r3, #8]
 8001994:	687b      	ldr	r3, [r7, #4]
 8001996:	681b      	ldr	r3, [r3, #0]
 8001998:	430a      	orrs	r2, r1
 800199a:	605a      	str	r2, [r3, #4]
 800199c:	687b      	ldr	r3, [r7, #4]
 800199e:	681b      	ldr	r3, [r3, #0]
 80019a0:	689a      	ldr	r2, [r3, #8]
 80019a2:	687b      	ldr	r3, [r7, #4]
 80019a4:	681b      	ldr	r3, [r3, #0]
 80019a6:	f422 6200 	bic.w	r2, r2, #2048	; 0x800
 80019aa:	609a      	str	r2, [r3, #8]
 80019ac:	687b      	ldr	r3, [r7, #4]
 80019ae:	681b      	ldr	r3, [r3, #0]
 80019b0:	6899      	ldr	r1, [r3, #8]
 80019b2:	687b      	ldr	r3, [r7, #4]
 80019b4:	68da      	ldr	r2, [r3, #12]
 80019b6:	687b      	ldr	r3, [r7, #4]
 80019b8:	681b      	ldr	r3, [r3, #0]
 80019ba:	430a      	orrs	r2, r1
 80019bc:	609a      	str	r2, [r3, #8]
 80019be:	687b      	ldr	r3, [r7, #4]
 80019c0:	6a9b      	ldr	r3, [r3, #40]	; 0x28
 80019c2:	4a58      	ldr	r2, [pc, #352]	; (8001b24 <ADC_Init+0x1f4>)
 80019c4:	4293      	cmp	r3, r2
 80019c6:	d022      	beq.n	8001a0e <ADC_Init+0xde>
 80019c8:	687b      	ldr	r3, [r7, #4]
 80019ca:	681b      	ldr	r3, [r3, #0]
 80019cc:	689a      	ldr	r2, [r3, #8]
 80019ce:	687b      	ldr	r3, [r7, #4]
 80019d0:	681b      	ldr	r3, [r3, #0]
 80019d2:	f022 6270 	bic.w	r2, r2, #251658240	; 0xf000000
 80019d6:	609a      	str	r2, [r3, #8]
 80019d8:	687b      	ldr	r3, [r7, #4]
 80019da:	681b      	ldr	r3, [r3, #0]
 80019dc:	6899      	ldr	r1, [r3, #8]
 80019de:	687b      	ldr	r3, [r7, #4]
 80019e0:	6a9a      	ldr	r2, [r3, #40]	; 0x28
 80019e2:	687b      	ldr	r3, [r7, #4]
 80019e4:	681b      	ldr	r3, [r3, #0]
 80019e6:	430a      	orrs	r2, r1
 80019e8:	609a      	str	r2, [r3, #8]
 80019ea:	687b      	ldr	r3, [r7, #4]
 80019ec:	681b      	ldr	r3, [r3, #0]
 80019ee:	689a      	ldr	r2, [r3, #8]
 80019f0:	687b      	ldr	r3, [r7, #4]
 80019f2:	681b      	ldr	r3, [r3, #0]
 80019f4:	f022 5240 	bic.w	r2, r2, #805306368	; 0x30000000
 80019f8:	609a      	str	r2, [r3, #8]
 80019fa:	687b      	ldr	r3, [r7, #4]
 80019fc:	681b      	ldr	r3, [r3, #0]
 80019fe:	6899      	ldr	r1, [r3, #8]
 8001a00:	687b      	ldr	r3, [r7, #4]
 8001a02:	6ada      	ldr	r2, [r3, #44]	; 0x2c
 8001a04:	687b      	ldr	r3, [r7, #4]
 8001a06:	681b      	ldr	r3, [r3, #0]
 8001a08:	430a      	orrs	r2, r1
 8001a0a:	609a      	str	r2, [r3, #8]
 8001a0c:	e00f      	b.n	8001a2e <ADC_Init+0xfe>
 8001a0e:	687b      	ldr	r3, [r7, #4]
 8001a10:	681b      	ldr	r3, [r3, #0]
 8001a12:	689a      	ldr	r2, [r3, #8]
 8001a14:	687b      	ldr	r3, [r7, #4]
 8001a16:	681b      	ldr	r3, [r3, #0]
 8001a18:	f022 6270 	bic.w	r2, r2, #251658240	; 0xf000000
 8001a1c:	609a      	str	r2, [r3, #8]
 8001a1e:	687b      	ldr	r3, [r7, #4]
 8001a20:	681b      	ldr	r3, [r3, #0]
 8001a22:	689a      	ldr	r2, [r3, #8]
 8001a24:	687b      	ldr	r3, [r7, #4]
 8001a26:	681b      	ldr	r3, [r3, #0]
 8001a28:	f022 5240 	bic.w	r2, r2, #805306368	; 0x30000000
 8001a2c:	609a      	str	r2, [r3, #8]
 8001a2e:	687b      	ldr	r3, [r7, #4]
 8001a30:	681b      	ldr	r3, [r3, #0]
 8001a32:	689a      	ldr	r2, [r3, #8]
 8001a34:	687b      	ldr	r3, [r7, #4]
 8001a36:	681b      	ldr	r3, [r3, #0]
 8001a38:	f022 0202 	bic.w	r2, r2, #2
 8001a3c:	609a      	str	r2, [r3, #8]
 8001a3e:	687b      	ldr	r3, [r7, #4]
 8001a40:	681b      	ldr	r3, [r3, #0]
 8001a42:	6899      	ldr	r1, [r3, #8]
 8001a44:	687b      	ldr	r3, [r7, #4]
 8001a46:	7e1b      	ldrb	r3, [r3, #24]
 8001a48:	005a      	lsls	r2, r3, #1
 8001a4a:	687b      	ldr	r3, [r7, #4]
 8001a4c:	681b      	ldr	r3, [r3, #0]
 8001a4e:	430a      	orrs	r2, r1
 8001a50:	609a      	str	r2, [r3, #8]
 8001a52:	687b      	ldr	r3, [r7, #4]
 8001a54:	f893 3020 	ldrb.w	r3, [r3, #32]
 8001a58:	2b00      	cmp	r3, #0
 8001a5a:	d01b      	beq.n	8001a94 <ADC_Init+0x164>
 8001a5c:	687b      	ldr	r3, [r7, #4]
 8001a5e:	681b      	ldr	r3, [r3, #0]
 8001a60:	685a      	ldr	r2, [r3, #4]
 8001a62:	687b      	ldr	r3, [r7, #4]
 8001a64:	681b      	ldr	r3, [r3, #0]
 8001a66:	f442 6200 	orr.w	r2, r2, #2048	; 0x800
 8001a6a:	605a      	str	r2, [r3, #4]
 8001a6c:	687b      	ldr	r3, [r7, #4]
 8001a6e:	681b      	ldr	r3, [r3, #0]
 8001a70:	685a      	ldr	r2, [r3, #4]
 8001a72:	687b      	ldr	r3, [r7, #4]
 8001a74:	681b      	ldr	r3, [r3, #0]
 8001a76:	f422 4260 	bic.w	r2, r2, #57344	; 0xe000
 8001a7a:	605a      	str	r2, [r3, #4]
 8001a7c:	687b      	ldr	r3, [r7, #4]
 8001a7e:	681b      	ldr	r3, [r3, #0]
 8001a80:	6859      	ldr	r1, [r3, #4]
 8001a82:	687b      	ldr	r3, [r7, #4]
 8001a84:	6a5b      	ldr	r3, [r3, #36]	; 0x24
 8001a86:	3b01      	subs	r3, #1
 8001a88:	035a      	lsls	r2, r3, #13
 8001a8a:	687b      	ldr	r3, [r7, #4]
 8001a8c:	681b      	ldr	r3, [r3, #0]
 8001a8e:	430a      	orrs	r2, r1
 8001a90:	605a      	str	r2, [r3, #4]
 8001a92:	e007      	b.n	8001aa4 <ADC_Init+0x174>
 8001a94:	687b      	ldr	r3, [r7, #4]
 8001a96:	681b      	ldr	r3, [r3, #0]
 8001a98:	685a      	ldr	r2, [r3, #4]
 8001a9a:	687b      	ldr	r3, [r7, #4]
 8001a9c:	681b      	ldr	r3, [r3, #0]
 8001a9e:	f422 6200 	bic.w	r2, r2, #2048	; 0x800
 8001aa2:	605a      	str	r2, [r3, #4]
 8001aa4:	687b      	ldr	r3, [r7, #4]
 8001aa6:	681b      	ldr	r3, [r3, #0]
 8001aa8:	6ada      	ldr	r2, [r3, #44]	; 0x2c
 8001aaa:	687b      	ldr	r3, [r7, #4]
 8001aac:	681b      	ldr	r3, [r3, #0]
 8001aae:	f422 0270 	bic.w	r2, r2, #15728640	; 0xf00000
 8001ab2:	62da      	str	r2, [r3, #44]	; 0x2c
 8001ab4:	687b      	ldr	r3, [r7, #4]
 8001ab6:	681b      	ldr	r3, [r3, #0]
 8001ab8:	6ad9      	ldr	r1, [r3, #44]	; 0x2c
 8001aba:	687b      	ldr	r3, [r7, #4]
 8001abc:	69db      	ldr	r3, [r3, #28]
 8001abe:	3b01      	subs	r3, #1
 8001ac0:	051a      	lsls	r2, r3, #20
 8001ac2:	687b      	ldr	r3, [r7, #4]
 8001ac4:	681b      	ldr	r3, [r3, #0]
 8001ac6:	430a      	orrs	r2, r1
 8001ac8:	62da      	str	r2, [r3, #44]	; 0x2c
 8001aca:	687b      	ldr	r3, [r7, #4]
 8001acc:	681b      	ldr	r3, [r3, #0]
 8001ace:	689a      	ldr	r2, [r3, #8]
 8001ad0:	687b      	ldr	r3, [r7, #4]
 8001ad2:	681b      	ldr	r3, [r3, #0]
 8001ad4:	f422 7200 	bic.w	r2, r2, #512	; 0x200
 8001ad8:	609a      	str	r2, [r3, #8]
 8001ada:	687b      	ldr	r3, [r7, #4]
 8001adc:	681b      	ldr	r3, [r3, #0]
 8001ade:	6899      	ldr	r1, [r3, #8]
 8001ae0:	687b      	ldr	r3, [r7, #4]
 8001ae2:	f893 3030 	ldrb.w	r3, [r3, #48]	; 0x30
 8001ae6:	025a      	lsls	r2, r3, #9
 8001ae8:	687b      	ldr	r3, [r7, #4]
 8001aea:	681b      	ldr	r3, [r3, #0]
 8001aec:	430a      	orrs	r2, r1
 8001aee:	609a      	str	r2, [r3, #8]
 8001af0:	687b      	ldr	r3, [r7, #4]
 8001af2:	681b      	ldr	r3, [r3, #0]
 8001af4:	689a      	ldr	r2, [r3, #8]
 8001af6:	687b      	ldr	r3, [r7, #4]
 8001af8:	681b      	ldr	r3, [r3, #0]
 8001afa:	f422 6280 	bic.w	r2, r2, #1024	; 0x400
 8001afe:	609a      	str	r2, [r3, #8]
 8001b00:	687b      	ldr	r3, [r7, #4]
 8001b02:	681b      	ldr	r3, [r3, #0]
 8001b04:	6899      	ldr	r1, [r3, #8]
 8001b06:	687b      	ldr	r3, [r7, #4]
 8001b08:	695b      	ldr	r3, [r3, #20]
 8001b0a:	029a      	lsls	r2, r3, #10
 8001b0c:	687b      	ldr	r3, [r7, #4]
 8001b0e:	681b      	ldr	r3, [r3, #0]
 8001b10:	430a      	orrs	r2, r1
 8001b12:	609a      	str	r2, [r3, #8]
 8001b14:	bf00      	nop
 8001b16:	3714      	adds	r7, #20
 8001b18:	46bd      	mov	sp, r7
 8001b1a:	f85d 7b04 	ldr.w	r7, [sp], #4
 8001b1e:	4770      	bx	lr
 8001b20:	40012300 	.word	0x40012300
 8001b24:	0f000001 	.word	0x0f000001

08001b28 <HAL_ADCEx_InjectedConvCpltCallback>:
 8001b28:	b480      	push	{r7}
 8001b2a:	b083      	sub	sp, #12
 8001b2c:	af00      	add	r7, sp, #0
 8001b2e:	6078      	str	r0, [r7, #4]
 8001b30:	bf00      	nop
 8001b32:	370c      	adds	r7, #12
 8001b34:	46bd      	mov	sp, r7
 8001b36:	f85d 7b04 	ldr.w	r7, [sp], #4
 8001b3a:	4770      	bx	lr

08001b3c <__NVIC_SetPriorityGrouping>:
 8001b3c:	b480      	push	{r7}
 8001b3e:	b085      	sub	sp, #20
 8001b40:	af00      	add	r7, sp, #0
 8001b42:	6078      	str	r0, [r7, #4]
 8001b44:	687b      	ldr	r3, [r7, #4]
 8001b46:	f003 0307 	and.w	r3, r3, #7
 8001b4a:	60fb      	str	r3, [r7, #12]
 8001b4c:	4b0c      	ldr	r3, [pc, #48]	; (8001b80 <__NVIC_SetPriorityGrouping+0x44>)
 8001b4e:	68db      	ldr	r3, [r3, #12]
 8001b50:	60bb      	str	r3, [r7, #8]
 8001b52:	68ba      	ldr	r2, [r7, #8]
 8001b54:	f64f 03ff 	movw	r3, #63743	; 0xf8ff
 8001b58:	4013      	ands	r3, r2
 8001b5a:	60bb      	str	r3, [r7, #8]
 8001b5c:	68fb      	ldr	r3, [r7, #12]
 8001b5e:	021a      	lsls	r2, r3, #8
 8001b60:	68bb      	ldr	r3, [r7, #8]
 8001b62:	4313      	orrs	r3, r2
 8001b64:	f043 63bf 	orr.w	r3, r3, #100139008	; 0x5f80000
 8001b68:	f443 3300 	orr.w	r3, r3, #131072	; 0x20000
 8001b6c:	60bb      	str	r3, [r7, #8]
 8001b6e:	4a04      	ldr	r2, [pc, #16]	; (8001b80 <__NVIC_SetPriorityGrouping+0x44>)
 8001b70:	68bb      	ldr	r3, [r7, #8]
 8001b72:	60d3      	str	r3, [r2, #12]
 8001b74:	bf00      	nop
 8001b76:	3714      	adds	r7, #20
 8001b78:	46bd      	mov	sp, r7
 8001b7a:	f85d 7b04 	ldr.w	r7, [sp], #4
 8001b7e:	4770      	bx	lr
 8001b80:	e000ed00 	.word	0xe000ed00

08001b84 <__NVIC_GetPriorityGrouping>:
 8001b84:	b480      	push	{r7}
 8001b86:	af00      	add	r7, sp, #0
 8001b88:	4b04      	ldr	r3, [pc, #16]	; (8001b9c <__NVIC_GetPriorityGrouping+0x18>)
 8001b8a:	68db      	ldr	r3, [r3, #12]
 8001b8c:	0a1b      	lsrs	r3, r3, #8
 8001b8e:	f003 0307 	and.w	r3, r3, #7
 8001b92:	4618      	mov	r0, r3
 8001b94:	46bd      	mov	sp, r7
 8001b96:	f85d 7b04 	ldr.w	r7, [sp], #4
 8001b9a:	4770      	bx	lr
 8001b9c:	e000ed00 	.word	0xe000ed00

08001ba0 <__NVIC_EnableIRQ>:
 8001ba0:	b480      	push	{r7}
 8001ba2:	b083      	sub	sp, #12
 8001ba4:	af00      	add	r7, sp, #0
 8001ba6:	4603      	mov	r3, r0
 8001ba8:	71fb      	strb	r3, [r7, #7]
 8001baa:	f997 3007 	ldrsb.w	r3, [r7, #7]
 8001bae:	2b00      	cmp	r3, #0
 8001bb0:	db0b      	blt.n	8001bca <__NVIC_EnableIRQ+0x2a>
 8001bb2:	79fb      	ldrb	r3, [r7, #7]
 8001bb4:	f003 021f 	and.w	r2, r3, #31
 8001bb8:	4907      	ldr	r1, [pc, #28]	; (8001bd8 <__NVIC_EnableIRQ+0x38>)
 8001bba:	f997 3007 	ldrsb.w	r3, [r7, #7]
 8001bbe:	095b      	lsrs	r3, r3, #5
 8001bc0:	2001      	movs	r0, #1
 8001bc2:	fa00 f202 	lsl.w	r2, r0, r2
 8001bc6:	f841 2023 	str.w	r2, [r1, r3, lsl #2]
 8001bca:	bf00      	nop
 8001bcc:	370c      	adds	r7, #12
 8001bce:	46bd      	mov	sp, r7
 8001bd0:	f85d 7b04 	ldr.w	r7, [sp], #4
 8001bd4:	4770      	bx	lr
 8001bd6:	bf00      	nop
 8001bd8:	e000e100 	.word	0xe000e100

08001bdc <__NVIC_SetPriority>:
 8001bdc:	b480      	push	{r7}
 8001bde:	b083      	sub	sp, #12
 8001be0:	af00      	add	r7, sp, #0
 8001be2:	4603      	mov	r3, r0
 8001be4:	6039      	str	r1, [r7, #0]
 8001be6:	71fb      	strb	r3, [r7, #7]
 8001be8:	f997 3007 	ldrsb.w	r3, [r7, #7]
 8001bec:	2b00      	cmp	r3, #0
 8001bee:	db0a      	blt.n	8001c06 <__NVIC_SetPriority+0x2a>
 8001bf0:	683b      	ldr	r3, [r7, #0]
 8001bf2:	b2da      	uxtb	r2, r3
 8001bf4:	490c      	ldr	r1, [pc, #48]	; (8001c28 <__NVIC_SetPriority+0x4c>)
 8001bf6:	f997 3007 	ldrsb.w	r3, [r7, #7]
 8001bfa:	0112      	lsls	r2, r2, #4
 8001bfc:	b2d2      	uxtb	r2, r2
 8001bfe:	440b      	add	r3, r1
 8001c00:	f883 2300 	strb.w	r2, [r3, #768]	; 0x300
 8001c04:	e00a      	b.n	8001c1c <__NVIC_SetPriority+0x40>
 8001c06:	683b      	ldr	r3, [r7, #0]
 8001c08:	b2da      	uxtb	r2, r3
 8001c0a:	4908      	ldr	r1, [pc, #32]	; (8001c2c <__NVIC_SetPriority+0x50>)
 8001c0c:	79fb      	ldrb	r3, [r7, #7]
 8001c0e:	f003 030f 	and.w	r3, r3, #15
 8001c12:	3b04      	subs	r3, #4
 8001c14:	0112      	lsls	r2, r2, #4
 8001c16:	b2d2      	uxtb	r2, r2
 8001c18:	440b      	add	r3, r1
 8001c1a:	761a      	strb	r2, [r3, #24]
 8001c1c:	bf00      	nop
 8001c1e:	370c      	adds	r7, #12
 8001c20:	46bd      	mov	sp, r7
 8001c22:	f85d 7b04 	ldr.w	r7, [sp], #4
 8001c26:	4770      	bx	lr
 8001c28:	e000e100 	.word	0xe000e100
 8001c2c:	e000ed00 	.word	0xe000ed00

08001c30 <NVIC_EncodePriority>:
 8001c30:	b480      	push	{r7}
 8001c32:	b089      	sub	sp, #36	; 0x24
 8001c34:	af00      	add	r7, sp, #0
 8001c36:	60f8      	str	r0, [r7, #12]
 8001c38:	60b9      	str	r1, [r7, #8]
 8001c3a:	607a      	str	r2, [r7, #4]
 8001c3c:	68fb      	ldr	r3, [r7, #12]
 8001c3e:	f003 0307 	and.w	r3, r3, #7
 8001c42:	61fb      	str	r3, [r7, #28]
 8001c44:	69fb      	ldr	r3, [r7, #28]
 8001c46:	f1c3 0307 	rsb	r3, r3, #7
 8001c4a:	2b04      	cmp	r3, #4
 8001c4c:	bf28      	it	cs
 8001c4e:	2304      	movcs	r3, #4
 8001c50:	61bb      	str	r3, [r7, #24]
 8001c52:	69fb      	ldr	r3, [r7, #28]
 8001c54:	3304      	adds	r3, #4
 8001c56:	2b06      	cmp	r3, #6
 8001c58:	d902      	bls.n	8001c60 <NVIC_EncodePriority+0x30>
 8001c5a:	69fb      	ldr	r3, [r7, #28]
 8001c5c:	3b03      	subs	r3, #3
 8001c5e:	e000      	b.n	8001c62 <NVIC_EncodePriority+0x32>
 8001c60:	2300      	movs	r3, #0
 8001c62:	617b      	str	r3, [r7, #20]
 8001c64:	f04f 32ff 	mov.w	r2, #4294967295
 8001c68:	69bb      	ldr	r3, [r7, #24]
 8001c6a:	fa02 f303 	lsl.w	r3, r2, r3
 8001c6e:	43da      	mvns	r2, r3
 8001c70:	68bb      	ldr	r3, [r7, #8]
 8001c72:	401a      	ands	r2, r3
 8001c74:	697b      	ldr	r3, [r7, #20]
 8001c76:	409a      	lsls	r2, r3
 8001c78:	f04f 31ff 	mov.w	r1, #4294967295
 8001c7c:	697b      	ldr	r3, [r7, #20]
 8001c7e:	fa01 f303 	lsl.w	r3, r1, r3
 8001c82:	43d9      	mvns	r1, r3
 8001c84:	687b      	ldr	r3, [r7, #4]
 8001c86:	400b      	ands	r3, r1
 8001c88:	4313      	orrs	r3, r2
 8001c8a:	4618      	mov	r0, r3
 8001c8c:	3724      	adds	r7, #36	; 0x24
 8001c8e:	46bd      	mov	sp, r7
 8001c90:	f85d 7b04 	ldr.w	r7, [sp], #4
 8001c94:	4770      	bx	lr
	...

08001c98 <SysTick_Config>:
 8001c98:	b580      	push	{r7, lr}
 8001c9a:	b082      	sub	sp, #8
 8001c9c:	af00      	add	r7, sp, #0
 8001c9e:	6078      	str	r0, [r7, #4]
 8001ca0:	687b      	ldr	r3, [r7, #4]
 8001ca2:	3b01      	subs	r3, #1
 8001ca4:	f1b3 7f80 	cmp.w	r3, #16777216	; 0x1000000
 8001ca8:	d301      	bcc.n	8001cae <SysTick_Config+0x16>
 8001caa:	2301      	movs	r3, #1
 8001cac:	e00f      	b.n	8001cce <SysTick_Config+0x36>
 8001cae:	4a0a      	ldr	r2, [pc, #40]	; (8001cd8 <SysTick_Config+0x40>)
 8001cb0:	687b      	ldr	r3, [r7, #4]
 8001cb2:	3b01      	subs	r3, #1
 8001cb4:	6053      	str	r3, [r2, #4]
 8001cb6:	210f      	movs	r1, #15
 8001cb8:	f04f 30ff 	mov.w	r0, #4294967295
 8001cbc:	f7ff ff8e 	bl	8001bdc <__NVIC_SetPriority>
 8001cc0:	4b05      	ldr	r3, [pc, #20]	; (8001cd8 <SysTick_Config+0x40>)
 8001cc2:	2200      	movs	r2, #0
 8001cc4:	609a      	str	r2, [r3, #8]
 8001cc6:	4b04      	ldr	r3, [pc, #16]	; (8001cd8 <SysTick_Config+0x40>)
 8001cc8:	2207      	movs	r2, #7
 8001cca:	601a      	str	r2, [r3, #0]
 8001ccc:	2300      	movs	r3, #0
 8001cce:	4618      	mov	r0, r3
 8001cd0:	3708      	adds	r7, #8
 8001cd2:	46bd      	mov	sp, r7
 8001cd4:	bd80      	pop	{r7, pc}
 8001cd6:	bf00      	nop
 8001cd8:	e000e010 	.word	0xe000e010

08001cdc <HAL_NVIC_SetPriorityGrouping>:
 8001cdc:	b580      	push	{r7, lr}
 8001cde:	b082      	sub	sp, #8
 8001ce0:	af00      	add	r7, sp, #0
 8001ce2:	6078      	str	r0, [r7, #4]
 8001ce4:	6878      	ldr	r0, [r7, #4]
 8001ce6:	f7ff ff29 	bl	8001b3c <__NVIC_SetPriorityGrouping>
 8001cea:	bf00      	nop
 8001cec:	3708      	adds	r7, #8
 8001cee:	46bd      	mov	sp, r7
 8001cf0:	bd80      	pop	{r7, pc}

08001cf2 <HAL_NVIC_SetPriority>:
 8001cf2:	b580      	push	{r7, lr}
 8001cf4:	b086      	sub	sp, #24
 8001cf6:	af00      	add	r7, sp, #0
 8001cf8:	4603      	mov	r3, r0
 8001cfa:	60b9      	str	r1, [r7, #8]
 8001cfc:	607a      	str	r2, [r7, #4]
 8001cfe:	73fb      	strb	r3, [r7, #15]
 8001d00:	2300      	movs	r3, #0
 8001d02:	617b      	str	r3, [r7, #20]
 8001d04:	f7ff ff3e 	bl	8001b84 <__NVIC_GetPriorityGrouping>
 8001d08:	6178      	str	r0, [r7, #20]
 8001d0a:	687a      	ldr	r2, [r7, #4]
 8001d0c:	68b9      	ldr	r1, [r7, #8]
 8001d0e:	6978      	ldr	r0, [r7, #20]
 8001d10:	f7ff ff8e 	bl	8001c30 <NVIC_EncodePriority>
 8001d14:	4602      	mov	r2, r0
 8001d16:	f997 300f 	ldrsb.w	r3, [r7, #15]
 8001d1a:	4611      	mov	r1, r2
 8001d1c:	4618      	mov	r0, r3
 8001d1e:	f7ff ff5d 	bl	8001bdc <__NVIC_SetPriority>
 8001d22:	bf00      	nop
 8001d24:	3718      	adds	r7, #24
 8001d26:	46bd      	mov	sp, r7
 8001d28:	bd80      	pop	{r7, pc}

08001d2a <HAL_NVIC_EnableIRQ>:
 8001d2a:	b580      	push	{r7, lr}
 8001d2c:	b082      	sub	sp, #8
 8001d2e:	af00      	add	r7, sp, #0
 8001d30:	4603      	mov	r3, r0
 8001d32:	71fb      	strb	r3, [r7, #7]
 8001d34:	f997 3007 	ldrsb.w	r3, [r7, #7]
 8001d38:	4618      	mov	r0, r3
 8001d3a:	f7ff ff31 	bl	8001ba0 <__NVIC_EnableIRQ>
 8001d3e:	bf00      	nop
 8001d40:	3708      	adds	r7, #8
 8001d42:	46bd      	mov	sp, r7
 8001d44:	bd80      	pop	{r7, pc}

08001d46 <HAL_SYSTICK_Config>:
 8001d46:	b580      	push	{r7, lr}
 8001d48:	b082      	sub	sp, #8
 8001d4a:	af00      	add	r7, sp, #0
 8001d4c:	6078      	str	r0, [r7, #4]
 8001d4e:	6878      	ldr	r0, [r7, #4]
 8001d50:	f7ff ffa2 	bl	8001c98 <SysTick_Config>
 8001d54:	4603      	mov	r3, r0
 8001d56:	4618      	mov	r0, r3
 8001d58:	3708      	adds	r7, #8
 8001d5a:	46bd      	mov	sp, r7
 8001d5c:	bd80      	pop	{r7, pc}
	...

08001d60 <HAL_DMA_Init>:
 8001d60:	b580      	push	{r7, lr}
 8001d62:	b086      	sub	sp, #24
 8001d64:	af00      	add	r7, sp, #0
 8001d66:	6078      	str	r0, [r7, #4]
 8001d68:	2300      	movs	r3, #0
 8001d6a:	617b      	str	r3, [r7, #20]
 8001d6c:	f7ff fb00 	bl	8001370 <HAL_GetTick>
 8001d70:	6138      	str	r0, [r7, #16]
 8001d72:	687b      	ldr	r3, [r7, #4]
 8001d74:	2b00      	cmp	r3, #0
 8001d76:	d101      	bne.n	8001d7c <HAL_DMA_Init+0x1c>
 8001d78:	2301      	movs	r3, #1
 8001d7a:	e099      	b.n	8001eb0 <HAL_DMA_Init+0x150>
 8001d7c:	687b      	ldr	r3, [r7, #4]
 8001d7e:	2200      	movs	r2, #0
 8001d80:	f883 2034 	strb.w	r2, [r3, #52]	; 0x34
 8001d84:	687b      	ldr	r3, [r7, #4]
 8001d86:	2202      	movs	r2, #2
 8001d88:	f883 2035 	strb.w	r2, [r3, #53]	; 0x35
 8001d8c:	687b      	ldr	r3, [r7, #4]
 8001d8e:	681b      	ldr	r3, [r3, #0]
 8001d90:	681a      	ldr	r2, [r3, #0]
 8001d92:	687b      	ldr	r3, [r7, #4]
 8001d94:	681b      	ldr	r3, [r3, #0]
 8001d96:	f022 0201 	bic.w	r2, r2, #1
 8001d9a:	601a      	str	r2, [r3, #0]
 8001d9c:	e00f      	b.n	8001dbe <HAL_DMA_Init+0x5e>
 8001d9e:	f7ff fae7 	bl	8001370 <HAL_GetTick>
 8001da2:	4602      	mov	r2, r0
 8001da4:	693b      	ldr	r3, [r7, #16]
 8001da6:	1ad3      	subs	r3, r2, r3
 8001da8:	2b05      	cmp	r3, #5
 8001daa:	d908      	bls.n	8001dbe <HAL_DMA_Init+0x5e>
 8001dac:	687b      	ldr	r3, [r7, #4]
 8001dae:	2220      	movs	r2, #32
 8001db0:	655a      	str	r2, [r3, #84]	; 0x54
 8001db2:	687b      	ldr	r3, [r7, #4]
 8001db4:	2203      	movs	r2, #3
 8001db6:	f883 2035 	strb.w	r2, [r3, #53]	; 0x35
 8001dba:	2303      	movs	r3, #3
 8001dbc:	e078      	b.n	8001eb0 <HAL_DMA_Init+0x150>
 8001dbe:	687b      	ldr	r3, [r7, #4]
 8001dc0:	681b      	ldr	r3, [r3, #0]
 8001dc2:	681b      	ldr	r3, [r3, #0]
 8001dc4:	f003 0301 	and.w	r3, r3, #1
 8001dc8:	2b00      	cmp	r3, #0
 8001dca:	d1e8      	bne.n	8001d9e <HAL_DMA_Init+0x3e>
 8001dcc:	687b      	ldr	r3, [r7, #4]
 8001dce:	681b      	ldr	r3, [r3, #0]
 8001dd0:	681b      	ldr	r3, [r3, #0]
 8001dd2:	617b      	str	r3, [r7, #20]
 8001dd4:	697a      	ldr	r2, [r7, #20]
 8001dd6:	4b38      	ldr	r3, [pc, #224]	; (8001eb8 <HAL_DMA_Init+0x158>)
 8001dd8:	4013      	ands	r3, r2
 8001dda:	617b      	str	r3, [r7, #20]
 8001ddc:	687b      	ldr	r3, [r7, #4]
 8001dde:	685a      	ldr	r2, [r3, #4]
 8001de0:	687b      	ldr	r3, [r7, #4]
 8001de2:	689b      	ldr	r3, [r3, #8]
 8001de4:	431a      	orrs	r2, r3
 8001de6:	687b      	ldr	r3, [r7, #4]
 8001de8:	68db      	ldr	r3, [r3, #12]
 8001dea:	431a      	orrs	r2, r3
 8001dec:	687b      	ldr	r3, [r7, #4]
 8001dee:	691b      	ldr	r3, [r3, #16]
 8001df0:	431a      	orrs	r2, r3
 8001df2:	687b      	ldr	r3, [r7, #4]
 8001df4:	695b      	ldr	r3, [r3, #20]
 8001df6:	431a      	orrs	r2, r3
 8001df8:	687b      	ldr	r3, [r7, #4]
 8001dfa:	699b      	ldr	r3, [r3, #24]
 8001dfc:	431a      	orrs	r2, r3
 8001dfe:	687b      	ldr	r3, [r7, #4]
 8001e00:	69db      	ldr	r3, [r3, #28]
 8001e02:	431a      	orrs	r2, r3
 8001e04:	687b      	ldr	r3, [r7, #4]
 8001e06:	6a1b      	ldr	r3, [r3, #32]
 8001e08:	4313      	orrs	r3, r2
 8001e0a:	697a      	ldr	r2, [r7, #20]
 8001e0c:	4313      	orrs	r3, r2
 8001e0e:	617b      	str	r3, [r7, #20]
 8001e10:	687b      	ldr	r3, [r7, #4]
 8001e12:	6a5b      	ldr	r3, [r3, #36]	; 0x24
 8001e14:	2b04      	cmp	r3, #4
 8001e16:	d107      	bne.n	8001e28 <HAL_DMA_Init+0xc8>
 8001e18:	687b      	ldr	r3, [r7, #4]
 8001e1a:	6ada      	ldr	r2, [r3, #44]	; 0x2c
 8001e1c:	687b      	ldr	r3, [r7, #4]
 8001e1e:	6b1b      	ldr	r3, [r3, #48]	; 0x30
 8001e20:	4313      	orrs	r3, r2
 8001e22:	697a      	ldr	r2, [r7, #20]
 8001e24:	4313      	orrs	r3, r2
 8001e26:	617b      	str	r3, [r7, #20]
 8001e28:	687b      	ldr	r3, [r7, #4]
 8001e2a:	681b      	ldr	r3, [r3, #0]
 8001e2c:	697a      	ldr	r2, [r7, #20]
 8001e2e:	601a      	str	r2, [r3, #0]
 8001e30:	687b      	ldr	r3, [r7, #4]
 8001e32:	681b      	ldr	r3, [r3, #0]
 8001e34:	695b      	ldr	r3, [r3, #20]
 8001e36:	617b      	str	r3, [r7, #20]
 8001e38:	697b      	ldr	r3, [r7, #20]
 8001e3a:	f023 0307 	bic.w	r3, r3, #7
 8001e3e:	617b      	str	r3, [r7, #20]
 8001e40:	687b      	ldr	r3, [r7, #4]
 8001e42:	6a5b      	ldr	r3, [r3, #36]	; 0x24
 8001e44:	697a      	ldr	r2, [r7, #20]
 8001e46:	4313      	orrs	r3, r2
 8001e48:	617b      	str	r3, [r7, #20]
 8001e4a:	687b      	ldr	r3, [r7, #4]
 8001e4c:	6a5b      	ldr	r3, [r3, #36]	; 0x24
 8001e4e:	2b04      	cmp	r3, #4
 8001e50:	d117      	bne.n	8001e82 <HAL_DMA_Init+0x122>
 8001e52:	687b      	ldr	r3, [r7, #4]
 8001e54:	6a9b      	ldr	r3, [r3, #40]	; 0x28
 8001e56:	697a      	ldr	r2, [r7, #20]
 8001e58:	4313      	orrs	r3, r2
 8001e5a:	617b      	str	r3, [r7, #20]
 8001e5c:	687b      	ldr	r3, [r7, #4]
 8001e5e:	6adb      	ldr	r3, [r3, #44]	; 0x2c
 8001e60:	2b00      	cmp	r3, #0
 8001e62:	d00e      	beq.n	8001e82 <HAL_DMA_Init+0x122>
 8001e64:	6878      	ldr	r0, [r7, #4]
 8001e66:	f000 fa91 	bl	800238c <DMA_CheckFifoParam>
 8001e6a:	4603      	mov	r3, r0
 8001e6c:	2b00      	cmp	r3, #0
 8001e6e:	d008      	beq.n	8001e82 <HAL_DMA_Init+0x122>
 8001e70:	687b      	ldr	r3, [r7, #4]
 8001e72:	2240      	movs	r2, #64	; 0x40
 8001e74:	655a      	str	r2, [r3, #84]	; 0x54
 8001e76:	687b      	ldr	r3, [r7, #4]
 8001e78:	2201      	movs	r2, #1
 8001e7a:	f883 2035 	strb.w	r2, [r3, #53]	; 0x35
 8001e7e:	2301      	movs	r3, #1
 8001e80:	e016      	b.n	8001eb0 <HAL_DMA_Init+0x150>
 8001e82:	687b      	ldr	r3, [r7, #4]
 8001e84:	681b      	ldr	r3, [r3, #0]
 8001e86:	697a      	ldr	r2, [r7, #20]
 8001e88:	615a      	str	r2, [r3, #20]
 8001e8a:	6878      	ldr	r0, [r7, #4]
 8001e8c:	f000 fa48 	bl	8002320 <DMA_CalcBaseAndBitshift>
 8001e90:	4603      	mov	r3, r0
 8001e92:	60fb      	str	r3, [r7, #12]
 8001e94:	687b      	ldr	r3, [r7, #4]
 8001e96:	6ddb      	ldr	r3, [r3, #92]	; 0x5c
 8001e98:	223f      	movs	r2, #63	; 0x3f
 8001e9a:	409a      	lsls	r2, r3
 8001e9c:	68fb      	ldr	r3, [r7, #12]
 8001e9e:	609a      	str	r2, [r3, #8]
 8001ea0:	687b      	ldr	r3, [r7, #4]
 8001ea2:	2200      	movs	r2, #0
 8001ea4:	655a      	str	r2, [r3, #84]	; 0x54
 8001ea6:	687b      	ldr	r3, [r7, #4]
 8001ea8:	2201      	movs	r2, #1
 8001eaa:	f883 2035 	strb.w	r2, [r3, #53]	; 0x35
 8001eae:	2300      	movs	r3, #0
 8001eb0:	4618      	mov	r0, r3
 8001eb2:	3718      	adds	r7, #24
 8001eb4:	46bd      	mov	sp, r7
 8001eb6:	bd80      	pop	{r7, pc}
 8001eb8:	f010803f 	.word	0xf010803f

08001ebc <HAL_DMA_Start_IT>:
 8001ebc:	b580      	push	{r7, lr}
 8001ebe:	b086      	sub	sp, #24
 8001ec0:	af00      	add	r7, sp, #0
 8001ec2:	60f8      	str	r0, [r7, #12]
 8001ec4:	60b9      	str	r1, [r7, #8]
 8001ec6:	607a      	str	r2, [r7, #4]
 8001ec8:	603b      	str	r3, [r7, #0]
 8001eca:	2300      	movs	r3, #0
 8001ecc:	75fb      	strb	r3, [r7, #23]
 8001ece:	68fb      	ldr	r3, [r7, #12]
 8001ed0:	6d9b      	ldr	r3, [r3, #88]	; 0x58
 8001ed2:	613b      	str	r3, [r7, #16]
 8001ed4:	68fb      	ldr	r3, [r7, #12]
 8001ed6:	f893 3034 	ldrb.w	r3, [r3, #52]	; 0x34
 8001eda:	2b01      	cmp	r3, #1
 8001edc:	d101      	bne.n	8001ee2 <HAL_DMA_Start_IT+0x26>
 8001ede:	2302      	movs	r3, #2
 8001ee0:	e040      	b.n	8001f64 <HAL_DMA_Start_IT+0xa8>
 8001ee2:	68fb      	ldr	r3, [r7, #12]
 8001ee4:	2201      	movs	r2, #1
 8001ee6:	f883 2034 	strb.w	r2, [r3, #52]	; 0x34
 8001eea:	68fb      	ldr	r3, [r7, #12]
 8001eec:	f893 3035 	ldrb.w	r3, [r3, #53]	; 0x35
 8001ef0:	b2db      	uxtb	r3, r3
 8001ef2:	2b01      	cmp	r3, #1
 8001ef4:	d12f      	bne.n	8001f56 <HAL_DMA_Start_IT+0x9a>
 8001ef6:	68fb      	ldr	r3, [r7, #12]
 8001ef8:	2202      	movs	r2, #2
 8001efa:	f883 2035 	strb.w	r2, [r3, #53]	; 0x35
 8001efe:	68fb      	ldr	r3, [r7, #12]
 8001f00:	2200      	movs	r2, #0
 8001f02:	655a      	str	r2, [r3, #84]	; 0x54
 8001f04:	683b      	ldr	r3, [r7, #0]
 8001f06:	687a      	ldr	r2, [r7, #4]
 8001f08:	68b9      	ldr	r1, [r7, #8]
 8001f0a:	68f8      	ldr	r0, [r7, #12]
 8001f0c:	f000 f9da 	bl	80022c4 <DMA_SetConfig>
 8001f10:	68fb      	ldr	r3, [r7, #12]
 8001f12:	6ddb      	ldr	r3, [r3, #92]	; 0x5c
 8001f14:	223f      	movs	r2, #63	; 0x3f
 8001f16:	409a      	lsls	r2, r3
 8001f18:	693b      	ldr	r3, [r7, #16]
 8001f1a:	609a      	str	r2, [r3, #8]
 8001f1c:	68fb      	ldr	r3, [r7, #12]
 8001f1e:	681b      	ldr	r3, [r3, #0]
 8001f20:	681a      	ldr	r2, [r3, #0]
 8001f22:	68fb      	ldr	r3, [r7, #12]
 8001f24:	681b      	ldr	r3, [r3, #0]
 8001f26:	f042 0216 	orr.w	r2, r2, #22
 8001f2a:	601a      	str	r2, [r3, #0]
 8001f2c:	68fb      	ldr	r3, [r7, #12]
 8001f2e:	6c1b      	ldr	r3, [r3, #64]	; 0x40
 8001f30:	2b00      	cmp	r3, #0
 8001f32:	d007      	beq.n	8001f44 <HAL_DMA_Start_IT+0x88>
 8001f34:	68fb      	ldr	r3, [r7, #12]
 8001f36:	681b      	ldr	r3, [r3, #0]
 8001f38:	681a      	ldr	r2, [r3, #0]
 8001f3a:	68fb      	ldr	r3, [r7, #12]
 8001f3c:	681b      	ldr	r3, [r3, #0]
 8001f3e:	f042 0208 	orr.w	r2, r2, #8
 8001f42:	601a      	str	r2, [r3, #0]
 8001f44:	68fb      	ldr	r3, [r7, #12]
 8001f46:	681b      	ldr	r3, [r3, #0]
 8001f48:	681a      	ldr	r2, [r3, #0]
 8001f4a:	68fb      	ldr	r3, [r7, #12]
 8001f4c:	681b      	ldr	r3, [r3, #0]
 8001f4e:	f042 0201 	orr.w	r2, r2, #1
 8001f52:	601a      	str	r2, [r3, #0]
 8001f54:	e005      	b.n	8001f62 <HAL_DMA_Start_IT+0xa6>
 8001f56:	68fb      	ldr	r3, [r7, #12]
 8001f58:	2200      	movs	r2, #0
 8001f5a:	f883 2034 	strb.w	r2, [r3, #52]	; 0x34
 8001f5e:	2302      	movs	r3, #2
 8001f60:	75fb      	strb	r3, [r7, #23]
 8001f62:	7dfb      	ldrb	r3, [r7, #23]
 8001f64:	4618      	mov	r0, r3
 8001f66:	3718      	adds	r7, #24
 8001f68:	46bd      	mov	sp, r7
 8001f6a:	bd80      	pop	{r7, pc}

08001f6c <HAL_DMA_Abort_IT>:
 8001f6c:	b480      	push	{r7}
 8001f6e:	b083      	sub	sp, #12
 8001f70:	af00      	add	r7, sp, #0
 8001f72:	6078      	str	r0, [r7, #4]
 8001f74:	687b      	ldr	r3, [r7, #4]
 8001f76:	f893 3035 	ldrb.w	r3, [r3, #53]	; 0x35
 8001f7a:	b2db      	uxtb	r3, r3
 8001f7c:	2b02      	cmp	r3, #2
 8001f7e:	d004      	beq.n	8001f8a <HAL_DMA_Abort_IT+0x1e>
 8001f80:	687b      	ldr	r3, [r7, #4]
 8001f82:	2280      	movs	r2, #128	; 0x80
 8001f84:	655a      	str	r2, [r3, #84]	; 0x54
 8001f86:	2301      	movs	r3, #1
 8001f88:	e00c      	b.n	8001fa4 <HAL_DMA_Abort_IT+0x38>
 8001f8a:	687b      	ldr	r3, [r7, #4]
 8001f8c:	2205      	movs	r2, #5
 8001f8e:	f883 2035 	strb.w	r2, [r3, #53]	; 0x35
 8001f92:	687b      	ldr	r3, [r7, #4]
 8001f94:	681b      	ldr	r3, [r3, #0]
 8001f96:	681a      	ldr	r2, [r3, #0]
 8001f98:	687b      	ldr	r3, [r7, #4]
 8001f9a:	681b      	ldr	r3, [r3, #0]
 8001f9c:	f022 0201 	bic.w	r2, r2, #1
 8001fa0:	601a      	str	r2, [r3, #0]
 8001fa2:	2300      	movs	r3, #0
 8001fa4:	4618      	mov	r0, r3
 8001fa6:	370c      	adds	r7, #12
 8001fa8:	46bd      	mov	sp, r7
 8001faa:	f85d 7b04 	ldr.w	r7, [sp], #4
 8001fae:	4770      	bx	lr

08001fb0 <HAL_DMA_IRQHandler>:
 8001fb0:	b580      	push	{r7, lr}
 8001fb2:	b086      	sub	sp, #24
 8001fb4:	af00      	add	r7, sp, #0
 8001fb6:	6078      	str	r0, [r7, #4]
 8001fb8:	2300      	movs	r3, #0
 8001fba:	60bb      	str	r3, [r7, #8]
 8001fbc:	4b92      	ldr	r3, [pc, #584]	; (8002208 <HAL_DMA_IRQHandler+0x258>)
 8001fbe:	681b      	ldr	r3, [r3, #0]
 8001fc0:	4a92      	ldr	r2, [pc, #584]	; (800220c <HAL_DMA_IRQHandler+0x25c>)
 8001fc2:	fba2 2303 	umull	r2, r3, r2, r3
 8001fc6:	0a9b      	lsrs	r3, r3, #10
 8001fc8:	617b      	str	r3, [r7, #20]
 8001fca:	687b      	ldr	r3, [r7, #4]
 8001fcc:	6d9b      	ldr	r3, [r3, #88]	; 0x58
 8001fce:	613b      	str	r3, [r7, #16]
 8001fd0:	693b      	ldr	r3, [r7, #16]
 8001fd2:	681b      	ldr	r3, [r3, #0]
 8001fd4:	60fb      	str	r3, [r7, #12]
 8001fd6:	687b      	ldr	r3, [r7, #4]
 8001fd8:	6ddb      	ldr	r3, [r3, #92]	; 0x5c
 8001fda:	2208      	movs	r2, #8
 8001fdc:	409a      	lsls	r2, r3
 8001fde:	68fb      	ldr	r3, [r7, #12]
 8001fe0:	4013      	ands	r3, r2
 8001fe2:	2b00      	cmp	r3, #0
 8001fe4:	d01a      	beq.n	800201c <HAL_DMA_IRQHandler+0x6c>
 8001fe6:	687b      	ldr	r3, [r7, #4]
 8001fe8:	681b      	ldr	r3, [r3, #0]
 8001fea:	681b      	ldr	r3, [r3, #0]
 8001fec:	f003 0304 	and.w	r3, r3, #4
 8001ff0:	2b00      	cmp	r3, #0
 8001ff2:	d013      	beq.n	800201c <HAL_DMA_IRQHandler+0x6c>
 8001ff4:	687b      	ldr	r3, [r7, #4]
 8001ff6:	681b      	ldr	r3, [r3, #0]
 8001ff8:	681a      	ldr	r2, [r3, #0]
 8001ffa:	687b      	ldr	r3, [r7, #4]
 8001ffc:	681b      	ldr	r3, [r3, #0]
 8001ffe:	f022 0204 	bic.w	r2, r2, #4
 8002002:	601a      	str	r2, [r3, #0]
 8002004:	687b      	ldr	r3, [r7, #4]
 8002006:	6ddb      	ldr	r3, [r3, #92]	; 0x5c
 8002008:	2208      	movs	r2, #8
 800200a:	409a      	lsls	r2, r3
 800200c:	693b      	ldr	r3, [r7, #16]
 800200e:	609a      	str	r2, [r3, #8]
 8002010:	687b      	ldr	r3, [r7, #4]
 8002012:	6d5b      	ldr	r3, [r3, #84]	; 0x54
 8002014:	f043 0201 	orr.w	r2, r3, #1
 8002018:	687b      	ldr	r3, [r7, #4]
 800201a:	655a      	str	r2, [r3, #84]	; 0x54
 800201c:	687b      	ldr	r3, [r7, #4]
 800201e:	6ddb      	ldr	r3, [r3, #92]	; 0x5c
 8002020:	2201      	movs	r2, #1
 8002022:	409a      	lsls	r2, r3
 8002024:	68fb      	ldr	r3, [r7, #12]
 8002026:	4013      	ands	r3, r2
 8002028:	2b00      	cmp	r3, #0
 800202a:	d012      	beq.n	8002052 <HAL_DMA_IRQHandler+0xa2>
 800202c:	687b      	ldr	r3, [r7, #4]
 800202e:	681b      	ldr	r3, [r3, #0]
 8002030:	695b      	ldr	r3, [r3, #20]
 8002032:	f003 0380 	and.w	r3, r3, #128	; 0x80
 8002036:	2b00      	cmp	r3, #0
 8002038:	d00b      	beq.n	8002052 <HAL_DMA_IRQHandler+0xa2>
 800203a:	687b      	ldr	r3, [r7, #4]
 800203c:	6ddb      	ldr	r3, [r3, #92]	; 0x5c
 800203e:	2201      	movs	r2, #1
 8002040:	409a      	lsls	r2, r3
 8002042:	693b      	ldr	r3, [r7, #16]
 8002044:	609a      	str	r2, [r3, #8]
 8002046:	687b      	ldr	r3, [r7, #4]
 8002048:	6d5b      	ldr	r3, [r3, #84]	; 0x54
 800204a:	f043 0202 	orr.w	r2, r3, #2
 800204e:	687b      	ldr	r3, [r7, #4]
 8002050:	655a      	str	r2, [r3, #84]	; 0x54
 8002052:	687b      	ldr	r3, [r7, #4]
 8002054:	6ddb      	ldr	r3, [r3, #92]	; 0x5c
 8002056:	2204      	movs	r2, #4
 8002058:	409a      	lsls	r2, r3
 800205a:	68fb      	ldr	r3, [r7, #12]
 800205c:	4013      	ands	r3, r2
 800205e:	2b00      	cmp	r3, #0
 8002060:	d012      	beq.n	8002088 <HAL_DMA_IRQHandler+0xd8>
 8002062:	687b      	ldr	r3, [r7, #4]
 8002064:	681b      	ldr	r3, [r3, #0]
 8002066:	681b      	ldr	r3, [r3, #0]
 8002068:	f003 0302 	and.w	r3, r3, #2
 800206c:	2b00      	cmp	r3, #0
 800206e:	d00b      	beq.n	8002088 <HAL_DMA_IRQHandler+0xd8>
 8002070:	687b      	ldr	r3, [r7, #4]
 8002072:	6ddb      	ldr	r3, [r3, #92]	; 0x5c
 8002074:	2204      	movs	r2, #4
 8002076:	409a      	lsls	r2, r3
 8002078:	693b      	ldr	r3, [r7, #16]
 800207a:	609a      	str	r2, [r3, #8]
 800207c:	687b      	ldr	r3, [r7, #4]
 800207e:	6d5b      	ldr	r3, [r3, #84]	; 0x54
 8002080:	f043 0204 	orr.w	r2, r3, #4
 8002084:	687b      	ldr	r3, [r7, #4]
 8002086:	655a      	str	r2, [r3, #84]	; 0x54
 8002088:	687b      	ldr	r3, [r7, #4]
 800208a:	6ddb      	ldr	r3, [r3, #92]	; 0x5c
 800208c:	2210      	movs	r2, #16
 800208e:	409a      	lsls	r2, r3
 8002090:	68fb      	ldr	r3, [r7, #12]
 8002092:	4013      	ands	r3, r2
 8002094:	2b00      	cmp	r3, #0
 8002096:	d043      	beq.n	8002120 <HAL_DMA_IRQHandler+0x170>
 8002098:	687b      	ldr	r3, [r7, #4]
 800209a:	681b      	ldr	r3, [r3, #0]
 800209c:	681b      	ldr	r3, [r3, #0]
 800209e:	f003 0308 	and.w	r3, r3, #8
 80020a2:	2b00      	cmp	r3, #0
 80020a4:	d03c      	beq.n	8002120 <HAL_DMA_IRQHandler+0x170>
 80020a6:	687b      	ldr	r3, [r7, #4]
 80020a8:	6ddb      	ldr	r3, [r3, #92]	; 0x5c
 80020aa:	2210      	movs	r2, #16
 80020ac:	409a      	lsls	r2, r3
 80020ae:	693b      	ldr	r3, [r7, #16]
 80020b0:	609a      	str	r2, [r3, #8]
 80020b2:	687b      	ldr	r3, [r7, #4]
 80020b4:	681b      	ldr	r3, [r3, #0]
 80020b6:	681b      	ldr	r3, [r3, #0]
 80020b8:	f403 2380 	and.w	r3, r3, #262144	; 0x40000
 80020bc:	2b00      	cmp	r3, #0
 80020be:	d018      	beq.n	80020f2 <HAL_DMA_IRQHandler+0x142>
 80020c0:	687b      	ldr	r3, [r7, #4]
 80020c2:	681b      	ldr	r3, [r3, #0]
 80020c4:	681b      	ldr	r3, [r3, #0]
 80020c6:	f403 2300 	and.w	r3, r3, #524288	; 0x80000
 80020ca:	2b00      	cmp	r3, #0
 80020cc:	d108      	bne.n	80020e0 <HAL_DMA_IRQHandler+0x130>
 80020ce:	687b      	ldr	r3, [r7, #4]
 80020d0:	6c1b      	ldr	r3, [r3, #64]	; 0x40
 80020d2:	2b00      	cmp	r3, #0
 80020d4:	d024      	beq.n	8002120 <HAL_DMA_IRQHandler+0x170>
 80020d6:	687b      	ldr	r3, [r7, #4]
 80020d8:	6c1b      	ldr	r3, [r3, #64]	; 0x40
 80020da:	6878      	ldr	r0, [r7, #4]
 80020dc:	4798      	blx	r3
 80020de:	e01f      	b.n	8002120 <HAL_DMA_IRQHandler+0x170>
 80020e0:	687b      	ldr	r3, [r7, #4]
 80020e2:	6c9b      	ldr	r3, [r3, #72]	; 0x48
 80020e4:	2b00      	cmp	r3, #0
 80020e6:	d01b      	beq.n	8002120 <HAL_DMA_IRQHandler+0x170>
 80020e8:	687b      	ldr	r3, [r7, #4]
 80020ea:	6c9b      	ldr	r3, [r3, #72]	; 0x48
 80020ec:	6878      	ldr	r0, [r7, #4]
 80020ee:	4798      	blx	r3
 80020f0:	e016      	b.n	8002120 <HAL_DMA_IRQHandler+0x170>
 80020f2:	687b      	ldr	r3, [r7, #4]
 80020f4:	681b      	ldr	r3, [r3, #0]
 80020f6:	681b      	ldr	r3, [r3, #0]
 80020f8:	f403 7380 	and.w	r3, r3, #256	; 0x100
 80020fc:	2b00      	cmp	r3, #0
 80020fe:	d107      	bne.n	8002110 <HAL_DMA_IRQHandler+0x160>
 8002100:	687b      	ldr	r3, [r7, #4]
 8002102:	681b      	ldr	r3, [r3, #0]
 8002104:	681a      	ldr	r2, [r3, #0]
 8002106:	687b      	ldr	r3, [r7, #4]
 8002108:	681b      	ldr	r3, [r3, #0]
 800210a:	f022 0208 	bic.w	r2, r2, #8
 800210e:	601a      	str	r2, [r3, #0]
 8002110:	687b      	ldr	r3, [r7, #4]
 8002112:	6c1b      	ldr	r3, [r3, #64]	; 0x40
 8002114:	2b00      	cmp	r3, #0
 8002116:	d003      	beq.n	8002120 <HAL_DMA_IRQHandler+0x170>
 8002118:	687b      	ldr	r3, [r7, #4]
 800211a:	6c1b      	ldr	r3, [r3, #64]	; 0x40
 800211c:	6878      	ldr	r0, [r7, #4]
 800211e:	4798      	blx	r3
 8002120:	687b      	ldr	r3, [r7, #4]
 8002122:	6ddb      	ldr	r3, [r3, #92]	; 0x5c
 8002124:	2220      	movs	r2, #32
 8002126:	409a      	lsls	r2, r3
 8002128:	68fb      	ldr	r3, [r7, #12]
 800212a:	4013      	ands	r3, r2
 800212c:	2b00      	cmp	r3, #0
 800212e:	f000 808e 	beq.w	800224e <HAL_DMA_IRQHandler+0x29e>
 8002132:	687b      	ldr	r3, [r7, #4]
 8002134:	681b      	ldr	r3, [r3, #0]
 8002136:	681b      	ldr	r3, [r3, #0]
 8002138:	f003 0310 	and.w	r3, r3, #16
 800213c:	2b00      	cmp	r3, #0
 800213e:	f000 8086 	beq.w	800224e <HAL_DMA_IRQHandler+0x29e>
 8002142:	687b      	ldr	r3, [r7, #4]
 8002144:	6ddb      	ldr	r3, [r3, #92]	; 0x5c
 8002146:	2220      	movs	r2, #32
 8002148:	409a      	lsls	r2, r3
 800214a:	693b      	ldr	r3, [r7, #16]
 800214c:	609a      	str	r2, [r3, #8]
 800214e:	687b      	ldr	r3, [r7, #4]
 8002150:	f893 3035 	ldrb.w	r3, [r3, #53]	; 0x35
 8002154:	b2db      	uxtb	r3, r3
 8002156:	2b05      	cmp	r3, #5
 8002158:	d136      	bne.n	80021c8 <HAL_DMA_IRQHandler+0x218>
 800215a:	687b      	ldr	r3, [r7, #4]
 800215c:	681b      	ldr	r3, [r3, #0]
 800215e:	681a      	ldr	r2, [r3, #0]
 8002160:	687b      	ldr	r3, [r7, #4]
 8002162:	681b      	ldr	r3, [r3, #0]
 8002164:	f022 0216 	bic.w	r2, r2, #22
 8002168:	601a      	str	r2, [r3, #0]
 800216a:	687b      	ldr	r3, [r7, #4]
 800216c:	681b      	ldr	r3, [r3, #0]
 800216e:	695a      	ldr	r2, [r3, #20]
 8002170:	687b      	ldr	r3, [r7, #4]
 8002172:	681b      	ldr	r3, [r3, #0]
 8002174:	f022 0280 	bic.w	r2, r2, #128	; 0x80
 8002178:	615a      	str	r2, [r3, #20]
 800217a:	687b      	ldr	r3, [r7, #4]
 800217c:	6c1b      	ldr	r3, [r3, #64]	; 0x40
 800217e:	2b00      	cmp	r3, #0
 8002180:	d103      	bne.n	800218a <HAL_DMA_IRQHandler+0x1da>
 8002182:	687b      	ldr	r3, [r7, #4]
 8002184:	6c9b      	ldr	r3, [r3, #72]	; 0x48
 8002186:	2b00      	cmp	r3, #0
 8002188:	d007      	beq.n	800219a <HAL_DMA_IRQHandler+0x1ea>
 800218a:	687b      	ldr	r3, [r7, #4]
 800218c:	681b      	ldr	r3, [r3, #0]
 800218e:	681a      	ldr	r2, [r3, #0]
 8002190:	687b      	ldr	r3, [r7, #4]
 8002192:	681b      	ldr	r3, [r3, #0]
 8002194:	f022 0208 	bic.w	r2, r2, #8
 8002198:	601a      	str	r2, [r3, #0]
 800219a:	687b      	ldr	r3, [r7, #4]
 800219c:	6ddb      	ldr	r3, [r3, #92]	; 0x5c
 800219e:	223f      	movs	r2, #63	; 0x3f
 80021a0:	409a      	lsls	r2, r3
 80021a2:	693b      	ldr	r3, [r7, #16]
 80021a4:	609a      	str	r2, [r3, #8]
 80021a6:	687b      	ldr	r3, [r7, #4]
 80021a8:	2200      	movs	r2, #0
 80021aa:	f883 2034 	strb.w	r2, [r3, #52]	; 0x34
 80021ae:	687b      	ldr	r3, [r7, #4]
 80021b0:	2201      	movs	r2, #1
 80021b2:	f883 2035 	strb.w	r2, [r3, #53]	; 0x35
 80021b6:	687b      	ldr	r3, [r7, #4]
 80021b8:	6d1b      	ldr	r3, [r3, #80]	; 0x50
 80021ba:	2b00      	cmp	r3, #0
 80021bc:	d07d      	beq.n	80022ba <HAL_DMA_IRQHandler+0x30a>
 80021be:	687b      	ldr	r3, [r7, #4]
 80021c0:	6d1b      	ldr	r3, [r3, #80]	; 0x50
 80021c2:	6878      	ldr	r0, [r7, #4]
 80021c4:	4798      	blx	r3
 80021c6:	e078      	b.n	80022ba <HAL_DMA_IRQHandler+0x30a>
 80021c8:	687b      	ldr	r3, [r7, #4]
 80021ca:	681b      	ldr	r3, [r3, #0]
 80021cc:	681b      	ldr	r3, [r3, #0]
 80021ce:	f403 2380 	and.w	r3, r3, #262144	; 0x40000
 80021d2:	2b00      	cmp	r3, #0
 80021d4:	d01c      	beq.n	8002210 <HAL_DMA_IRQHandler+0x260>
 80021d6:	687b      	ldr	r3, [r7, #4]
 80021d8:	681b      	ldr	r3, [r3, #0]
 80021da:	681b      	ldr	r3, [r3, #0]
 80021dc:	f403 2300 	and.w	r3, r3, #524288	; 0x80000
 80021e0:	2b00      	cmp	r3, #0
 80021e2:	d108      	bne.n	80021f6 <HAL_DMA_IRQHandler+0x246>
 80021e4:	687b      	ldr	r3, [r7, #4]
 80021e6:	6c5b      	ldr	r3, [r3, #68]	; 0x44
 80021e8:	2b00      	cmp	r3, #0
 80021ea:	d030      	beq.n	800224e <HAL_DMA_IRQHandler+0x29e>
 80021ec:	687b      	ldr	r3, [r7, #4]
 80021ee:	6c5b      	ldr	r3, [r3, #68]	; 0x44
 80021f0:	6878      	ldr	r0, [r7, #4]
 80021f2:	4798      	blx	r3
 80021f4:	e02b      	b.n	800224e <HAL_DMA_IRQHandler+0x29e>
 80021f6:	687b      	ldr	r3, [r7, #4]
 80021f8:	6bdb      	ldr	r3, [r3, #60]	; 0x3c
 80021fa:	2b00      	cmp	r3, #0
 80021fc:	d027      	beq.n	800224e <HAL_DMA_IRQHandler+0x29e>
 80021fe:	687b      	ldr	r3, [r7, #4]
 8002200:	6bdb      	ldr	r3, [r3, #60]	; 0x3c
 8002202:	6878      	ldr	r0, [r7, #4]
 8002204:	4798      	blx	r3
 8002206:	e022      	b.n	800224e <HAL_DMA_IRQHandler+0x29e>
 8002208:	20000000 	.word	0x20000000
 800220c:	1b4e81b5 	.word	0x1b4e81b5
 8002210:	687b      	ldr	r3, [r7, #4]
 8002212:	681b      	ldr	r3, [r3, #0]
 8002214:	681b      	ldr	r3, [r3, #0]
 8002216:	f403 7380 	and.w	r3, r3, #256	; 0x100
 800221a:	2b00      	cmp	r3, #0
 800221c:	d10f      	bne.n	800223e <HAL_DMA_IRQHandler+0x28e>
 800221e:	687b      	ldr	r3, [r7, #4]
 8002220:	681b      	ldr	r3, [r3, #0]
 8002222:	681a      	ldr	r2, [r3, #0]
 8002224:	687b      	ldr	r3, [r7, #4]
 8002226:	681b      	ldr	r3, [r3, #0]
 8002228:	f022 0210 	bic.w	r2, r2, #16
 800222c:	601a      	str	r2, [r3, #0]
 800222e:	687b      	ldr	r3, [r7, #4]
 8002230:	2200      	movs	r2, #0
 8002232:	f883 2034 	strb.w	r2, [r3, #52]	; 0x34
 8002236:	687b      	ldr	r3, [r7, #4]
 8002238:	2201      	movs	r2, #1
 800223a:	f883 2035 	strb.w	r2, [r3, #53]	; 0x35
 800223e:	687b      	ldr	r3, [r7, #4]
 8002240:	6bdb      	ldr	r3, [r3, #60]	; 0x3c
 8002242:	2b00      	cmp	r3, #0
 8002244:	d003      	beq.n	800224e <HAL_DMA_IRQHandler+0x29e>
 8002246:	687b      	ldr	r3, [r7, #4]
 8002248:	6bdb      	ldr	r3, [r3, #60]	; 0x3c
 800224a:	6878      	ldr	r0, [r7, #4]
 800224c:	4798      	blx	r3
 800224e:	687b      	ldr	r3, [r7, #4]
 8002250:	6d5b      	ldr	r3, [r3, #84]	; 0x54
 8002252:	2b00      	cmp	r3, #0
 8002254:	d032      	beq.n	80022bc <HAL_DMA_IRQHandler+0x30c>
 8002256:	687b      	ldr	r3, [r7, #4]
 8002258:	6d5b      	ldr	r3, [r3, #84]	; 0x54
 800225a:	f003 0301 	and.w	r3, r3, #1
 800225e:	2b00      	cmp	r3, #0
 8002260:	d022      	beq.n	80022a8 <HAL_DMA_IRQHandler+0x2f8>
 8002262:	687b      	ldr	r3, [r7, #4]
 8002264:	2205      	movs	r2, #5
 8002266:	f883 2035 	strb.w	r2, [r3, #53]	; 0x35
 800226a:	687b      	ldr	r3, [r7, #4]
 800226c:	681b      	ldr	r3, [r3, #0]
 800226e:	681a      	ldr	r2, [r3, #0]
 8002270:	687b      	ldr	r3, [r7, #4]
 8002272:	681b      	ldr	r3, [r3, #0]
 8002274:	f022 0201 	bic.w	r2, r2, #1
 8002278:	601a      	str	r2, [r3, #0]
 800227a:	68bb      	ldr	r3, [r7, #8]
 800227c:	3301      	adds	r3, #1
 800227e:	60bb      	str	r3, [r7, #8]
 8002280:	697a      	ldr	r2, [r7, #20]
 8002282:	429a      	cmp	r2, r3
 8002284:	d307      	bcc.n	8002296 <HAL_DMA_IRQHandler+0x2e6>
 8002286:	687b      	ldr	r3, [r7, #4]
 8002288:	681b      	ldr	r3, [r3, #0]
 800228a:	681b      	ldr	r3, [r3, #0]
 800228c:	f003 0301 	and.w	r3, r3, #1
 8002290:	2b00      	cmp	r3, #0
 8002292:	d1f2      	bne.n	800227a <HAL_DMA_IRQHandler+0x2ca>
 8002294:	e000      	b.n	8002298 <HAL_DMA_IRQHandler+0x2e8>
 8002296:	bf00      	nop
 8002298:	687b      	ldr	r3, [r7, #4]
 800229a:	2200      	movs	r2, #0
 800229c:	f883 2034 	strb.w	r2, [r3, #52]	; 0x34
 80022a0:	687b      	ldr	r3, [r7, #4]
 80022a2:	2201      	movs	r2, #1
 80022a4:	f883 2035 	strb.w	r2, [r3, #53]	; 0x35
 80022a8:	687b      	ldr	r3, [r7, #4]
 80022aa:	6cdb      	ldr	r3, [r3, #76]	; 0x4c
 80022ac:	2b00      	cmp	r3, #0
 80022ae:	d005      	beq.n	80022bc <HAL_DMA_IRQHandler+0x30c>
 80022b0:	687b      	ldr	r3, [r7, #4]
 80022b2:	6cdb      	ldr	r3, [r3, #76]	; 0x4c
 80022b4:	6878      	ldr	r0, [r7, #4]
 80022b6:	4798      	blx	r3
 80022b8:	e000      	b.n	80022bc <HAL_DMA_IRQHandler+0x30c>
 80022ba:	bf00      	nop
 80022bc:	3718      	adds	r7, #24
 80022be:	46bd      	mov	sp, r7
 80022c0:	bd80      	pop	{r7, pc}
 80022c2:	bf00      	nop

080022c4 <DMA_SetConfig>:
 80022c4:	b480      	push	{r7}
 80022c6:	b085      	sub	sp, #20
 80022c8:	af00      	add	r7, sp, #0
 80022ca:	60f8      	str	r0, [r7, #12]
 80022cc:	60b9      	str	r1, [r7, #8]
 80022ce:	607a      	str	r2, [r7, #4]
 80022d0:	603b      	str	r3, [r7, #0]
 80022d2:	68fb      	ldr	r3, [r7, #12]
 80022d4:	681b      	ldr	r3, [r3, #0]
 80022d6:	681a      	ldr	r2, [r3, #0]
 80022d8:	68fb      	ldr	r3, [r7, #12]
 80022da:	681b      	ldr	r3, [r3, #0]
 80022dc:	f422 2280 	bic.w	r2, r2, #262144	; 0x40000
 80022e0:	601a      	str	r2, [r3, #0]
 80022e2:	68fb      	ldr	r3, [r7, #12]
 80022e4:	681b      	ldr	r3, [r3, #0]
 80022e6:	683a      	ldr	r2, [r7, #0]
 80022e8:	605a      	str	r2, [r3, #4]
 80022ea:	68fb      	ldr	r3, [r7, #12]
 80022ec:	689b      	ldr	r3, [r3, #8]
 80022ee:	2b40      	cmp	r3, #64	; 0x40
 80022f0:	d108      	bne.n	8002304 <DMA_SetConfig+0x40>
 80022f2:	68fb      	ldr	r3, [r7, #12]
 80022f4:	681b      	ldr	r3, [r3, #0]
 80022f6:	687a      	ldr	r2, [r7, #4]
 80022f8:	609a      	str	r2, [r3, #8]
 80022fa:	68fb      	ldr	r3, [r7, #12]
 80022fc:	681b      	ldr	r3, [r3, #0]
 80022fe:	68ba      	ldr	r2, [r7, #8]
 8002300:	60da      	str	r2, [r3, #12]
 8002302:	e007      	b.n	8002314 <DMA_SetConfig+0x50>
 8002304:	68fb      	ldr	r3, [r7, #12]
 8002306:	681b      	ldr	r3, [r3, #0]
 8002308:	68ba      	ldr	r2, [r7, #8]
 800230a:	609a      	str	r2, [r3, #8]
 800230c:	68fb      	ldr	r3, [r7, #12]
 800230e:	681b      	ldr	r3, [r3, #0]
 8002310:	687a      	ldr	r2, [r7, #4]
 8002312:	60da      	str	r2, [r3, #12]
 8002314:	bf00      	nop
 8002316:	3714      	adds	r7, #20
 8002318:	46bd      	mov	sp, r7
 800231a:	f85d 7b04 	ldr.w	r7, [sp], #4
 800231e:	4770      	bx	lr

08002320 <DMA_CalcBaseAndBitshift>:
 8002320:	b480      	push	{r7}
 8002322:	b085      	sub	sp, #20
 8002324:	af00      	add	r7, sp, #0
 8002326:	6078      	str	r0, [r7, #4]
 8002328:	687b      	ldr	r3, [r7, #4]
 800232a:	681b      	ldr	r3, [r3, #0]
 800232c:	b2db      	uxtb	r3, r3
 800232e:	3b10      	subs	r3, #16
 8002330:	4a14      	ldr	r2, [pc, #80]	; (8002384 <DMA_CalcBaseAndBitshift+0x64>)
 8002332:	fba2 2303 	umull	r2, r3, r2, r3
 8002336:	091b      	lsrs	r3, r3, #4
 8002338:	60fb      	str	r3, [r7, #12]
 800233a:	4a13      	ldr	r2, [pc, #76]	; (8002388 <DMA_CalcBaseAndBitshift+0x68>)
 800233c:	68fb      	ldr	r3, [r7, #12]
 800233e:	4413      	add	r3, r2
 8002340:	781b      	ldrb	r3, [r3, #0]
 8002342:	461a      	mov	r2, r3
 8002344:	687b      	ldr	r3, [r7, #4]
 8002346:	65da      	str	r2, [r3, #92]	; 0x5c
 8002348:	68fb      	ldr	r3, [r7, #12]
 800234a:	2b03      	cmp	r3, #3
 800234c:	d909      	bls.n	8002362 <DMA_CalcBaseAndBitshift+0x42>
 800234e:	687b      	ldr	r3, [r7, #4]
 8002350:	681b      	ldr	r3, [r3, #0]
 8002352:	f423 737f 	bic.w	r3, r3, #1020	; 0x3fc
 8002356:	f023 0303 	bic.w	r3, r3, #3
 800235a:	1d1a      	adds	r2, r3, #4
 800235c:	687b      	ldr	r3, [r7, #4]
 800235e:	659a      	str	r2, [r3, #88]	; 0x58
 8002360:	e007      	b.n	8002372 <DMA_CalcBaseAndBitshift+0x52>
 8002362:	687b      	ldr	r3, [r7, #4]
 8002364:	681b      	ldr	r3, [r3, #0]
 8002366:	f423 737f 	bic.w	r3, r3, #1020	; 0x3fc
 800236a:	f023 0303 	bic.w	r3, r3, #3
 800236e:	687a      	ldr	r2, [r7, #4]
 8002370:	6593      	str	r3, [r2, #88]	; 0x58
 8002372:	687b      	ldr	r3, [r7, #4]
 8002374:	6d9b      	ldr	r3, [r3, #88]	; 0x58
 8002376:	4618      	mov	r0, r3
 8002378:	3714      	adds	r7, #20
 800237a:	46bd      	mov	sp, r7
 800237c:	f85d 7b04 	ldr.w	r7, [sp], #4
 8002380:	4770      	bx	lr
 8002382:	bf00      	nop
 8002384:	aaaaaaab 	.word	0xaaaaaaab
 8002388:	08005d08 	.word	0x08005d08

0800238c <DMA_CheckFifoParam>:
 800238c:	b480      	push	{r7}
 800238e:	b085      	sub	sp, #20
 8002390:	af00      	add	r7, sp, #0
 8002392:	6078      	str	r0, [r7, #4]
 8002394:	2300      	movs	r3, #0
 8002396:	73fb      	strb	r3, [r7, #15]
 8002398:	687b      	ldr	r3, [r7, #4]
 800239a:	6a9b      	ldr	r3, [r3, #40]	; 0x28
 800239c:	60bb      	str	r3, [r7, #8]
 800239e:	687b      	ldr	r3, [r7, #4]
 80023a0:	699b      	ldr	r3, [r3, #24]
 80023a2:	2b00      	cmp	r3, #0
 80023a4:	d11f      	bne.n	80023e6 <DMA_CheckFifoParam+0x5a>
 80023a6:	68bb      	ldr	r3, [r7, #8]
 80023a8:	2b03      	cmp	r3, #3
 80023aa:	d856      	bhi.n	800245a <DMA_CheckFifoParam+0xce>
 80023ac:	a201      	add	r2, pc, #4	; (adr r2, 80023b4 <DMA_CheckFifoParam+0x28>)
 80023ae:	f852 f023 	ldr.w	pc, [r2, r3, lsl #2]
 80023b2:	bf00      	nop
 80023b4:	080023c5 	.word	0x080023c5
 80023b8:	080023d7 	.word	0x080023d7
 80023bc:	080023c5 	.word	0x080023c5
 80023c0:	0800245b 	.word	0x0800245b
 80023c4:	687b      	ldr	r3, [r7, #4]
 80023c6:	6adb      	ldr	r3, [r3, #44]	; 0x2c
 80023c8:	f003 7380 	and.w	r3, r3, #16777216	; 0x1000000
 80023cc:	2b00      	cmp	r3, #0
 80023ce:	d046      	beq.n	800245e <DMA_CheckFifoParam+0xd2>
 80023d0:	2301      	movs	r3, #1
 80023d2:	73fb      	strb	r3, [r7, #15]
 80023d4:	e043      	b.n	800245e <DMA_CheckFifoParam+0xd2>
 80023d6:	687b      	ldr	r3, [r7, #4]
 80023d8:	6adb      	ldr	r3, [r3, #44]	; 0x2c
 80023da:	f1b3 7fc0 	cmp.w	r3, #25165824	; 0x1800000
 80023de:	d140      	bne.n	8002462 <DMA_CheckFifoParam+0xd6>
 80023e0:	2301      	movs	r3, #1
 80023e2:	73fb      	strb	r3, [r7, #15]
 80023e4:	e03d      	b.n	8002462 <DMA_CheckFifoParam+0xd6>
 80023e6:	687b      	ldr	r3, [r7, #4]
 80023e8:	699b      	ldr	r3, [r3, #24]
 80023ea:	f5b3 5f00 	cmp.w	r3, #8192	; 0x2000
 80023ee:	d121      	bne.n	8002434 <DMA_CheckFifoParam+0xa8>
 80023f0:	68bb      	ldr	r3, [r7, #8]
 80023f2:	2b03      	cmp	r3, #3
 80023f4:	d837      	bhi.n	8002466 <DMA_CheckFifoParam+0xda>
 80023f6:	a201      	add	r2, pc, #4	; (adr r2, 80023fc <DMA_CheckFifoParam+0x70>)
 80023f8:	f852 f023 	ldr.w	pc, [r2, r3, lsl #2]
 80023fc:	0800240d 	.word	0x0800240d
 8002400:	08002413 	.word	0x08002413
 8002404:	0800240d 	.word	0x0800240d
 8002408:	08002425 	.word	0x08002425
 800240c:	2301      	movs	r3, #1
 800240e:	73fb      	strb	r3, [r7, #15]
 8002410:	e030      	b.n	8002474 <DMA_CheckFifoParam+0xe8>
 8002412:	687b      	ldr	r3, [r7, #4]
 8002414:	6adb      	ldr	r3, [r3, #44]	; 0x2c
 8002416:	f003 7380 	and.w	r3, r3, #16777216	; 0x1000000
 800241a:	2b00      	cmp	r3, #0
 800241c:	d025      	beq.n	800246a <DMA_CheckFifoParam+0xde>
 800241e:	2301      	movs	r3, #1
 8002420:	73fb      	strb	r3, [r7, #15]
 8002422:	e022      	b.n	800246a <DMA_CheckFifoParam+0xde>
 8002424:	687b      	ldr	r3, [r7, #4]
 8002426:	6adb      	ldr	r3, [r3, #44]	; 0x2c
 8002428:	f1b3 7fc0 	cmp.w	r3, #25165824	; 0x1800000
 800242c:	d11f      	bne.n	800246e <DMA_CheckFifoParam+0xe2>
 800242e:	2301      	movs	r3, #1
 8002430:	73fb      	strb	r3, [r7, #15]
 8002432:	e01c      	b.n	800246e <DMA_CheckFifoParam+0xe2>
 8002434:	68bb      	ldr	r3, [r7, #8]
 8002436:	2b02      	cmp	r3, #2
 8002438:	d903      	bls.n	8002442 <DMA_CheckFifoParam+0xb6>
 800243a:	68bb      	ldr	r3, [r7, #8]
 800243c:	2b03      	cmp	r3, #3
 800243e:	d003      	beq.n	8002448 <DMA_CheckFifoParam+0xbc>
 8002440:	e018      	b.n	8002474 <DMA_CheckFifoParam+0xe8>
 8002442:	2301      	movs	r3, #1
 8002444:	73fb      	strb	r3, [r7, #15]
 8002446:	e015      	b.n	8002474 <DMA_CheckFifoParam+0xe8>
 8002448:	687b      	ldr	r3, [r7, #4]
 800244a:	6adb      	ldr	r3, [r3, #44]	; 0x2c
 800244c:	f003 7380 	and.w	r3, r3, #16777216	; 0x1000000
 8002450:	2b00      	cmp	r3, #0
 8002452:	d00e      	beq.n	8002472 <DMA_CheckFifoParam+0xe6>
 8002454:	2301      	movs	r3, #1
 8002456:	73fb      	strb	r3, [r7, #15]
 8002458:	e00b      	b.n	8002472 <DMA_CheckFifoParam+0xe6>
 800245a:	bf00      	nop
 800245c:	e00a      	b.n	8002474 <DMA_CheckFifoParam+0xe8>
 800245e:	bf00      	nop
 8002460:	e008      	b.n	8002474 <DMA_CheckFifoParam+0xe8>
 8002462:	bf00      	nop
 8002464:	e006      	b.n	8002474 <DMA_CheckFifoParam+0xe8>
 8002466:	bf00      	nop
 8002468:	e004      	b.n	8002474 <DMA_CheckFifoParam+0xe8>
 800246a:	bf00      	nop
 800246c:	e002      	b.n	8002474 <DMA_CheckFifoParam+0xe8>
 800246e:	bf00      	nop
 8002470:	e000      	b.n	8002474 <DMA_CheckFifoParam+0xe8>
 8002472:	bf00      	nop
 8002474:	7bfb      	ldrb	r3, [r7, #15]
 8002476:	4618      	mov	r0, r3
 8002478:	3714      	adds	r7, #20
 800247a:	46bd      	mov	sp, r7
 800247c:	f85d 7b04 	ldr.w	r7, [sp], #4
 8002480:	4770      	bx	lr
 8002482:	bf00      	nop

08002484 <HAL_GPIO_Init>:
 8002484:	b480      	push	{r7}
 8002486:	b089      	sub	sp, #36	; 0x24
 8002488:	af00      	add	r7, sp, #0
 800248a:	6078      	str	r0, [r7, #4]
 800248c:	6039      	str	r1, [r7, #0]
 800248e:	2300      	movs	r3, #0
 8002490:	617b      	str	r3, [r7, #20]
 8002492:	2300      	movs	r3, #0
 8002494:	613b      	str	r3, [r7, #16]
 8002496:	2300      	movs	r3, #0
 8002498:	61bb      	str	r3, [r7, #24]
 800249a:	2300      	movs	r3, #0
 800249c:	61fb      	str	r3, [r7, #28]
 800249e:	e165      	b.n	800276c <HAL_GPIO_Init+0x2e8>
 80024a0:	2201      	movs	r2, #1
 80024a2:	69fb      	ldr	r3, [r7, #28]
 80024a4:	fa02 f303 	lsl.w	r3, r2, r3
 80024a8:	617b      	str	r3, [r7, #20]
 80024aa:	683b      	ldr	r3, [r7, #0]
 80024ac:	681b      	ldr	r3, [r3, #0]
 80024ae:	697a      	ldr	r2, [r7, #20]
 80024b0:	4013      	ands	r3, r2
 80024b2:	613b      	str	r3, [r7, #16]
 80024b4:	693a      	ldr	r2, [r7, #16]
 80024b6:	697b      	ldr	r3, [r7, #20]
 80024b8:	429a      	cmp	r2, r3
 80024ba:	f040 8154 	bne.w	8002766 <HAL_GPIO_Init+0x2e2>
 80024be:	683b      	ldr	r3, [r7, #0]
 80024c0:	685b      	ldr	r3, [r3, #4]
 80024c2:	2b01      	cmp	r3, #1
 80024c4:	d00b      	beq.n	80024de <HAL_GPIO_Init+0x5a>
 80024c6:	683b      	ldr	r3, [r7, #0]
 80024c8:	685b      	ldr	r3, [r3, #4]
 80024ca:	2b02      	cmp	r3, #2
 80024cc:	d007      	beq.n	80024de <HAL_GPIO_Init+0x5a>
 80024ce:	683b      	ldr	r3, [r7, #0]
 80024d0:	685b      	ldr	r3, [r3, #4]
 80024d2:	2b11      	cmp	r3, #17
 80024d4:	d003      	beq.n	80024de <HAL_GPIO_Init+0x5a>
 80024d6:	683b      	ldr	r3, [r7, #0]
 80024d8:	685b      	ldr	r3, [r3, #4]
 80024da:	2b12      	cmp	r3, #18
 80024dc:	d130      	bne.n	8002540 <HAL_GPIO_Init+0xbc>
 80024de:	687b      	ldr	r3, [r7, #4]
 80024e0:	689b      	ldr	r3, [r3, #8]
 80024e2:	61bb      	str	r3, [r7, #24]
 80024e4:	69fb      	ldr	r3, [r7, #28]
 80024e6:	005b      	lsls	r3, r3, #1
 80024e8:	2203      	movs	r2, #3
 80024ea:	fa02 f303 	lsl.w	r3, r2, r3
 80024ee:	43db      	mvns	r3, r3
 80024f0:	69ba      	ldr	r2, [r7, #24]
 80024f2:	4013      	ands	r3, r2
 80024f4:	61bb      	str	r3, [r7, #24]
 80024f6:	683b      	ldr	r3, [r7, #0]
 80024f8:	68da      	ldr	r2, [r3, #12]
 80024fa:	69fb      	ldr	r3, [r7, #28]
 80024fc:	005b      	lsls	r3, r3, #1
 80024fe:	fa02 f303 	lsl.w	r3, r2, r3
 8002502:	69ba      	ldr	r2, [r7, #24]
 8002504:	4313      	orrs	r3, r2
 8002506:	61bb      	str	r3, [r7, #24]
 8002508:	687b      	ldr	r3, [r7, #4]
 800250a:	69ba      	ldr	r2, [r7, #24]
 800250c:	609a      	str	r2, [r3, #8]
 800250e:	687b      	ldr	r3, [r7, #4]
 8002510:	685b      	ldr	r3, [r3, #4]
 8002512:	61bb      	str	r3, [r7, #24]
 8002514:	2201      	movs	r2, #1
 8002516:	69fb      	ldr	r3, [r7, #28]
 8002518:	fa02 f303 	lsl.w	r3, r2, r3
 800251c:	43db      	mvns	r3, r3
 800251e:	69ba      	ldr	r2, [r7, #24]
 8002520:	4013      	ands	r3, r2
 8002522:	61bb      	str	r3, [r7, #24]
 8002524:	683b      	ldr	r3, [r7, #0]
 8002526:	685b      	ldr	r3, [r3, #4]
 8002528:	091b      	lsrs	r3, r3, #4
 800252a:	f003 0201 	and.w	r2, r3, #1
 800252e:	69fb      	ldr	r3, [r7, #28]
 8002530:	fa02 f303 	lsl.w	r3, r2, r3
 8002534:	69ba      	ldr	r2, [r7, #24]
 8002536:	4313      	orrs	r3, r2
 8002538:	61bb      	str	r3, [r7, #24]
 800253a:	687b      	ldr	r3, [r7, #4]
 800253c:	69ba      	ldr	r2, [r7, #24]
 800253e:	605a      	str	r2, [r3, #4]
 8002540:	687b      	ldr	r3, [r7, #4]
 8002542:	68db      	ldr	r3, [r3, #12]
 8002544:	61bb      	str	r3, [r7, #24]
 8002546:	69fb      	ldr	r3, [r7, #28]
 8002548:	005b      	lsls	r3, r3, #1
 800254a:	2203      	movs	r2, #3
 800254c:	fa02 f303 	lsl.w	r3, r2, r3
 8002550:	43db      	mvns	r3, r3
 8002552:	69ba      	ldr	r2, [r7, #24]
 8002554:	4013      	ands	r3, r2
 8002556:	61bb      	str	r3, [r7, #24]
 8002558:	683b      	ldr	r3, [r7, #0]
 800255a:	689a      	ldr	r2, [r3, #8]
 800255c:	69fb      	ldr	r3, [r7, #28]
 800255e:	005b      	lsls	r3, r3, #1
 8002560:	fa02 f303 	lsl.w	r3, r2, r3
 8002564:	69ba      	ldr	r2, [r7, #24]
 8002566:	4313      	orrs	r3, r2
 8002568:	61bb      	str	r3, [r7, #24]
 800256a:	687b      	ldr	r3, [r7, #4]
 800256c:	69ba      	ldr	r2, [r7, #24]
 800256e:	60da      	str	r2, [r3, #12]
 8002570:	683b      	ldr	r3, [r7, #0]
 8002572:	685b      	ldr	r3, [r3, #4]
 8002574:	2b02      	cmp	r3, #2
 8002576:	d003      	beq.n	8002580 <HAL_GPIO_Init+0xfc>
 8002578:	683b      	ldr	r3, [r7, #0]
 800257a:	685b      	ldr	r3, [r3, #4]
 800257c:	2b12      	cmp	r3, #18
 800257e:	d123      	bne.n	80025c8 <HAL_GPIO_Init+0x144>
 8002580:	69fb      	ldr	r3, [r7, #28]
 8002582:	08da      	lsrs	r2, r3, #3
 8002584:	687b      	ldr	r3, [r7, #4]
 8002586:	3208      	adds	r2, #8
 8002588:	f853 3022 	ldr.w	r3, [r3, r2, lsl #2]
 800258c:	61bb      	str	r3, [r7, #24]
 800258e:	69fb      	ldr	r3, [r7, #28]
 8002590:	f003 0307 	and.w	r3, r3, #7
 8002594:	009b      	lsls	r3, r3, #2
 8002596:	220f      	movs	r2, #15
 8002598:	fa02 f303 	lsl.w	r3, r2, r3
 800259c:	43db      	mvns	r3, r3
 800259e:	69ba      	ldr	r2, [r7, #24]
 80025a0:	4013      	ands	r3, r2
 80025a2:	61bb      	str	r3, [r7, #24]
 80025a4:	683b      	ldr	r3, [r7, #0]
 80025a6:	691a      	ldr	r2, [r3, #16]
 80025a8:	69fb      	ldr	r3, [r7, #28]
 80025aa:	f003 0307 	and.w	r3, r3, #7
 80025ae:	009b      	lsls	r3, r3, #2
 80025b0:	fa02 f303 	lsl.w	r3, r2, r3
 80025b4:	69ba      	ldr	r2, [r7, #24]
 80025b6:	4313      	orrs	r3, r2
 80025b8:	61bb      	str	r3, [r7, #24]
 80025ba:	69fb      	ldr	r3, [r7, #28]
 80025bc:	08da      	lsrs	r2, r3, #3
 80025be:	687b      	ldr	r3, [r7, #4]
 80025c0:	3208      	adds	r2, #8
 80025c2:	69b9      	ldr	r1, [r7, #24]
 80025c4:	f843 1022 	str.w	r1, [r3, r2, lsl #2]
 80025c8:	687b      	ldr	r3, [r7, #4]
 80025ca:	681b      	ldr	r3, [r3, #0]
 80025cc:	61bb      	str	r3, [r7, #24]
 80025ce:	69fb      	ldr	r3, [r7, #28]
 80025d0:	005b      	lsls	r3, r3, #1
 80025d2:	2203      	movs	r2, #3
 80025d4:	fa02 f303 	lsl.w	r3, r2, r3
 80025d8:	43db      	mvns	r3, r3
 80025da:	69ba      	ldr	r2, [r7, #24]
 80025dc:	4013      	ands	r3, r2
 80025de:	61bb      	str	r3, [r7, #24]
 80025e0:	683b      	ldr	r3, [r7, #0]
 80025e2:	685b      	ldr	r3, [r3, #4]
 80025e4:	f003 0203 	and.w	r2, r3, #3
 80025e8:	69fb      	ldr	r3, [r7, #28]
 80025ea:	005b      	lsls	r3, r3, #1
 80025ec:	fa02 f303 	lsl.w	r3, r2, r3
 80025f0:	69ba      	ldr	r2, [r7, #24]
 80025f2:	4313      	orrs	r3, r2
 80025f4:	61bb      	str	r3, [r7, #24]
 80025f6:	687b      	ldr	r3, [r7, #4]
 80025f8:	69ba      	ldr	r2, [r7, #24]
 80025fa:	601a      	str	r2, [r3, #0]
 80025fc:	683b      	ldr	r3, [r7, #0]
 80025fe:	685b      	ldr	r3, [r3, #4]
 8002600:	f003 5380 	and.w	r3, r3, #268435456	; 0x10000000
 8002604:	2b00      	cmp	r3, #0
 8002606:	f000 80ae 	beq.w	8002766 <HAL_GPIO_Init+0x2e2>
 800260a:	2300      	movs	r3, #0
 800260c:	60fb      	str	r3, [r7, #12]
 800260e:	4b5d      	ldr	r3, [pc, #372]	; (8002784 <HAL_GPIO_Init+0x300>)
 8002610:	6c5b      	ldr	r3, [r3, #68]	; 0x44
 8002612:	4a5c      	ldr	r2, [pc, #368]	; (8002784 <HAL_GPIO_Init+0x300>)
 8002614:	f443 4380 	orr.w	r3, r3, #16384	; 0x4000
 8002618:	6453      	str	r3, [r2, #68]	; 0x44
 800261a:	4b5a      	ldr	r3, [pc, #360]	; (8002784 <HAL_GPIO_Init+0x300>)
 800261c:	6c5b      	ldr	r3, [r3, #68]	; 0x44
 800261e:	f403 4380 	and.w	r3, r3, #16384	; 0x4000
 8002622:	60fb      	str	r3, [r7, #12]
 8002624:	68fb      	ldr	r3, [r7, #12]
 8002626:	4a58      	ldr	r2, [pc, #352]	; (8002788 <HAL_GPIO_Init+0x304>)
 8002628:	69fb      	ldr	r3, [r7, #28]
 800262a:	089b      	lsrs	r3, r3, #2
 800262c:	3302      	adds	r3, #2
 800262e:	f852 3023 	ldr.w	r3, [r2, r3, lsl #2]
 8002632:	61bb      	str	r3, [r7, #24]
 8002634:	69fb      	ldr	r3, [r7, #28]
 8002636:	f003 0303 	and.w	r3, r3, #3
 800263a:	009b      	lsls	r3, r3, #2
 800263c:	220f      	movs	r2, #15
 800263e:	fa02 f303 	lsl.w	r3, r2, r3
 8002642:	43db      	mvns	r3, r3
 8002644:	69ba      	ldr	r2, [r7, #24]
 8002646:	4013      	ands	r3, r2
 8002648:	61bb      	str	r3, [r7, #24]
 800264a:	687b      	ldr	r3, [r7, #4]
 800264c:	4a4f      	ldr	r2, [pc, #316]	; (800278c <HAL_GPIO_Init+0x308>)
 800264e:	4293      	cmp	r3, r2
 8002650:	d025      	beq.n	800269e <HAL_GPIO_Init+0x21a>
 8002652:	687b      	ldr	r3, [r7, #4]
 8002654:	4a4e      	ldr	r2, [pc, #312]	; (8002790 <HAL_GPIO_Init+0x30c>)
 8002656:	4293      	cmp	r3, r2
 8002658:	d01f      	beq.n	800269a <HAL_GPIO_Init+0x216>
 800265a:	687b      	ldr	r3, [r7, #4]
 800265c:	4a4d      	ldr	r2, [pc, #308]	; (8002794 <HAL_GPIO_Init+0x310>)
 800265e:	4293      	cmp	r3, r2
 8002660:	d019      	beq.n	8002696 <HAL_GPIO_Init+0x212>
 8002662:	687b      	ldr	r3, [r7, #4]
 8002664:	4a4c      	ldr	r2, [pc, #304]	; (8002798 <HAL_GPIO_Init+0x314>)
 8002666:	4293      	cmp	r3, r2
 8002668:	d013      	beq.n	8002692 <HAL_GPIO_Init+0x20e>
 800266a:	687b      	ldr	r3, [r7, #4]
 800266c:	4a4b      	ldr	r2, [pc, #300]	; (800279c <HAL_GPIO_Init+0x318>)
 800266e:	4293      	cmp	r3, r2
 8002670:	d00d      	beq.n	800268e <HAL_GPIO_Init+0x20a>
 8002672:	687b      	ldr	r3, [r7, #4]
 8002674:	4a4a      	ldr	r2, [pc, #296]	; (80027a0 <HAL_GPIO_Init+0x31c>)
 8002676:	4293      	cmp	r3, r2
 8002678:	d007      	beq.n	800268a <HAL_GPIO_Init+0x206>
 800267a:	687b      	ldr	r3, [r7, #4]
 800267c:	4a49      	ldr	r2, [pc, #292]	; (80027a4 <HAL_GPIO_Init+0x320>)
 800267e:	4293      	cmp	r3, r2
 8002680:	d101      	bne.n	8002686 <HAL_GPIO_Init+0x202>
 8002682:	2306      	movs	r3, #6
 8002684:	e00c      	b.n	80026a0 <HAL_GPIO_Init+0x21c>
 8002686:	2307      	movs	r3, #7
 8002688:	e00a      	b.n	80026a0 <HAL_GPIO_Init+0x21c>
 800268a:	2305      	movs	r3, #5
 800268c:	e008      	b.n	80026a0 <HAL_GPIO_Init+0x21c>
 800268e:	2304      	movs	r3, #4
 8002690:	e006      	b.n	80026a0 <HAL_GPIO_Init+0x21c>
 8002692:	2303      	movs	r3, #3
 8002694:	e004      	b.n	80026a0 <HAL_GPIO_Init+0x21c>
 8002696:	2302      	movs	r3, #2
 8002698:	e002      	b.n	80026a0 <HAL_GPIO_Init+0x21c>
 800269a:	2301      	movs	r3, #1
 800269c:	e000      	b.n	80026a0 <HAL_GPIO_Init+0x21c>
 800269e:	2300      	movs	r3, #0
 80026a0:	69fa      	ldr	r2, [r7, #28]
 80026a2:	f002 0203 	and.w	r2, r2, #3
 80026a6:	0092      	lsls	r2, r2, #2
 80026a8:	4093      	lsls	r3, r2
 80026aa:	69ba      	ldr	r2, [r7, #24]
 80026ac:	4313      	orrs	r3, r2
 80026ae:	61bb      	str	r3, [r7, #24]
 80026b0:	4935      	ldr	r1, [pc, #212]	; (8002788 <HAL_GPIO_Init+0x304>)
 80026b2:	69fb      	ldr	r3, [r7, #28]
 80026b4:	089b      	lsrs	r3, r3, #2
 80026b6:	3302      	adds	r3, #2
 80026b8:	69ba      	ldr	r2, [r7, #24]
 80026ba:	f841 2023 	str.w	r2, [r1, r3, lsl #2]
 80026be:	4b3a      	ldr	r3, [pc, #232]	; (80027a8 <HAL_GPIO_Init+0x324>)
 80026c0:	681b      	ldr	r3, [r3, #0]
 80026c2:	61bb      	str	r3, [r7, #24]
 80026c4:	693b      	ldr	r3, [r7, #16]
 80026c6:	43db      	mvns	r3, r3
 80026c8:	69ba      	ldr	r2, [r7, #24]
 80026ca:	4013      	ands	r3, r2
 80026cc:	61bb      	str	r3, [r7, #24]
 80026ce:	683b      	ldr	r3, [r7, #0]
 80026d0:	685b      	ldr	r3, [r3, #4]
 80026d2:	f403 3380 	and.w	r3, r3, #65536	; 0x10000
 80026d6:	2b00      	cmp	r3, #0
 80026d8:	d003      	beq.n	80026e2 <HAL_GPIO_Init+0x25e>
 80026da:	69ba      	ldr	r2, [r7, #24]
 80026dc:	693b      	ldr	r3, [r7, #16]
 80026de:	4313      	orrs	r3, r2
 80026e0:	61bb      	str	r3, [r7, #24]
 80026e2:	4a31      	ldr	r2, [pc, #196]	; (80027a8 <HAL_GPIO_Init+0x324>)
 80026e4:	69bb      	ldr	r3, [r7, #24]
 80026e6:	6013      	str	r3, [r2, #0]
 80026e8:	4b2f      	ldr	r3, [pc, #188]	; (80027a8 <HAL_GPIO_Init+0x324>)
 80026ea:	685b      	ldr	r3, [r3, #4]
 80026ec:	61bb      	str	r3, [r7, #24]
 80026ee:	693b      	ldr	r3, [r7, #16]
 80026f0:	43db      	mvns	r3, r3
 80026f2:	69ba      	ldr	r2, [r7, #24]
 80026f4:	4013      	ands	r3, r2
 80026f6:	61bb      	str	r3, [r7, #24]
 80026f8:	683b      	ldr	r3, [r7, #0]
 80026fa:	685b      	ldr	r3, [r3, #4]
 80026fc:	f403 3300 	and.w	r3, r3, #131072	; 0x20000
 8002700:	2b00      	cmp	r3, #0
 8002702:	d003      	beq.n	800270c <HAL_GPIO_Init+0x288>
 8002704:	69ba      	ldr	r2, [r7, #24]
 8002706:	693b      	ldr	r3, [r7, #16]
 8002708:	4313      	orrs	r3, r2
 800270a:	61bb      	str	r3, [r7, #24]
 800270c:	4a26      	ldr	r2, [pc, #152]	; (80027a8 <HAL_GPIO_Init+0x324>)
 800270e:	69bb      	ldr	r3, [r7, #24]
 8002710:	6053      	str	r3, [r2, #4]
 8002712:	4b25      	ldr	r3, [pc, #148]	; (80027a8 <HAL_GPIO_Init+0x324>)
 8002714:	689b      	ldr	r3, [r3, #8]
 8002716:	61bb      	str	r3, [r7, #24]
 8002718:	693b      	ldr	r3, [r7, #16]
 800271a:	43db      	mvns	r3, r3
 800271c:	69ba      	ldr	r2, [r7, #24]
 800271e:	4013      	ands	r3, r2
 8002720:	61bb      	str	r3, [r7, #24]
 8002722:	683b      	ldr	r3, [r7, #0]
 8002724:	685b      	ldr	r3, [r3, #4]
 8002726:	f403 1380 	and.w	r3, r3, #1048576	; 0x100000
 800272a:	2b00      	cmp	r3, #0
 800272c:	d003      	beq.n	8002736 <HAL_GPIO_Init+0x2b2>
 800272e:	69ba      	ldr	r2, [r7, #24]
 8002730:	693b      	ldr	r3, [r7, #16]
 8002732:	4313      	orrs	r3, r2
 8002734:	61bb      	str	r3, [r7, #24]
 8002736:	4a1c      	ldr	r2, [pc, #112]	; (80027a8 <HAL_GPIO_Init+0x324>)
 8002738:	69bb      	ldr	r3, [r7, #24]
 800273a:	6093      	str	r3, [r2, #8]
 800273c:	4b1a      	ldr	r3, [pc, #104]	; (80027a8 <HAL_GPIO_Init+0x324>)
 800273e:	68db      	ldr	r3, [r3, #12]
 8002740:	61bb      	str	r3, [r7, #24]
 8002742:	693b      	ldr	r3, [r7, #16]
 8002744:	43db      	mvns	r3, r3
 8002746:	69ba      	ldr	r2, [r7, #24]
 8002748:	4013      	ands	r3, r2
 800274a:	61bb      	str	r3, [r7, #24]
 800274c:	683b      	ldr	r3, [r7, #0]
 800274e:	685b      	ldr	r3, [r3, #4]
 8002750:	f403 1300 	and.w	r3, r3, #2097152	; 0x200000
 8002754:	2b00      	cmp	r3, #0
 8002756:	d003      	beq.n	8002760 <HAL_GPIO_Init+0x2dc>
 8002758:	69ba      	ldr	r2, [r7, #24]
 800275a:	693b      	ldr	r3, [r7, #16]
 800275c:	4313      	orrs	r3, r2
 800275e:	61bb      	str	r3, [r7, #24]
 8002760:	4a11      	ldr	r2, [pc, #68]	; (80027a8 <HAL_GPIO_Init+0x324>)
 8002762:	69bb      	ldr	r3, [r7, #24]
 8002764:	60d3      	str	r3, [r2, #12]
 8002766:	69fb      	ldr	r3, [r7, #28]
 8002768:	3301      	adds	r3, #1
 800276a:	61fb      	str	r3, [r7, #28]
 800276c:	69fb      	ldr	r3, [r7, #28]
 800276e:	2b0f      	cmp	r3, #15
 8002770:	f67f ae96 	bls.w	80024a0 <HAL_GPIO_Init+0x1c>
 8002774:	bf00      	nop
 8002776:	bf00      	nop
 8002778:	3724      	adds	r7, #36	; 0x24
 800277a:	46bd      	mov	sp, r7
 800277c:	f85d 7b04 	ldr.w	r7, [sp], #4
 8002780:	4770      	bx	lr
 8002782:	bf00      	nop
 8002784:	40023800 	.word	0x40023800
 8002788:	40013800 	.word	0x40013800
 800278c:	40020000 	.word	0x40020000
 8002790:	40020400 	.word	0x40020400
 8002794:	40020800 	.word	0x40020800
 8002798:	40020c00 	.word	0x40020c00
 800279c:	40021000 	.word	0x40021000
 80027a0:	40021400 	.word	0x40021400
 80027a4:	40021800 	.word	0x40021800
 80027a8:	40013c00 	.word	0x40013c00

080027ac <HAL_GPIO_WritePin>:
 80027ac:	b480      	push	{r7}
 80027ae:	b083      	sub	sp, #12
 80027b0:	af00      	add	r7, sp, #0
 80027b2:	6078      	str	r0, [r7, #4]
 80027b4:	460b      	mov	r3, r1
 80027b6:	807b      	strh	r3, [r7, #2]
 80027b8:	4613      	mov	r3, r2
 80027ba:	707b      	strb	r3, [r7, #1]
 80027bc:	787b      	ldrb	r3, [r7, #1]
 80027be:	2b00      	cmp	r3, #0
 80027c0:	d003      	beq.n	80027ca <HAL_GPIO_WritePin+0x1e>
 80027c2:	887a      	ldrh	r2, [r7, #2]
 80027c4:	687b      	ldr	r3, [r7, #4]
 80027c6:	619a      	str	r2, [r3, #24]
 80027c8:	e003      	b.n	80027d2 <HAL_GPIO_WritePin+0x26>
 80027ca:	887b      	ldrh	r3, [r7, #2]
 80027cc:	041a      	lsls	r2, r3, #16
 80027ce:	687b      	ldr	r3, [r7, #4]
 80027d0:	619a      	str	r2, [r3, #24]
 80027d2:	bf00      	nop
 80027d4:	370c      	adds	r7, #12
 80027d6:	46bd      	mov	sp, r7
 80027d8:	f85d 7b04 	ldr.w	r7, [sp], #4
 80027dc:	4770      	bx	lr
	...

080027e0 <HAL_GPIO_EXTI_IRQHandler>:
 80027e0:	b580      	push	{r7, lr}
 80027e2:	b082      	sub	sp, #8
 80027e4:	af00      	add	r7, sp, #0
 80027e6:	4603      	mov	r3, r0
 80027e8:	80fb      	strh	r3, [r7, #6]
 80027ea:	4b08      	ldr	r3, [pc, #32]	; (800280c <HAL_GPIO_EXTI_IRQHandler+0x2c>)
 80027ec:	695a      	ldr	r2, [r3, #20]
 80027ee:	88fb      	ldrh	r3, [r7, #6]
 80027f0:	4013      	ands	r3, r2
 80027f2:	2b00      	cmp	r3, #0
 80027f4:	d006      	beq.n	8002804 <HAL_GPIO_EXTI_IRQHandler+0x24>
 80027f6:	4a05      	ldr	r2, [pc, #20]	; (800280c <HAL_GPIO_EXTI_IRQHandler+0x2c>)
 80027f8:	88fb      	ldrh	r3, [r7, #6]
 80027fa:	6153      	str	r3, [r2, #20]
 80027fc:	88fb      	ldrh	r3, [r7, #6]
 80027fe:	4618      	mov	r0, r3
 8002800:	f002 fa54 	bl	8004cac <HAL_GPIO_EXTI_Callback>
 8002804:	bf00      	nop
 8002806:	3708      	adds	r7, #8
 8002808:	46bd      	mov	sp, r7
 800280a:	bd80      	pop	{r7, pc}
 800280c:	40013c00 	.word	0x40013c00

08002810 <HAL_IWDG_Init>:
 8002810:	b580      	push	{r7, lr}
 8002812:	b084      	sub	sp, #16
 8002814:	af00      	add	r7, sp, #0
 8002816:	6078      	str	r0, [r7, #4]
 8002818:	687b      	ldr	r3, [r7, #4]
 800281a:	2b00      	cmp	r3, #0
 800281c:	d101      	bne.n	8002822 <HAL_IWDG_Init+0x12>
 800281e:	2301      	movs	r3, #1
 8002820:	e02b      	b.n	800287a <HAL_IWDG_Init+0x6a>
 8002822:	687b      	ldr	r3, [r7, #4]
 8002824:	681b      	ldr	r3, [r3, #0]
 8002826:	f64c 42cc 	movw	r2, #52428	; 0xcccc
 800282a:	601a      	str	r2, [r3, #0]
 800282c:	687b      	ldr	r3, [r7, #4]
 800282e:	681b      	ldr	r3, [r3, #0]
 8002830:	f245 5255 	movw	r2, #21845	; 0x5555
 8002834:	601a      	str	r2, [r3, #0]
 8002836:	687b      	ldr	r3, [r7, #4]
 8002838:	681b      	ldr	r3, [r3, #0]
 800283a:	687a      	ldr	r2, [r7, #4]
 800283c:	6852      	ldr	r2, [r2, #4]
 800283e:	605a      	str	r2, [r3, #4]
 8002840:	687b      	ldr	r3, [r7, #4]
 8002842:	681b      	ldr	r3, [r3, #0]
 8002844:	687a      	ldr	r2, [r7, #4]
 8002846:	6892      	ldr	r2, [r2, #8]
 8002848:	609a      	str	r2, [r3, #8]
 800284a:	f7fe fd91 	bl	8001370 <HAL_GetTick>
 800284e:	60f8      	str	r0, [r7, #12]
 8002850:	e008      	b.n	8002864 <HAL_IWDG_Init+0x54>
 8002852:	f7fe fd8d 	bl	8001370 <HAL_GetTick>
 8002856:	4602      	mov	r2, r0
 8002858:	68fb      	ldr	r3, [r7, #12]
 800285a:	1ad3      	subs	r3, r2, r3
 800285c:	2b30      	cmp	r3, #48	; 0x30
 800285e:	d901      	bls.n	8002864 <HAL_IWDG_Init+0x54>
 8002860:	2303      	movs	r3, #3
 8002862:	e00a      	b.n	800287a <HAL_IWDG_Init+0x6a>
 8002864:	687b      	ldr	r3, [r7, #4]
 8002866:	681b      	ldr	r3, [r3, #0]
 8002868:	68db      	ldr	r3, [r3, #12]
 800286a:	2b00      	cmp	r3, #0
 800286c:	d1f1      	bne.n	8002852 <HAL_IWDG_Init+0x42>
 800286e:	687b      	ldr	r3, [r7, #4]
 8002870:	681b      	ldr	r3, [r3, #0]
 8002872:	f64a 22aa 	movw	r2, #43690	; 0xaaaa
 8002876:	601a      	str	r2, [r3, #0]
 8002878:	2300      	movs	r3, #0
 800287a:	4618      	mov	r0, r3
 800287c:	3710      	adds	r7, #16
 800287e:	46bd      	mov	sp, r7
 8002880:	bd80      	pop	{r7, pc}

08002882 <HAL_IWDG_Refresh>:
 8002882:	b480      	push	{r7}
 8002884:	b083      	sub	sp, #12
 8002886:	af00      	add	r7, sp, #0
 8002888:	6078      	str	r0, [r7, #4]
 800288a:	687b      	ldr	r3, [r7, #4]
 800288c:	681b      	ldr	r3, [r3, #0]
 800288e:	f64a 22aa 	movw	r2, #43690	; 0xaaaa
 8002892:	601a      	str	r2, [r3, #0]
 8002894:	2300      	movs	r3, #0
 8002896:	4618      	mov	r0, r3
 8002898:	370c      	adds	r7, #12
 800289a:	46bd      	mov	sp, r7
 800289c:	f85d 7b04 	ldr.w	r7, [sp], #4
 80028a0:	4770      	bx	lr
	...

080028a4 <HAL_PWREx_EnableOverDrive>:
 80028a4:	b580      	push	{r7, lr}
 80028a6:	b082      	sub	sp, #8
 80028a8:	af00      	add	r7, sp, #0
 80028aa:	2300      	movs	r3, #0
 80028ac:	607b      	str	r3, [r7, #4]
 80028ae:	2300      	movs	r3, #0
 80028b0:	603b      	str	r3, [r7, #0]
 80028b2:	4b20      	ldr	r3, [pc, #128]	; (8002934 <HAL_PWREx_EnableOverDrive+0x90>)
 80028b4:	6c1b      	ldr	r3, [r3, #64]	; 0x40
 80028b6:	4a1f      	ldr	r2, [pc, #124]	; (8002934 <HAL_PWREx_EnableOverDrive+0x90>)
 80028b8:	f043 5380 	orr.w	r3, r3, #268435456	; 0x10000000
 80028bc:	6413      	str	r3, [r2, #64]	; 0x40
 80028be:	4b1d      	ldr	r3, [pc, #116]	; (8002934 <HAL_PWREx_EnableOverDrive+0x90>)
 80028c0:	6c1b      	ldr	r3, [r3, #64]	; 0x40
 80028c2:	f003 5380 	and.w	r3, r3, #268435456	; 0x10000000
 80028c6:	603b      	str	r3, [r7, #0]
 80028c8:	683b      	ldr	r3, [r7, #0]
 80028ca:	4b1b      	ldr	r3, [pc, #108]	; (8002938 <HAL_PWREx_EnableOverDrive+0x94>)
 80028cc:	2201      	movs	r2, #1
 80028ce:	601a      	str	r2, [r3, #0]
 80028d0:	f7fe fd4e 	bl	8001370 <HAL_GetTick>
 80028d4:	6078      	str	r0, [r7, #4]
 80028d6:	e009      	b.n	80028ec <HAL_PWREx_EnableOverDrive+0x48>
 80028d8:	f7fe fd4a 	bl	8001370 <HAL_GetTick>
 80028dc:	4602      	mov	r2, r0
 80028de:	687b      	ldr	r3, [r7, #4]
 80028e0:	1ad3      	subs	r3, r2, r3
 80028e2:	f5b3 7f7a 	cmp.w	r3, #1000	; 0x3e8
 80028e6:	d901      	bls.n	80028ec <HAL_PWREx_EnableOverDrive+0x48>
 80028e8:	2303      	movs	r3, #3
 80028ea:	e01f      	b.n	800292c <HAL_PWREx_EnableOverDrive+0x88>
 80028ec:	4b13      	ldr	r3, [pc, #76]	; (800293c <HAL_PWREx_EnableOverDrive+0x98>)
 80028ee:	685b      	ldr	r3, [r3, #4]
 80028f0:	f403 3380 	and.w	r3, r3, #65536	; 0x10000
 80028f4:	f5b3 3f80 	cmp.w	r3, #65536	; 0x10000
 80028f8:	d1ee      	bne.n	80028d8 <HAL_PWREx_EnableOverDrive+0x34>
 80028fa:	4b11      	ldr	r3, [pc, #68]	; (8002940 <HAL_PWREx_EnableOverDrive+0x9c>)
 80028fc:	2201      	movs	r2, #1
 80028fe:	601a      	str	r2, [r3, #0]
 8002900:	f7fe fd36 	bl	8001370 <HAL_GetTick>
 8002904:	6078      	str	r0, [r7, #4]
 8002906:	e009      	b.n	800291c <HAL_PWREx_EnableOverDrive+0x78>
 8002908:	f7fe fd32 	bl	8001370 <HAL_GetTick>
 800290c:	4602      	mov	r2, r0
 800290e:	687b      	ldr	r3, [r7, #4]
 8002910:	1ad3      	subs	r3, r2, r3
 8002912:	f5b3 7f7a 	cmp.w	r3, #1000	; 0x3e8
 8002916:	d901      	bls.n	800291c <HAL_PWREx_EnableOverDrive+0x78>
 8002918:	2303      	movs	r3, #3
 800291a:	e007      	b.n	800292c <HAL_PWREx_EnableOverDrive+0x88>
 800291c:	4b07      	ldr	r3, [pc, #28]	; (800293c <HAL_PWREx_EnableOverDrive+0x98>)
 800291e:	685b      	ldr	r3, [r3, #4]
 8002920:	f403 3300 	and.w	r3, r3, #131072	; 0x20000
 8002924:	f5b3 3f00 	cmp.w	r3, #131072	; 0x20000
 8002928:	d1ee      	bne.n	8002908 <HAL_PWREx_EnableOverDrive+0x64>
 800292a:	2300      	movs	r3, #0
 800292c:	4618      	mov	r0, r3
 800292e:	3708      	adds	r7, #8
 8002930:	46bd      	mov	sp, r7
 8002932:	bd80      	pop	{r7, pc}
 8002934:	40023800 	.word	0x40023800
 8002938:	420e0040 	.word	0x420e0040
 800293c:	40007000 	.word	0x40007000
 8002940:	420e0044 	.word	0x420e0044

08002944 <HAL_RCC_ClockConfig>:
 8002944:	b580      	push	{r7, lr}
 8002946:	b084      	sub	sp, #16
 8002948:	af00      	add	r7, sp, #0
 800294a:	6078      	str	r0, [r7, #4]
 800294c:	6039      	str	r1, [r7, #0]
 800294e:	687b      	ldr	r3, [r7, #4]
 8002950:	2b00      	cmp	r3, #0
 8002952:	d101      	bne.n	8002958 <HAL_RCC_ClockConfig+0x14>
 8002954:	2301      	movs	r3, #1
 8002956:	e0cc      	b.n	8002af2 <HAL_RCC_ClockConfig+0x1ae>
 8002958:	4b68      	ldr	r3, [pc, #416]	; (8002afc <HAL_RCC_ClockConfig+0x1b8>)
 800295a:	681b      	ldr	r3, [r3, #0]
 800295c:	f003 030f 	and.w	r3, r3, #15
 8002960:	683a      	ldr	r2, [r7, #0]
 8002962:	429a      	cmp	r2, r3
 8002964:	d90c      	bls.n	8002980 <HAL_RCC_ClockConfig+0x3c>
 8002966:	4b65      	ldr	r3, [pc, #404]	; (8002afc <HAL_RCC_ClockConfig+0x1b8>)
 8002968:	683a      	ldr	r2, [r7, #0]
 800296a:	b2d2      	uxtb	r2, r2
 800296c:	701a      	strb	r2, [r3, #0]
 800296e:	4b63      	ldr	r3, [pc, #396]	; (8002afc <HAL_RCC_ClockConfig+0x1b8>)
 8002970:	681b      	ldr	r3, [r3, #0]
 8002972:	f003 030f 	and.w	r3, r3, #15
 8002976:	683a      	ldr	r2, [r7, #0]
 8002978:	429a      	cmp	r2, r3
 800297a:	d001      	beq.n	8002980 <HAL_RCC_ClockConfig+0x3c>
 800297c:	2301      	movs	r3, #1
 800297e:	e0b8      	b.n	8002af2 <HAL_RCC_ClockConfig+0x1ae>
 8002980:	687b      	ldr	r3, [r7, #4]
 8002982:	681b      	ldr	r3, [r3, #0]
 8002984:	f003 0302 	and.w	r3, r3, #2
 8002988:	2b00      	cmp	r3, #0
 800298a:	d020      	beq.n	80029ce <HAL_RCC_ClockConfig+0x8a>
 800298c:	687b      	ldr	r3, [r7, #4]
 800298e:	681b      	ldr	r3, [r3, #0]
 8002990:	f003 0304 	and.w	r3, r3, #4
 8002994:	2b00      	cmp	r3, #0
 8002996:	d005      	beq.n	80029a4 <HAL_RCC_ClockConfig+0x60>
 8002998:	4b59      	ldr	r3, [pc, #356]	; (8002b00 <HAL_RCC_ClockConfig+0x1bc>)
 800299a:	689b      	ldr	r3, [r3, #8]
 800299c:	4a58      	ldr	r2, [pc, #352]	; (8002b00 <HAL_RCC_ClockConfig+0x1bc>)
 800299e:	f443 53e0 	orr.w	r3, r3, #7168	; 0x1c00
 80029a2:	6093      	str	r3, [r2, #8]
 80029a4:	687b      	ldr	r3, [r7, #4]
 80029a6:	681b      	ldr	r3, [r3, #0]
 80029a8:	f003 0308 	and.w	r3, r3, #8
 80029ac:	2b00      	cmp	r3, #0
 80029ae:	d005      	beq.n	80029bc <HAL_RCC_ClockConfig+0x78>
 80029b0:	4b53      	ldr	r3, [pc, #332]	; (8002b00 <HAL_RCC_ClockConfig+0x1bc>)
 80029b2:	689b      	ldr	r3, [r3, #8]
 80029b4:	4a52      	ldr	r2, [pc, #328]	; (8002b00 <HAL_RCC_ClockConfig+0x1bc>)
 80029b6:	f443 4360 	orr.w	r3, r3, #57344	; 0xe000
 80029ba:	6093      	str	r3, [r2, #8]
 80029bc:	4b50      	ldr	r3, [pc, #320]	; (8002b00 <HAL_RCC_ClockConfig+0x1bc>)
 80029be:	689b      	ldr	r3, [r3, #8]
 80029c0:	f023 02f0 	bic.w	r2, r3, #240	; 0xf0
 80029c4:	687b      	ldr	r3, [r7, #4]
 80029c6:	689b      	ldr	r3, [r3, #8]
 80029c8:	494d      	ldr	r1, [pc, #308]	; (8002b00 <HAL_RCC_ClockConfig+0x1bc>)
 80029ca:	4313      	orrs	r3, r2
 80029cc:	608b      	str	r3, [r1, #8]
 80029ce:	687b      	ldr	r3, [r7, #4]
 80029d0:	681b      	ldr	r3, [r3, #0]
 80029d2:	f003 0301 	and.w	r3, r3, #1
 80029d6:	2b00      	cmp	r3, #0
 80029d8:	d044      	beq.n	8002a64 <HAL_RCC_ClockConfig+0x120>
 80029da:	687b      	ldr	r3, [r7, #4]
 80029dc:	685b      	ldr	r3, [r3, #4]
 80029de:	2b01      	cmp	r3, #1
 80029e0:	d107      	bne.n	80029f2 <HAL_RCC_ClockConfig+0xae>
 80029e2:	4b47      	ldr	r3, [pc, #284]	; (8002b00 <HAL_RCC_ClockConfig+0x1bc>)
 80029e4:	681b      	ldr	r3, [r3, #0]
 80029e6:	f403 3300 	and.w	r3, r3, #131072	; 0x20000
 80029ea:	2b00      	cmp	r3, #0
 80029ec:	d119      	bne.n	8002a22 <HAL_RCC_ClockConfig+0xde>
 80029ee:	2301      	movs	r3, #1
 80029f0:	e07f      	b.n	8002af2 <HAL_RCC_ClockConfig+0x1ae>
 80029f2:	687b      	ldr	r3, [r7, #4]
 80029f4:	685b      	ldr	r3, [r3, #4]
 80029f6:	2b02      	cmp	r3, #2
 80029f8:	d003      	beq.n	8002a02 <HAL_RCC_ClockConfig+0xbe>
 80029fa:	687b      	ldr	r3, [r7, #4]
 80029fc:	685b      	ldr	r3, [r3, #4]
 80029fe:	2b03      	cmp	r3, #3
 8002a00:	d107      	bne.n	8002a12 <HAL_RCC_ClockConfig+0xce>
 8002a02:	4b3f      	ldr	r3, [pc, #252]	; (8002b00 <HAL_RCC_ClockConfig+0x1bc>)
 8002a04:	681b      	ldr	r3, [r3, #0]
 8002a06:	f003 7300 	and.w	r3, r3, #33554432	; 0x2000000
 8002a0a:	2b00      	cmp	r3, #0
 8002a0c:	d109      	bne.n	8002a22 <HAL_RCC_ClockConfig+0xde>
 8002a0e:	2301      	movs	r3, #1
 8002a10:	e06f      	b.n	8002af2 <HAL_RCC_ClockConfig+0x1ae>
 8002a12:	4b3b      	ldr	r3, [pc, #236]	; (8002b00 <HAL_RCC_ClockConfig+0x1bc>)
 8002a14:	681b      	ldr	r3, [r3, #0]
 8002a16:	f003 0302 	and.w	r3, r3, #2
 8002a1a:	2b00      	cmp	r3, #0
 8002a1c:	d101      	bne.n	8002a22 <HAL_RCC_ClockConfig+0xde>
 8002a1e:	2301      	movs	r3, #1
 8002a20:	e067      	b.n	8002af2 <HAL_RCC_ClockConfig+0x1ae>
 8002a22:	4b37      	ldr	r3, [pc, #220]	; (8002b00 <HAL_RCC_ClockConfig+0x1bc>)
 8002a24:	689b      	ldr	r3, [r3, #8]
 8002a26:	f023 0203 	bic.w	r2, r3, #3
 8002a2a:	687b      	ldr	r3, [r7, #4]
 8002a2c:	685b      	ldr	r3, [r3, #4]
 8002a2e:	4934      	ldr	r1, [pc, #208]	; (8002b00 <HAL_RCC_ClockConfig+0x1bc>)
 8002a30:	4313      	orrs	r3, r2
 8002a32:	608b      	str	r3, [r1, #8]
 8002a34:	f7fe fc9c 	bl	8001370 <HAL_GetTick>
 8002a38:	60f8      	str	r0, [r7, #12]
 8002a3a:	e00a      	b.n	8002a52 <HAL_RCC_ClockConfig+0x10e>
 8002a3c:	f7fe fc98 	bl	8001370 <HAL_GetTick>
 8002a40:	4602      	mov	r2, r0
 8002a42:	68fb      	ldr	r3, [r7, #12]
 8002a44:	1ad3      	subs	r3, r2, r3
 8002a46:	f241 3288 	movw	r2, #5000	; 0x1388
 8002a4a:	4293      	cmp	r3, r2
 8002a4c:	d901      	bls.n	8002a52 <HAL_RCC_ClockConfig+0x10e>
 8002a4e:	2303      	movs	r3, #3
 8002a50:	e04f      	b.n	8002af2 <HAL_RCC_ClockConfig+0x1ae>
 8002a52:	4b2b      	ldr	r3, [pc, #172]	; (8002b00 <HAL_RCC_ClockConfig+0x1bc>)
 8002a54:	689b      	ldr	r3, [r3, #8]
 8002a56:	f003 020c 	and.w	r2, r3, #12
 8002a5a:	687b      	ldr	r3, [r7, #4]
 8002a5c:	685b      	ldr	r3, [r3, #4]
 8002a5e:	009b      	lsls	r3, r3, #2
 8002a60:	429a      	cmp	r2, r3
 8002a62:	d1eb      	bne.n	8002a3c <HAL_RCC_ClockConfig+0xf8>
 8002a64:	4b25      	ldr	r3, [pc, #148]	; (8002afc <HAL_RCC_ClockConfig+0x1b8>)
 8002a66:	681b      	ldr	r3, [r3, #0]
 8002a68:	f003 030f 	and.w	r3, r3, #15
 8002a6c:	683a      	ldr	r2, [r7, #0]
 8002a6e:	429a      	cmp	r2, r3
 8002a70:	d20c      	bcs.n	8002a8c <HAL_RCC_ClockConfig+0x148>
 8002a72:	4b22      	ldr	r3, [pc, #136]	; (8002afc <HAL_RCC_ClockConfig+0x1b8>)
 8002a74:	683a      	ldr	r2, [r7, #0]
 8002a76:	b2d2      	uxtb	r2, r2
 8002a78:	701a      	strb	r2, [r3, #0]
 8002a7a:	4b20      	ldr	r3, [pc, #128]	; (8002afc <HAL_RCC_ClockConfig+0x1b8>)
 8002a7c:	681b      	ldr	r3, [r3, #0]
 8002a7e:	f003 030f 	and.w	r3, r3, #15
 8002a82:	683a      	ldr	r2, [r7, #0]
 8002a84:	429a      	cmp	r2, r3
 8002a86:	d001      	beq.n	8002a8c <HAL_RCC_ClockConfig+0x148>
 8002a88:	2301      	movs	r3, #1
 8002a8a:	e032      	b.n	8002af2 <HAL_RCC_ClockConfig+0x1ae>
 8002a8c:	687b      	ldr	r3, [r7, #4]
 8002a8e:	681b      	ldr	r3, [r3, #0]
 8002a90:	f003 0304 	and.w	r3, r3, #4
 8002a94:	2b00      	cmp	r3, #0
 8002a96:	d008      	beq.n	8002aaa <HAL_RCC_ClockConfig+0x166>
 8002a98:	4b19      	ldr	r3, [pc, #100]	; (8002b00 <HAL_RCC_ClockConfig+0x1bc>)
 8002a9a:	689b      	ldr	r3, [r3, #8]
 8002a9c:	f423 52e0 	bic.w	r2, r3, #7168	; 0x1c00
 8002aa0:	687b      	ldr	r3, [r7, #4]
 8002aa2:	68db      	ldr	r3, [r3, #12]
 8002aa4:	4916      	ldr	r1, [pc, #88]	; (8002b00 <HAL_RCC_ClockConfig+0x1bc>)
 8002aa6:	4313      	orrs	r3, r2
 8002aa8:	608b      	str	r3, [r1, #8]
 8002aaa:	687b      	ldr	r3, [r7, #4]
 8002aac:	681b      	ldr	r3, [r3, #0]
 8002aae:	f003 0308 	and.w	r3, r3, #8
 8002ab2:	2b00      	cmp	r3, #0
 8002ab4:	d009      	beq.n	8002aca <HAL_RCC_ClockConfig+0x186>
 8002ab6:	4b12      	ldr	r3, [pc, #72]	; (8002b00 <HAL_RCC_ClockConfig+0x1bc>)
 8002ab8:	689b      	ldr	r3, [r3, #8]
 8002aba:	f423 4260 	bic.w	r2, r3, #57344	; 0xe000
 8002abe:	687b      	ldr	r3, [r7, #4]
 8002ac0:	691b      	ldr	r3, [r3, #16]
 8002ac2:	00db      	lsls	r3, r3, #3
 8002ac4:	490e      	ldr	r1, [pc, #56]	; (8002b00 <HAL_RCC_ClockConfig+0x1bc>)
 8002ac6:	4313      	orrs	r3, r2
 8002ac8:	608b      	str	r3, [r1, #8]
 8002aca:	f000 f855 	bl	8002b78 <HAL_RCC_GetSysClockFreq>
 8002ace:	4602      	mov	r2, r0
 8002ad0:	4b0b      	ldr	r3, [pc, #44]	; (8002b00 <HAL_RCC_ClockConfig+0x1bc>)
 8002ad2:	689b      	ldr	r3, [r3, #8]
 8002ad4:	091b      	lsrs	r3, r3, #4
 8002ad6:	f003 030f 	and.w	r3, r3, #15
 8002ada:	490a      	ldr	r1, [pc, #40]	; (8002b04 <HAL_RCC_ClockConfig+0x1c0>)
 8002adc:	5ccb      	ldrb	r3, [r1, r3]
 8002ade:	fa22 f303 	lsr.w	r3, r2, r3
 8002ae2:	4a09      	ldr	r2, [pc, #36]	; (8002b08 <HAL_RCC_ClockConfig+0x1c4>)
 8002ae4:	6013      	str	r3, [r2, #0]
 8002ae6:	4b09      	ldr	r3, [pc, #36]	; (8002b0c <HAL_RCC_ClockConfig+0x1c8>)
 8002ae8:	681b      	ldr	r3, [r3, #0]
 8002aea:	4618      	mov	r0, r3
 8002aec:	f7fe fbfc 	bl	80012e8 <HAL_InitTick>
 8002af0:	2300      	movs	r3, #0
 8002af2:	4618      	mov	r0, r3
 8002af4:	3710      	adds	r7, #16
 8002af6:	46bd      	mov	sp, r7
 8002af8:	bd80      	pop	{r7, pc}
 8002afa:	bf00      	nop
 8002afc:	40023c00 	.word	0x40023c00
 8002b00:	40023800 	.word	0x40023800
 8002b04:	08005cf0 	.word	0x08005cf0
 8002b08:	20000000 	.word	0x20000000
 8002b0c:	20000004 	.word	0x20000004

08002b10 <HAL_RCC_GetHCLKFreq>:
 8002b10:	b480      	push	{r7}
 8002b12:	af00      	add	r7, sp, #0
 8002b14:	4b03      	ldr	r3, [pc, #12]	; (8002b24 <HAL_RCC_GetHCLKFreq+0x14>)
 8002b16:	681b      	ldr	r3, [r3, #0]
 8002b18:	4618      	mov	r0, r3
 8002b1a:	46bd      	mov	sp, r7
 8002b1c:	f85d 7b04 	ldr.w	r7, [sp], #4
 8002b20:	4770      	bx	lr
 8002b22:	bf00      	nop
 8002b24:	20000000 	.word	0x20000000

08002b28 <HAL_RCC_GetPCLK1Freq>:
 8002b28:	b580      	push	{r7, lr}
 8002b2a:	af00      	add	r7, sp, #0
 8002b2c:	f7ff fff0 	bl	8002b10 <HAL_RCC_GetHCLKFreq>
 8002b30:	4602      	mov	r2, r0
 8002b32:	4b05      	ldr	r3, [pc, #20]	; (8002b48 <HAL_RCC_GetPCLK1Freq+0x20>)
 8002b34:	689b      	ldr	r3, [r3, #8]
 8002b36:	0a9b      	lsrs	r3, r3, #10
 8002b38:	f003 0307 	and.w	r3, r3, #7
 8002b3c:	4903      	ldr	r1, [pc, #12]	; (8002b4c <HAL_RCC_GetPCLK1Freq+0x24>)
 8002b3e:	5ccb      	ldrb	r3, [r1, r3]
 8002b40:	fa22 f303 	lsr.w	r3, r2, r3
 8002b44:	4618      	mov	r0, r3
 8002b46:	bd80      	pop	{r7, pc}
 8002b48:	40023800 	.word	0x40023800
 8002b4c:	08005d00 	.word	0x08005d00

08002b50 <HAL_RCC_GetPCLK2Freq>:
 8002b50:	b580      	push	{r7, lr}
 8002b52:	af00      	add	r7, sp, #0
 8002b54:	f7ff ffdc 	bl	8002b10 <HAL_RCC_GetHCLKFreq>
 8002b58:	4602      	mov	r2, r0
 8002b5a:	4b05      	ldr	r3, [pc, #20]	; (8002b70 <HAL_RCC_GetPCLK2Freq+0x20>)
 8002b5c:	689b      	ldr	r3, [r3, #8]
 8002b5e:	0b5b      	lsrs	r3, r3, #13
 8002b60:	f003 0307 	and.w	r3, r3, #7
 8002b64:	4903      	ldr	r1, [pc, #12]	; (8002b74 <HAL_RCC_GetPCLK2Freq+0x24>)
 8002b66:	5ccb      	ldrb	r3, [r1, r3]
 8002b68:	fa22 f303 	lsr.w	r3, r2, r3
 8002b6c:	4618      	mov	r0, r3
 8002b6e:	bd80      	pop	{r7, pc}
 8002b70:	40023800 	.word	0x40023800
 8002b74:	08005d00 	.word	0x08005d00

08002b78 <HAL_RCC_GetSysClockFreq>:
 8002b78:	e92d 4fb0 	stmdb	sp!, {r4, r5, r7, r8, r9, sl, fp, lr}
 8002b7c:	b088      	sub	sp, #32
 8002b7e:	af00      	add	r7, sp, #0
 8002b80:	2300      	movs	r3, #0
 8002b82:	617b      	str	r3, [r7, #20]
 8002b84:	2300      	movs	r3, #0
 8002b86:	61fb      	str	r3, [r7, #28]
 8002b88:	2300      	movs	r3, #0
 8002b8a:	613b      	str	r3, [r7, #16]
 8002b8c:	2300      	movs	r3, #0
 8002b8e:	60fb      	str	r3, [r7, #12]
 8002b90:	2300      	movs	r3, #0
 8002b92:	61bb      	str	r3, [r7, #24]
 8002b94:	4bce      	ldr	r3, [pc, #824]	; (8002ed0 <HAL_RCC_GetSysClockFreq+0x358>)
 8002b96:	689b      	ldr	r3, [r3, #8]
 8002b98:	f003 030c 	and.w	r3, r3, #12
 8002b9c:	2b0c      	cmp	r3, #12
 8002b9e:	f200 818d 	bhi.w	8002ebc <HAL_RCC_GetSysClockFreq+0x344>
 8002ba2:	a201      	add	r2, pc, #4	; (adr r2, 8002ba8 <HAL_RCC_GetSysClockFreq+0x30>)
 8002ba4:	f852 f023 	ldr.w	pc, [r2, r3, lsl #2]
 8002ba8:	08002bdd 	.word	0x08002bdd
 8002bac:	08002ebd 	.word	0x08002ebd
 8002bb0:	08002ebd 	.word	0x08002ebd
 8002bb4:	08002ebd 	.word	0x08002ebd
 8002bb8:	08002be3 	.word	0x08002be3
 8002bbc:	08002ebd 	.word	0x08002ebd
 8002bc0:	08002ebd 	.word	0x08002ebd
 8002bc4:	08002ebd 	.word	0x08002ebd
 8002bc8:	08002be9 	.word	0x08002be9
 8002bcc:	08002ebd 	.word	0x08002ebd
 8002bd0:	08002ebd 	.word	0x08002ebd
 8002bd4:	08002ebd 	.word	0x08002ebd
 8002bd8:	08002d5d 	.word	0x08002d5d
 8002bdc:	4bbd      	ldr	r3, [pc, #756]	; (8002ed4 <HAL_RCC_GetSysClockFreq+0x35c>)
 8002bde:	61bb      	str	r3, [r7, #24]
 8002be0:	e16f      	b.n	8002ec2 <HAL_RCC_GetSysClockFreq+0x34a>
 8002be2:	4bbd      	ldr	r3, [pc, #756]	; (8002ed8 <HAL_RCC_GetSysClockFreq+0x360>)
 8002be4:	61bb      	str	r3, [r7, #24]
 8002be6:	e16c      	b.n	8002ec2 <HAL_RCC_GetSysClockFreq+0x34a>
 8002be8:	4bb9      	ldr	r3, [pc, #740]	; (8002ed0 <HAL_RCC_GetSysClockFreq+0x358>)
 8002bea:	685b      	ldr	r3, [r3, #4]
 8002bec:	f003 033f 	and.w	r3, r3, #63	; 0x3f
 8002bf0:	617b      	str	r3, [r7, #20]
 8002bf2:	4bb7      	ldr	r3, [pc, #732]	; (8002ed0 <HAL_RCC_GetSysClockFreq+0x358>)
 8002bf4:	685b      	ldr	r3, [r3, #4]
 8002bf6:	f403 0380 	and.w	r3, r3, #4194304	; 0x400000
 8002bfa:	2b00      	cmp	r3, #0
 8002bfc:	d053      	beq.n	8002ca6 <HAL_RCC_GetSysClockFreq+0x12e>
 8002bfe:	4bb4      	ldr	r3, [pc, #720]	; (8002ed0 <HAL_RCC_GetSysClockFreq+0x358>)
 8002c00:	685b      	ldr	r3, [r3, #4]
 8002c02:	099b      	lsrs	r3, r3, #6
 8002c04:	461a      	mov	r2, r3
 8002c06:	f04f 0300 	mov.w	r3, #0
 8002c0a:	f240 10ff 	movw	r0, #511	; 0x1ff
 8002c0e:	f04f 0100 	mov.w	r1, #0
 8002c12:	ea02 0400 	and.w	r4, r2, r0
 8002c16:	603c      	str	r4, [r7, #0]
 8002c18:	400b      	ands	r3, r1
 8002c1a:	607b      	str	r3, [r7, #4]
 8002c1c:	e9d7 4500 	ldrd	r4, r5, [r7]
 8002c20:	4620      	mov	r0, r4
 8002c22:	4629      	mov	r1, r5
 8002c24:	f04f 0200 	mov.w	r2, #0
 8002c28:	f04f 0300 	mov.w	r3, #0
 8002c2c:	014b      	lsls	r3, r1, #5
 8002c2e:	ea43 63d0 	orr.w	r3, r3, r0, lsr #27
 8002c32:	0142      	lsls	r2, r0, #5
 8002c34:	4610      	mov	r0, r2
 8002c36:	4619      	mov	r1, r3
 8002c38:	4623      	mov	r3, r4
 8002c3a:	1ac0      	subs	r0, r0, r3
 8002c3c:	462b      	mov	r3, r5
 8002c3e:	eb61 0103 	sbc.w	r1, r1, r3
 8002c42:	f04f 0200 	mov.w	r2, #0
 8002c46:	f04f 0300 	mov.w	r3, #0
 8002c4a:	018b      	lsls	r3, r1, #6
 8002c4c:	ea43 6390 	orr.w	r3, r3, r0, lsr #26
 8002c50:	0182      	lsls	r2, r0, #6
 8002c52:	1a12      	subs	r2, r2, r0
 8002c54:	eb63 0301 	sbc.w	r3, r3, r1
 8002c58:	f04f 0000 	mov.w	r0, #0
 8002c5c:	f04f 0100 	mov.w	r1, #0
 8002c60:	00d9      	lsls	r1, r3, #3
 8002c62:	ea41 7152 	orr.w	r1, r1, r2, lsr #29
 8002c66:	00d0      	lsls	r0, r2, #3
 8002c68:	4602      	mov	r2, r0
 8002c6a:	460b      	mov	r3, r1
 8002c6c:	4621      	mov	r1, r4
 8002c6e:	1852      	adds	r2, r2, r1
 8002c70:	4629      	mov	r1, r5
 8002c72:	eb43 0101 	adc.w	r1, r3, r1
 8002c76:	460b      	mov	r3, r1
 8002c78:	f04f 0000 	mov.w	r0, #0
 8002c7c:	f04f 0100 	mov.w	r1, #0
 8002c80:	0259      	lsls	r1, r3, #9
 8002c82:	ea41 51d2 	orr.w	r1, r1, r2, lsr #23
 8002c86:	0250      	lsls	r0, r2, #9
 8002c88:	4602      	mov	r2, r0
 8002c8a:	460b      	mov	r3, r1
 8002c8c:	4610      	mov	r0, r2
 8002c8e:	4619      	mov	r1, r3
 8002c90:	697b      	ldr	r3, [r7, #20]
 8002c92:	461a      	mov	r2, r3
 8002c94:	f04f 0300 	mov.w	r3, #0
 8002c98:	f7fd fab4 	bl	8000204 <__aeabi_uldivmod>
 8002c9c:	4602      	mov	r2, r0
 8002c9e:	460b      	mov	r3, r1
 8002ca0:	4613      	mov	r3, r2
 8002ca2:	61fb      	str	r3, [r7, #28]
 8002ca4:	e04c      	b.n	8002d40 <HAL_RCC_GetSysClockFreq+0x1c8>
 8002ca6:	4b8a      	ldr	r3, [pc, #552]	; (8002ed0 <HAL_RCC_GetSysClockFreq+0x358>)
 8002ca8:	685b      	ldr	r3, [r3, #4]
 8002caa:	099b      	lsrs	r3, r3, #6
 8002cac:	461a      	mov	r2, r3
 8002cae:	f04f 0300 	mov.w	r3, #0
 8002cb2:	f240 10ff 	movw	r0, #511	; 0x1ff
 8002cb6:	f04f 0100 	mov.w	r1, #0
 8002cba:	ea02 0a00 	and.w	sl, r2, r0
 8002cbe:	ea03 0b01 	and.w	fp, r3, r1
 8002cc2:	4650      	mov	r0, sl
 8002cc4:	4659      	mov	r1, fp
 8002cc6:	f04f 0200 	mov.w	r2, #0
 8002cca:	f04f 0300 	mov.w	r3, #0
 8002cce:	014b      	lsls	r3, r1, #5
 8002cd0:	ea43 63d0 	orr.w	r3, r3, r0, lsr #27
 8002cd4:	0142      	lsls	r2, r0, #5
 8002cd6:	4610      	mov	r0, r2
 8002cd8:	4619      	mov	r1, r3
 8002cda:	ebb0 000a 	subs.w	r0, r0, sl
 8002cde:	eb61 010b 	sbc.w	r1, r1, fp
 8002ce2:	f04f 0200 	mov.w	r2, #0
 8002ce6:	f04f 0300 	mov.w	r3, #0
 8002cea:	018b      	lsls	r3, r1, #6
 8002cec:	ea43 6390 	orr.w	r3, r3, r0, lsr #26
 8002cf0:	0182      	lsls	r2, r0, #6
 8002cf2:	1a12      	subs	r2, r2, r0
 8002cf4:	eb63 0301 	sbc.w	r3, r3, r1
 8002cf8:	f04f 0000 	mov.w	r0, #0
 8002cfc:	f04f 0100 	mov.w	r1, #0
 8002d00:	00d9      	lsls	r1, r3, #3
 8002d02:	ea41 7152 	orr.w	r1, r1, r2, lsr #29
 8002d06:	00d0      	lsls	r0, r2, #3
 8002d08:	4602      	mov	r2, r0
 8002d0a:	460b      	mov	r3, r1
 8002d0c:	eb12 020a 	adds.w	r2, r2, sl
 8002d10:	eb43 030b 	adc.w	r3, r3, fp
 8002d14:	f04f 0000 	mov.w	r0, #0
 8002d18:	f04f 0100 	mov.w	r1, #0
 8002d1c:	0299      	lsls	r1, r3, #10
 8002d1e:	ea41 5192 	orr.w	r1, r1, r2, lsr #22
 8002d22:	0290      	lsls	r0, r2, #10
 8002d24:	4602      	mov	r2, r0
 8002d26:	460b      	mov	r3, r1
 8002d28:	4610      	mov	r0, r2
 8002d2a:	4619      	mov	r1, r3
 8002d2c:	697b      	ldr	r3, [r7, #20]
 8002d2e:	461a      	mov	r2, r3
 8002d30:	f04f 0300 	mov.w	r3, #0
 8002d34:	f7fd fa66 	bl	8000204 <__aeabi_uldivmod>
 8002d38:	4602      	mov	r2, r0
 8002d3a:	460b      	mov	r3, r1
 8002d3c:	4613      	mov	r3, r2
 8002d3e:	61fb      	str	r3, [r7, #28]
 8002d40:	4b63      	ldr	r3, [pc, #396]	; (8002ed0 <HAL_RCC_GetSysClockFreq+0x358>)
 8002d42:	685b      	ldr	r3, [r3, #4]
 8002d44:	0c1b      	lsrs	r3, r3, #16
 8002d46:	f003 0303 	and.w	r3, r3, #3
 8002d4a:	3301      	adds	r3, #1
 8002d4c:	005b      	lsls	r3, r3, #1
 8002d4e:	613b      	str	r3, [r7, #16]
 8002d50:	69fa      	ldr	r2, [r7, #28]
 8002d52:	693b      	ldr	r3, [r7, #16]
 8002d54:	fbb2 f3f3 	udiv	r3, r2, r3
 8002d58:	61bb      	str	r3, [r7, #24]
 8002d5a:	e0b2      	b.n	8002ec2 <HAL_RCC_GetSysClockFreq+0x34a>
 8002d5c:	4b5c      	ldr	r3, [pc, #368]	; (8002ed0 <HAL_RCC_GetSysClockFreq+0x358>)
 8002d5e:	685b      	ldr	r3, [r3, #4]
 8002d60:	f003 033f 	and.w	r3, r3, #63	; 0x3f
 8002d64:	617b      	str	r3, [r7, #20]
 8002d66:	4b5a      	ldr	r3, [pc, #360]	; (8002ed0 <HAL_RCC_GetSysClockFreq+0x358>)
 8002d68:	685b      	ldr	r3, [r3, #4]
 8002d6a:	f403 0380 	and.w	r3, r3, #4194304	; 0x400000
 8002d6e:	2b00      	cmp	r3, #0
 8002d70:	d04d      	beq.n	8002e0e <HAL_RCC_GetSysClockFreq+0x296>
 8002d72:	4b57      	ldr	r3, [pc, #348]	; (8002ed0 <HAL_RCC_GetSysClockFreq+0x358>)
 8002d74:	685b      	ldr	r3, [r3, #4]
 8002d76:	099b      	lsrs	r3, r3, #6
 8002d78:	461a      	mov	r2, r3
 8002d7a:	f04f 0300 	mov.w	r3, #0
 8002d7e:	f240 10ff 	movw	r0, #511	; 0x1ff
 8002d82:	f04f 0100 	mov.w	r1, #0
 8002d86:	ea02 0800 	and.w	r8, r2, r0
 8002d8a:	ea03 0901 	and.w	r9, r3, r1
 8002d8e:	4640      	mov	r0, r8
 8002d90:	4649      	mov	r1, r9
 8002d92:	f04f 0200 	mov.w	r2, #0
 8002d96:	f04f 0300 	mov.w	r3, #0
 8002d9a:	014b      	lsls	r3, r1, #5
 8002d9c:	ea43 63d0 	orr.w	r3, r3, r0, lsr #27
 8002da0:	0142      	lsls	r2, r0, #5
 8002da2:	4610      	mov	r0, r2
 8002da4:	4619      	mov	r1, r3
 8002da6:	ebb0 0008 	subs.w	r0, r0, r8
 8002daa:	eb61 0109 	sbc.w	r1, r1, r9
 8002dae:	f04f 0200 	mov.w	r2, #0
 8002db2:	f04f 0300 	mov.w	r3, #0
 8002db6:	018b      	lsls	r3, r1, #6
 8002db8:	ea43 6390 	orr.w	r3, r3, r0, lsr #26
 8002dbc:	0182      	lsls	r2, r0, #6
 8002dbe:	1a12      	subs	r2, r2, r0
 8002dc0:	eb63 0301 	sbc.w	r3, r3, r1
 8002dc4:	f04f 0000 	mov.w	r0, #0
 8002dc8:	f04f 0100 	mov.w	r1, #0
 8002dcc:	00d9      	lsls	r1, r3, #3
 8002dce:	ea41 7152 	orr.w	r1, r1, r2, lsr #29
 8002dd2:	00d0      	lsls	r0, r2, #3
 8002dd4:	4602      	mov	r2, r0
 8002dd6:	460b      	mov	r3, r1
 8002dd8:	eb12 0208 	adds.w	r2, r2, r8
 8002ddc:	eb43 0309 	adc.w	r3, r3, r9
 8002de0:	f04f 0000 	mov.w	r0, #0
 8002de4:	f04f 0100 	mov.w	r1, #0
 8002de8:	0259      	lsls	r1, r3, #9
 8002dea:	ea41 51d2 	orr.w	r1, r1, r2, lsr #23
 8002dee:	0250      	lsls	r0, r2, #9
 8002df0:	4602      	mov	r2, r0
 8002df2:	460b      	mov	r3, r1
 8002df4:	4610      	mov	r0, r2
 8002df6:	4619      	mov	r1, r3
 8002df8:	697b      	ldr	r3, [r7, #20]
 8002dfa:	461a      	mov	r2, r3
 8002dfc:	f04f 0300 	mov.w	r3, #0
 8002e00:	f7fd fa00 	bl	8000204 <__aeabi_uldivmod>
 8002e04:	4602      	mov	r2, r0
 8002e06:	460b      	mov	r3, r1
 8002e08:	4613      	mov	r3, r2
 8002e0a:	61fb      	str	r3, [r7, #28]
 8002e0c:	e04a      	b.n	8002ea4 <HAL_RCC_GetSysClockFreq+0x32c>
 8002e0e:	4b30      	ldr	r3, [pc, #192]	; (8002ed0 <HAL_RCC_GetSysClockFreq+0x358>)
 8002e10:	685b      	ldr	r3, [r3, #4]
 8002e12:	099b      	lsrs	r3, r3, #6
 8002e14:	461a      	mov	r2, r3
 8002e16:	f04f 0300 	mov.w	r3, #0
 8002e1a:	f240 10ff 	movw	r0, #511	; 0x1ff
 8002e1e:	f04f 0100 	mov.w	r1, #0
 8002e22:	ea02 0400 	and.w	r4, r2, r0
 8002e26:	ea03 0501 	and.w	r5, r3, r1
 8002e2a:	4620      	mov	r0, r4
 8002e2c:	4629      	mov	r1, r5
 8002e2e:	f04f 0200 	mov.w	r2, #0
 8002e32:	f04f 0300 	mov.w	r3, #0
 8002e36:	014b      	lsls	r3, r1, #5
 8002e38:	ea43 63d0 	orr.w	r3, r3, r0, lsr #27
 8002e3c:	0142      	lsls	r2, r0, #5
 8002e3e:	4610      	mov	r0, r2
 8002e40:	4619      	mov	r1, r3
 8002e42:	1b00      	subs	r0, r0, r4
 8002e44:	eb61 0105 	sbc.w	r1, r1, r5
 8002e48:	f04f 0200 	mov.w	r2, #0
 8002e4c:	f04f 0300 	mov.w	r3, #0
 8002e50:	018b      	lsls	r3, r1, #6
 8002e52:	ea43 6390 	orr.w	r3, r3, r0, lsr #26
 8002e56:	0182      	lsls	r2, r0, #6
 8002e58:	1a12      	subs	r2, r2, r0
 8002e5a:	eb63 0301 	sbc.w	r3, r3, r1
 8002e5e:	f04f 0000 	mov.w	r0, #0
 8002e62:	f04f 0100 	mov.w	r1, #0
 8002e66:	00d9      	lsls	r1, r3, #3
 8002e68:	ea41 7152 	orr.w	r1, r1, r2, lsr #29
 8002e6c:	00d0      	lsls	r0, r2, #3
 8002e6e:	4602      	mov	r2, r0
 8002e70:	460b      	mov	r3, r1
 8002e72:	1912      	adds	r2, r2, r4
 8002e74:	eb45 0303 	adc.w	r3, r5, r3
 8002e78:	f04f 0000 	mov.w	r0, #0
 8002e7c:	f04f 0100 	mov.w	r1, #0
 8002e80:	0299      	lsls	r1, r3, #10
 8002e82:	ea41 5192 	orr.w	r1, r1, r2, lsr #22
 8002e86:	0290      	lsls	r0, r2, #10
 8002e88:	4602      	mov	r2, r0
 8002e8a:	460b      	mov	r3, r1
 8002e8c:	4610      	mov	r0, r2
 8002e8e:	4619      	mov	r1, r3
 8002e90:	697b      	ldr	r3, [r7, #20]
 8002e92:	461a      	mov	r2, r3
 8002e94:	f04f 0300 	mov.w	r3, #0
 8002e98:	f7fd f9b4 	bl	8000204 <__aeabi_uldivmod>
 8002e9c:	4602      	mov	r2, r0
 8002e9e:	460b      	mov	r3, r1
 8002ea0:	4613      	mov	r3, r2
 8002ea2:	61fb      	str	r3, [r7, #28]
 8002ea4:	4b0a      	ldr	r3, [pc, #40]	; (8002ed0 <HAL_RCC_GetSysClockFreq+0x358>)
 8002ea6:	685b      	ldr	r3, [r3, #4]
 8002ea8:	0f1b      	lsrs	r3, r3, #28
 8002eaa:	f003 0307 	and.w	r3, r3, #7
 8002eae:	60fb      	str	r3, [r7, #12]
 8002eb0:	69fa      	ldr	r2, [r7, #28]
 8002eb2:	68fb      	ldr	r3, [r7, #12]
 8002eb4:	fbb2 f3f3 	udiv	r3, r2, r3
 8002eb8:	61bb      	str	r3, [r7, #24]
 8002eba:	e002      	b.n	8002ec2 <HAL_RCC_GetSysClockFreq+0x34a>
 8002ebc:	4b05      	ldr	r3, [pc, #20]	; (8002ed4 <HAL_RCC_GetSysClockFreq+0x35c>)
 8002ebe:	61bb      	str	r3, [r7, #24]
 8002ec0:	bf00      	nop
 8002ec2:	69bb      	ldr	r3, [r7, #24]
 8002ec4:	4618      	mov	r0, r3
 8002ec6:	3720      	adds	r7, #32
 8002ec8:	46bd      	mov	sp, r7
 8002eca:	e8bd 8fb0 	ldmia.w	sp!, {r4, r5, r7, r8, r9, sl, fp, pc}
 8002ece:	bf00      	nop
 8002ed0:	40023800 	.word	0x40023800
 8002ed4:	00f42400 	.word	0x00f42400
 8002ed8:	007a1200 	.word	0x007a1200

08002edc <HAL_RCC_OscConfig>:
 8002edc:	b580      	push	{r7, lr}
 8002ede:	b086      	sub	sp, #24
 8002ee0:	af00      	add	r7, sp, #0
 8002ee2:	6078      	str	r0, [r7, #4]
 8002ee4:	2300      	movs	r3, #0
 8002ee6:	613b      	str	r3, [r7, #16]
 8002ee8:	687b      	ldr	r3, [r7, #4]
 8002eea:	681b      	ldr	r3, [r3, #0]
 8002eec:	f003 0301 	and.w	r3, r3, #1
 8002ef0:	2b00      	cmp	r3, #0
 8002ef2:	f000 8083 	beq.w	8002ffc <HAL_RCC_OscConfig+0x120>
 8002ef6:	4b95      	ldr	r3, [pc, #596]	; (800314c <HAL_RCC_OscConfig+0x270>)
 8002ef8:	689b      	ldr	r3, [r3, #8]
 8002efa:	f003 030c 	and.w	r3, r3, #12
 8002efe:	2b04      	cmp	r3, #4
 8002f00:	d019      	beq.n	8002f36 <HAL_RCC_OscConfig+0x5a>
 8002f02:	4b92      	ldr	r3, [pc, #584]	; (800314c <HAL_RCC_OscConfig+0x270>)
 8002f04:	689b      	ldr	r3, [r3, #8]
 8002f06:	f003 030c 	and.w	r3, r3, #12
 8002f0a:	2b08      	cmp	r3, #8
 8002f0c:	d106      	bne.n	8002f1c <HAL_RCC_OscConfig+0x40>
 8002f0e:	4b8f      	ldr	r3, [pc, #572]	; (800314c <HAL_RCC_OscConfig+0x270>)
 8002f10:	685b      	ldr	r3, [r3, #4]
 8002f12:	f403 0380 	and.w	r3, r3, #4194304	; 0x400000
 8002f16:	f5b3 0f80 	cmp.w	r3, #4194304	; 0x400000
 8002f1a:	d00c      	beq.n	8002f36 <HAL_RCC_OscConfig+0x5a>
 8002f1c:	4b8b      	ldr	r3, [pc, #556]	; (800314c <HAL_RCC_OscConfig+0x270>)
 8002f1e:	689b      	ldr	r3, [r3, #8]
 8002f20:	f003 030c 	and.w	r3, r3, #12
 8002f24:	2b0c      	cmp	r3, #12
 8002f26:	d112      	bne.n	8002f4e <HAL_RCC_OscConfig+0x72>
 8002f28:	4b88      	ldr	r3, [pc, #544]	; (800314c <HAL_RCC_OscConfig+0x270>)
 8002f2a:	685b      	ldr	r3, [r3, #4]
 8002f2c:	f403 0380 	and.w	r3, r3, #4194304	; 0x400000
 8002f30:	f5b3 0f80 	cmp.w	r3, #4194304	; 0x400000
 8002f34:	d10b      	bne.n	8002f4e <HAL_RCC_OscConfig+0x72>
 8002f36:	4b85      	ldr	r3, [pc, #532]	; (800314c <HAL_RCC_OscConfig+0x270>)
 8002f38:	681b      	ldr	r3, [r3, #0]
 8002f3a:	f403 3300 	and.w	r3, r3, #131072	; 0x20000
 8002f3e:	2b00      	cmp	r3, #0
 8002f40:	d05b      	beq.n	8002ffa <HAL_RCC_OscConfig+0x11e>
 8002f42:	687b      	ldr	r3, [r7, #4]
 8002f44:	685b      	ldr	r3, [r3, #4]
 8002f46:	2b00      	cmp	r3, #0
 8002f48:	d157      	bne.n	8002ffa <HAL_RCC_OscConfig+0x11e>
 8002f4a:	2301      	movs	r3, #1
 8002f4c:	e216      	b.n	800337c <HAL_RCC_OscConfig+0x4a0>
 8002f4e:	687b      	ldr	r3, [r7, #4]
 8002f50:	685b      	ldr	r3, [r3, #4]
 8002f52:	f5b3 3f80 	cmp.w	r3, #65536	; 0x10000
 8002f56:	d106      	bne.n	8002f66 <HAL_RCC_OscConfig+0x8a>
 8002f58:	4b7c      	ldr	r3, [pc, #496]	; (800314c <HAL_RCC_OscConfig+0x270>)
 8002f5a:	681b      	ldr	r3, [r3, #0]
 8002f5c:	4a7b      	ldr	r2, [pc, #492]	; (800314c <HAL_RCC_OscConfig+0x270>)
 8002f5e:	f443 3380 	orr.w	r3, r3, #65536	; 0x10000
 8002f62:	6013      	str	r3, [r2, #0]
 8002f64:	e01d      	b.n	8002fa2 <HAL_RCC_OscConfig+0xc6>
 8002f66:	687b      	ldr	r3, [r7, #4]
 8002f68:	685b      	ldr	r3, [r3, #4]
 8002f6a:	f5b3 2fa0 	cmp.w	r3, #327680	; 0x50000
 8002f6e:	d10c      	bne.n	8002f8a <HAL_RCC_OscConfig+0xae>
 8002f70:	4b76      	ldr	r3, [pc, #472]	; (800314c <HAL_RCC_OscConfig+0x270>)
 8002f72:	681b      	ldr	r3, [r3, #0]
 8002f74:	4a75      	ldr	r2, [pc, #468]	; (800314c <HAL_RCC_OscConfig+0x270>)
 8002f76:	f443 2380 	orr.w	r3, r3, #262144	; 0x40000
 8002f7a:	6013      	str	r3, [r2, #0]
 8002f7c:	4b73      	ldr	r3, [pc, #460]	; (800314c <HAL_RCC_OscConfig+0x270>)
 8002f7e:	681b      	ldr	r3, [r3, #0]
 8002f80:	4a72      	ldr	r2, [pc, #456]	; (800314c <HAL_RCC_OscConfig+0x270>)
 8002f82:	f443 3380 	orr.w	r3, r3, #65536	; 0x10000
 8002f86:	6013      	str	r3, [r2, #0]
 8002f88:	e00b      	b.n	8002fa2 <HAL_RCC_OscConfig+0xc6>
 8002f8a:	4b70      	ldr	r3, [pc, #448]	; (800314c <HAL_RCC_OscConfig+0x270>)
 8002f8c:	681b      	ldr	r3, [r3, #0]
 8002f8e:	4a6f      	ldr	r2, [pc, #444]	; (800314c <HAL_RCC_OscConfig+0x270>)
 8002f90:	f423 3380 	bic.w	r3, r3, #65536	; 0x10000
 8002f94:	6013      	str	r3, [r2, #0]
 8002f96:	4b6d      	ldr	r3, [pc, #436]	; (800314c <HAL_RCC_OscConfig+0x270>)
 8002f98:	681b      	ldr	r3, [r3, #0]
 8002f9a:	4a6c      	ldr	r2, [pc, #432]	; (800314c <HAL_RCC_OscConfig+0x270>)
 8002f9c:	f423 2380 	bic.w	r3, r3, #262144	; 0x40000
 8002fa0:	6013      	str	r3, [r2, #0]
 8002fa2:	687b      	ldr	r3, [r7, #4]
 8002fa4:	685b      	ldr	r3, [r3, #4]
 8002fa6:	2b00      	cmp	r3, #0
 8002fa8:	d013      	beq.n	8002fd2 <HAL_RCC_OscConfig+0xf6>
 8002faa:	f7fe f9e1 	bl	8001370 <HAL_GetTick>
 8002fae:	6138      	str	r0, [r7, #16]
 8002fb0:	e008      	b.n	8002fc4 <HAL_RCC_OscConfig+0xe8>
 8002fb2:	f7fe f9dd 	bl	8001370 <HAL_GetTick>
 8002fb6:	4602      	mov	r2, r0
 8002fb8:	693b      	ldr	r3, [r7, #16]
 8002fba:	1ad3      	subs	r3, r2, r3
 8002fbc:	2b64      	cmp	r3, #100	; 0x64
 8002fbe:	d901      	bls.n	8002fc4 <HAL_RCC_OscConfig+0xe8>
 8002fc0:	2303      	movs	r3, #3
 8002fc2:	e1db      	b.n	800337c <HAL_RCC_OscConfig+0x4a0>
 8002fc4:	4b61      	ldr	r3, [pc, #388]	; (800314c <HAL_RCC_OscConfig+0x270>)
 8002fc6:	681b      	ldr	r3, [r3, #0]
 8002fc8:	f403 3300 	and.w	r3, r3, #131072	; 0x20000
 8002fcc:	2b00      	cmp	r3, #0
 8002fce:	d0f0      	beq.n	8002fb2 <HAL_RCC_OscConfig+0xd6>
 8002fd0:	e014      	b.n	8002ffc <HAL_RCC_OscConfig+0x120>
 8002fd2:	f7fe f9cd 	bl	8001370 <HAL_GetTick>
 8002fd6:	6138      	str	r0, [r7, #16]
 8002fd8:	e008      	b.n	8002fec <HAL_RCC_OscConfig+0x110>
 8002fda:	f7fe f9c9 	bl	8001370 <HAL_GetTick>
 8002fde:	4602      	mov	r2, r0
 8002fe0:	693b      	ldr	r3, [r7, #16]
 8002fe2:	1ad3      	subs	r3, r2, r3
 8002fe4:	2b64      	cmp	r3, #100	; 0x64
 8002fe6:	d901      	bls.n	8002fec <HAL_RCC_OscConfig+0x110>
 8002fe8:	2303      	movs	r3, #3
 8002fea:	e1c7      	b.n	800337c <HAL_RCC_OscConfig+0x4a0>
 8002fec:	4b57      	ldr	r3, [pc, #348]	; (800314c <HAL_RCC_OscConfig+0x270>)
 8002fee:	681b      	ldr	r3, [r3, #0]
 8002ff0:	f403 3300 	and.w	r3, r3, #131072	; 0x20000
 8002ff4:	2b00      	cmp	r3, #0
 8002ff6:	d1f0      	bne.n	8002fda <HAL_RCC_OscConfig+0xfe>
 8002ff8:	e000      	b.n	8002ffc <HAL_RCC_OscConfig+0x120>
 8002ffa:	bf00      	nop
 8002ffc:	687b      	ldr	r3, [r7, #4]
 8002ffe:	681b      	ldr	r3, [r3, #0]
 8003000:	f003 0302 	and.w	r3, r3, #2
 8003004:	2b00      	cmp	r3, #0
 8003006:	d06f      	beq.n	80030e8 <HAL_RCC_OscConfig+0x20c>
 8003008:	4b50      	ldr	r3, [pc, #320]	; (800314c <HAL_RCC_OscConfig+0x270>)
 800300a:	689b      	ldr	r3, [r3, #8]
 800300c:	f003 030c 	and.w	r3, r3, #12
 8003010:	2b00      	cmp	r3, #0
 8003012:	d017      	beq.n	8003044 <HAL_RCC_OscConfig+0x168>
 8003014:	4b4d      	ldr	r3, [pc, #308]	; (800314c <HAL_RCC_OscConfig+0x270>)
 8003016:	689b      	ldr	r3, [r3, #8]
 8003018:	f003 030c 	and.w	r3, r3, #12
 800301c:	2b08      	cmp	r3, #8
 800301e:	d105      	bne.n	800302c <HAL_RCC_OscConfig+0x150>
 8003020:	4b4a      	ldr	r3, [pc, #296]	; (800314c <HAL_RCC_OscConfig+0x270>)
 8003022:	685b      	ldr	r3, [r3, #4]
 8003024:	f403 0380 	and.w	r3, r3, #4194304	; 0x400000
 8003028:	2b00      	cmp	r3, #0
 800302a:	d00b      	beq.n	8003044 <HAL_RCC_OscConfig+0x168>
 800302c:	4b47      	ldr	r3, [pc, #284]	; (800314c <HAL_RCC_OscConfig+0x270>)
 800302e:	689b      	ldr	r3, [r3, #8]
 8003030:	f003 030c 	and.w	r3, r3, #12
 8003034:	2b0c      	cmp	r3, #12
 8003036:	d11c      	bne.n	8003072 <HAL_RCC_OscConfig+0x196>
 8003038:	4b44      	ldr	r3, [pc, #272]	; (800314c <HAL_RCC_OscConfig+0x270>)
 800303a:	685b      	ldr	r3, [r3, #4]
 800303c:	f403 0380 	and.w	r3, r3, #4194304	; 0x400000
 8003040:	2b00      	cmp	r3, #0
 8003042:	d116      	bne.n	8003072 <HAL_RCC_OscConfig+0x196>
 8003044:	4b41      	ldr	r3, [pc, #260]	; (800314c <HAL_RCC_OscConfig+0x270>)
 8003046:	681b      	ldr	r3, [r3, #0]
 8003048:	f003 0302 	and.w	r3, r3, #2
 800304c:	2b00      	cmp	r3, #0
 800304e:	d005      	beq.n	800305c <HAL_RCC_OscConfig+0x180>
 8003050:	687b      	ldr	r3, [r7, #4]
 8003052:	68db      	ldr	r3, [r3, #12]
 8003054:	2b01      	cmp	r3, #1
 8003056:	d001      	beq.n	800305c <HAL_RCC_OscConfig+0x180>
 8003058:	2301      	movs	r3, #1
 800305a:	e18f      	b.n	800337c <HAL_RCC_OscConfig+0x4a0>
 800305c:	4b3b      	ldr	r3, [pc, #236]	; (800314c <HAL_RCC_OscConfig+0x270>)
 800305e:	681b      	ldr	r3, [r3, #0]
 8003060:	f023 02f8 	bic.w	r2, r3, #248	; 0xf8
 8003064:	687b      	ldr	r3, [r7, #4]
 8003066:	691b      	ldr	r3, [r3, #16]
 8003068:	00db      	lsls	r3, r3, #3
 800306a:	4938      	ldr	r1, [pc, #224]	; (800314c <HAL_RCC_OscConfig+0x270>)
 800306c:	4313      	orrs	r3, r2
 800306e:	600b      	str	r3, [r1, #0]
 8003070:	e03a      	b.n	80030e8 <HAL_RCC_OscConfig+0x20c>
 8003072:	687b      	ldr	r3, [r7, #4]
 8003074:	68db      	ldr	r3, [r3, #12]
 8003076:	2b00      	cmp	r3, #0
 8003078:	d020      	beq.n	80030bc <HAL_RCC_OscConfig+0x1e0>
 800307a:	4b35      	ldr	r3, [pc, #212]	; (8003150 <HAL_RCC_OscConfig+0x274>)
 800307c:	2201      	movs	r2, #1
 800307e:	601a      	str	r2, [r3, #0]
 8003080:	f7fe f976 	bl	8001370 <HAL_GetTick>
 8003084:	6138      	str	r0, [r7, #16]
 8003086:	e008      	b.n	800309a <HAL_RCC_OscConfig+0x1be>
 8003088:	f7fe f972 	bl	8001370 <HAL_GetTick>
 800308c:	4602      	mov	r2, r0
 800308e:	693b      	ldr	r3, [r7, #16]
 8003090:	1ad3      	subs	r3, r2, r3
 8003092:	2b02      	cmp	r3, #2
 8003094:	d901      	bls.n	800309a <HAL_RCC_OscConfig+0x1be>
 8003096:	2303      	movs	r3, #3
 8003098:	e170      	b.n	800337c <HAL_RCC_OscConfig+0x4a0>
 800309a:	4b2c      	ldr	r3, [pc, #176]	; (800314c <HAL_RCC_OscConfig+0x270>)
 800309c:	681b      	ldr	r3, [r3, #0]
 800309e:	f003 0302 	and.w	r3, r3, #2
 80030a2:	2b00      	cmp	r3, #0
 80030a4:	d0f0      	beq.n	8003088 <HAL_RCC_OscConfig+0x1ac>
 80030a6:	4b29      	ldr	r3, [pc, #164]	; (800314c <HAL_RCC_OscConfig+0x270>)
 80030a8:	681b      	ldr	r3, [r3, #0]
 80030aa:	f023 02f8 	bic.w	r2, r3, #248	; 0xf8
 80030ae:	687b      	ldr	r3, [r7, #4]
 80030b0:	691b      	ldr	r3, [r3, #16]
 80030b2:	00db      	lsls	r3, r3, #3
 80030b4:	4925      	ldr	r1, [pc, #148]	; (800314c <HAL_RCC_OscConfig+0x270>)
 80030b6:	4313      	orrs	r3, r2
 80030b8:	600b      	str	r3, [r1, #0]
 80030ba:	e015      	b.n	80030e8 <HAL_RCC_OscConfig+0x20c>
 80030bc:	4b24      	ldr	r3, [pc, #144]	; (8003150 <HAL_RCC_OscConfig+0x274>)
 80030be:	2200      	movs	r2, #0
 80030c0:	601a      	str	r2, [r3, #0]
 80030c2:	f7fe f955 	bl	8001370 <HAL_GetTick>
 80030c6:	6138      	str	r0, [r7, #16]
 80030c8:	e008      	b.n	80030dc <HAL_RCC_OscConfig+0x200>
 80030ca:	f7fe f951 	bl	8001370 <HAL_GetTick>
 80030ce:	4602      	mov	r2, r0
 80030d0:	693b      	ldr	r3, [r7, #16]
 80030d2:	1ad3      	subs	r3, r2, r3
 80030d4:	2b02      	cmp	r3, #2
 80030d6:	d901      	bls.n	80030dc <HAL_RCC_OscConfig+0x200>
 80030d8:	2303      	movs	r3, #3
 80030da:	e14f      	b.n	800337c <HAL_RCC_OscConfig+0x4a0>
 80030dc:	4b1b      	ldr	r3, [pc, #108]	; (800314c <HAL_RCC_OscConfig+0x270>)
 80030de:	681b      	ldr	r3, [r3, #0]
 80030e0:	f003 0302 	and.w	r3, r3, #2
 80030e4:	2b00      	cmp	r3, #0
 80030e6:	d1f0      	bne.n	80030ca <HAL_RCC_OscConfig+0x1ee>
 80030e8:	687b      	ldr	r3, [r7, #4]
 80030ea:	681b      	ldr	r3, [r3, #0]
 80030ec:	f003 0308 	and.w	r3, r3, #8
 80030f0:	2b00      	cmp	r3, #0
 80030f2:	d037      	beq.n	8003164 <HAL_RCC_OscConfig+0x288>
 80030f4:	687b      	ldr	r3, [r7, #4]
 80030f6:	695b      	ldr	r3, [r3, #20]
 80030f8:	2b00      	cmp	r3, #0
 80030fa:	d016      	beq.n	800312a <HAL_RCC_OscConfig+0x24e>
 80030fc:	4b15      	ldr	r3, [pc, #84]	; (8003154 <HAL_RCC_OscConfig+0x278>)
 80030fe:	2201      	movs	r2, #1
 8003100:	601a      	str	r2, [r3, #0]
 8003102:	f7fe f935 	bl	8001370 <HAL_GetTick>
 8003106:	6138      	str	r0, [r7, #16]
 8003108:	e008      	b.n	800311c <HAL_RCC_OscConfig+0x240>
 800310a:	f7fe f931 	bl	8001370 <HAL_GetTick>
 800310e:	4602      	mov	r2, r0
 8003110:	693b      	ldr	r3, [r7, #16]
 8003112:	1ad3      	subs	r3, r2, r3
 8003114:	2b02      	cmp	r3, #2
 8003116:	d901      	bls.n	800311c <HAL_RCC_OscConfig+0x240>
 8003118:	2303      	movs	r3, #3
 800311a:	e12f      	b.n	800337c <HAL_RCC_OscConfig+0x4a0>
 800311c:	4b0b      	ldr	r3, [pc, #44]	; (800314c <HAL_RCC_OscConfig+0x270>)
 800311e:	6f5b      	ldr	r3, [r3, #116]	; 0x74
 8003120:	f003 0302 	and.w	r3, r3, #2
 8003124:	2b00      	cmp	r3, #0
 8003126:	d0f0      	beq.n	800310a <HAL_RCC_OscConfig+0x22e>
 8003128:	e01c      	b.n	8003164 <HAL_RCC_OscConfig+0x288>
 800312a:	4b0a      	ldr	r3, [pc, #40]	; (8003154 <HAL_RCC_OscConfig+0x278>)
 800312c:	2200      	movs	r2, #0
 800312e:	601a      	str	r2, [r3, #0]
 8003130:	f7fe f91e 	bl	8001370 <HAL_GetTick>
 8003134:	6138      	str	r0, [r7, #16]
 8003136:	e00f      	b.n	8003158 <HAL_RCC_OscConfig+0x27c>
 8003138:	f7fe f91a 	bl	8001370 <HAL_GetTick>
 800313c:	4602      	mov	r2, r0
 800313e:	693b      	ldr	r3, [r7, #16]
 8003140:	1ad3      	subs	r3, r2, r3
 8003142:	2b02      	cmp	r3, #2
 8003144:	d908      	bls.n	8003158 <HAL_RCC_OscConfig+0x27c>
 8003146:	2303      	movs	r3, #3
 8003148:	e118      	b.n	800337c <HAL_RCC_OscConfig+0x4a0>
 800314a:	bf00      	nop
 800314c:	40023800 	.word	0x40023800
 8003150:	42470000 	.word	0x42470000
 8003154:	42470e80 	.word	0x42470e80
 8003158:	4b8a      	ldr	r3, [pc, #552]	; (8003384 <HAL_RCC_OscConfig+0x4a8>)
 800315a:	6f5b      	ldr	r3, [r3, #116]	; 0x74
 800315c:	f003 0302 	and.w	r3, r3, #2
 8003160:	2b00      	cmp	r3, #0
 8003162:	d1e9      	bne.n	8003138 <HAL_RCC_OscConfig+0x25c>
 8003164:	687b      	ldr	r3, [r7, #4]
 8003166:	681b      	ldr	r3, [r3, #0]
 8003168:	f003 0304 	and.w	r3, r3, #4
 800316c:	2b00      	cmp	r3, #0
 800316e:	f000 8097 	beq.w	80032a0 <HAL_RCC_OscConfig+0x3c4>
 8003172:	2300      	movs	r3, #0
 8003174:	75fb      	strb	r3, [r7, #23]
 8003176:	4b83      	ldr	r3, [pc, #524]	; (8003384 <HAL_RCC_OscConfig+0x4a8>)
 8003178:	6c1b      	ldr	r3, [r3, #64]	; 0x40
 800317a:	f003 5380 	and.w	r3, r3, #268435456	; 0x10000000
 800317e:	2b00      	cmp	r3, #0
 8003180:	d10f      	bne.n	80031a2 <HAL_RCC_OscConfig+0x2c6>
 8003182:	2300      	movs	r3, #0
 8003184:	60fb      	str	r3, [r7, #12]
 8003186:	4b7f      	ldr	r3, [pc, #508]	; (8003384 <HAL_RCC_OscConfig+0x4a8>)
 8003188:	6c1b      	ldr	r3, [r3, #64]	; 0x40
 800318a:	4a7e      	ldr	r2, [pc, #504]	; (8003384 <HAL_RCC_OscConfig+0x4a8>)
 800318c:	f043 5380 	orr.w	r3, r3, #268435456	; 0x10000000
 8003190:	6413      	str	r3, [r2, #64]	; 0x40
 8003192:	4b7c      	ldr	r3, [pc, #496]	; (8003384 <HAL_RCC_OscConfig+0x4a8>)
 8003194:	6c1b      	ldr	r3, [r3, #64]	; 0x40
 8003196:	f003 5380 	and.w	r3, r3, #268435456	; 0x10000000
 800319a:	60fb      	str	r3, [r7, #12]
 800319c:	68fb      	ldr	r3, [r7, #12]
 800319e:	2301      	movs	r3, #1
 80031a0:	75fb      	strb	r3, [r7, #23]
 80031a2:	4b79      	ldr	r3, [pc, #484]	; (8003388 <HAL_RCC_OscConfig+0x4ac>)
 80031a4:	681b      	ldr	r3, [r3, #0]
 80031a6:	f403 7380 	and.w	r3, r3, #256	; 0x100
 80031aa:	2b00      	cmp	r3, #0
 80031ac:	d118      	bne.n	80031e0 <HAL_RCC_OscConfig+0x304>
 80031ae:	4b76      	ldr	r3, [pc, #472]	; (8003388 <HAL_RCC_OscConfig+0x4ac>)
 80031b0:	681b      	ldr	r3, [r3, #0]
 80031b2:	4a75      	ldr	r2, [pc, #468]	; (8003388 <HAL_RCC_OscConfig+0x4ac>)
 80031b4:	f443 7380 	orr.w	r3, r3, #256	; 0x100
 80031b8:	6013      	str	r3, [r2, #0]
 80031ba:	f7fe f8d9 	bl	8001370 <HAL_GetTick>
 80031be:	6138      	str	r0, [r7, #16]
 80031c0:	e008      	b.n	80031d4 <HAL_RCC_OscConfig+0x2f8>
 80031c2:	f7fe f8d5 	bl	8001370 <HAL_GetTick>
 80031c6:	4602      	mov	r2, r0
 80031c8:	693b      	ldr	r3, [r7, #16]
 80031ca:	1ad3      	subs	r3, r2, r3
 80031cc:	2b02      	cmp	r3, #2
 80031ce:	d901      	bls.n	80031d4 <HAL_RCC_OscConfig+0x2f8>
 80031d0:	2303      	movs	r3, #3
 80031d2:	e0d3      	b.n	800337c <HAL_RCC_OscConfig+0x4a0>
 80031d4:	4b6c      	ldr	r3, [pc, #432]	; (8003388 <HAL_RCC_OscConfig+0x4ac>)
 80031d6:	681b      	ldr	r3, [r3, #0]
 80031d8:	f403 7380 	and.w	r3, r3, #256	; 0x100
 80031dc:	2b00      	cmp	r3, #0
 80031de:	d0f0      	beq.n	80031c2 <HAL_RCC_OscConfig+0x2e6>
 80031e0:	687b      	ldr	r3, [r7, #4]
 80031e2:	689b      	ldr	r3, [r3, #8]
 80031e4:	2b01      	cmp	r3, #1
 80031e6:	d106      	bne.n	80031f6 <HAL_RCC_OscConfig+0x31a>
 80031e8:	4b66      	ldr	r3, [pc, #408]	; (8003384 <HAL_RCC_OscConfig+0x4a8>)
 80031ea:	6f1b      	ldr	r3, [r3, #112]	; 0x70
 80031ec:	4a65      	ldr	r2, [pc, #404]	; (8003384 <HAL_RCC_OscConfig+0x4a8>)
 80031ee:	f043 0301 	orr.w	r3, r3, #1
 80031f2:	6713      	str	r3, [r2, #112]	; 0x70
 80031f4:	e01c      	b.n	8003230 <HAL_RCC_OscConfig+0x354>
 80031f6:	687b      	ldr	r3, [r7, #4]
 80031f8:	689b      	ldr	r3, [r3, #8]
 80031fa:	2b05      	cmp	r3, #5
 80031fc:	d10c      	bne.n	8003218 <HAL_RCC_OscConfig+0x33c>
 80031fe:	4b61      	ldr	r3, [pc, #388]	; (8003384 <HAL_RCC_OscConfig+0x4a8>)
 8003200:	6f1b      	ldr	r3, [r3, #112]	; 0x70
 8003202:	4a60      	ldr	r2, [pc, #384]	; (8003384 <HAL_RCC_OscConfig+0x4a8>)
 8003204:	f043 0304 	orr.w	r3, r3, #4
 8003208:	6713      	str	r3, [r2, #112]	; 0x70
 800320a:	4b5e      	ldr	r3, [pc, #376]	; (8003384 <HAL_RCC_OscConfig+0x4a8>)
 800320c:	6f1b      	ldr	r3, [r3, #112]	; 0x70
 800320e:	4a5d      	ldr	r2, [pc, #372]	; (8003384 <HAL_RCC_OscConfig+0x4a8>)
 8003210:	f043 0301 	orr.w	r3, r3, #1
 8003214:	6713      	str	r3, [r2, #112]	; 0x70
 8003216:	e00b      	b.n	8003230 <HAL_RCC_OscConfig+0x354>
 8003218:	4b5a      	ldr	r3, [pc, #360]	; (8003384 <HAL_RCC_OscConfig+0x4a8>)
 800321a:	6f1b      	ldr	r3, [r3, #112]	; 0x70
 800321c:	4a59      	ldr	r2, [pc, #356]	; (8003384 <HAL_RCC_OscConfig+0x4a8>)
 800321e:	f023 0301 	bic.w	r3, r3, #1
 8003222:	6713      	str	r3, [r2, #112]	; 0x70
 8003224:	4b57      	ldr	r3, [pc, #348]	; (8003384 <HAL_RCC_OscConfig+0x4a8>)
 8003226:	6f1b      	ldr	r3, [r3, #112]	; 0x70
 8003228:	4a56      	ldr	r2, [pc, #344]	; (8003384 <HAL_RCC_OscConfig+0x4a8>)
 800322a:	f023 0304 	bic.w	r3, r3, #4
 800322e:	6713      	str	r3, [r2, #112]	; 0x70
 8003230:	687b      	ldr	r3, [r7, #4]
 8003232:	689b      	ldr	r3, [r3, #8]
 8003234:	2b00      	cmp	r3, #0
 8003236:	d015      	beq.n	8003264 <HAL_RCC_OscConfig+0x388>
 8003238:	f7fe f89a 	bl	8001370 <HAL_GetTick>
 800323c:	6138      	str	r0, [r7, #16]
 800323e:	e00a      	b.n	8003256 <HAL_RCC_OscConfig+0x37a>
 8003240:	f7fe f896 	bl	8001370 <HAL_GetTick>
 8003244:	4602      	mov	r2, r0
 8003246:	693b      	ldr	r3, [r7, #16]
 8003248:	1ad3      	subs	r3, r2, r3
 800324a:	f241 3288 	movw	r2, #5000	; 0x1388
 800324e:	4293      	cmp	r3, r2
 8003250:	d901      	bls.n	8003256 <HAL_RCC_OscConfig+0x37a>
 8003252:	2303      	movs	r3, #3
 8003254:	e092      	b.n	800337c <HAL_RCC_OscConfig+0x4a0>
 8003256:	4b4b      	ldr	r3, [pc, #300]	; (8003384 <HAL_RCC_OscConfig+0x4a8>)
 8003258:	6f1b      	ldr	r3, [r3, #112]	; 0x70
 800325a:	f003 0302 	and.w	r3, r3, #2
 800325e:	2b00      	cmp	r3, #0
 8003260:	d0ee      	beq.n	8003240 <HAL_RCC_OscConfig+0x364>
 8003262:	e014      	b.n	800328e <HAL_RCC_OscConfig+0x3b2>
 8003264:	f7fe f884 	bl	8001370 <HAL_GetTick>
 8003268:	6138      	str	r0, [r7, #16]
 800326a:	e00a      	b.n	8003282 <HAL_RCC_OscConfig+0x3a6>
 800326c:	f7fe f880 	bl	8001370 <HAL_GetTick>
 8003270:	4602      	mov	r2, r0
 8003272:	693b      	ldr	r3, [r7, #16]
 8003274:	1ad3      	subs	r3, r2, r3
 8003276:	f241 3288 	movw	r2, #5000	; 0x1388
 800327a:	4293      	cmp	r3, r2
 800327c:	d901      	bls.n	8003282 <HAL_RCC_OscConfig+0x3a6>
 800327e:	2303      	movs	r3, #3
 8003280:	e07c      	b.n	800337c <HAL_RCC_OscConfig+0x4a0>
 8003282:	4b40      	ldr	r3, [pc, #256]	; (8003384 <HAL_RCC_OscConfig+0x4a8>)
 8003284:	6f1b      	ldr	r3, [r3, #112]	; 0x70
 8003286:	f003 0302 	and.w	r3, r3, #2
 800328a:	2b00      	cmp	r3, #0
 800328c:	d1ee      	bne.n	800326c <HAL_RCC_OscConfig+0x390>
 800328e:	7dfb      	ldrb	r3, [r7, #23]
 8003290:	2b01      	cmp	r3, #1
 8003292:	d105      	bne.n	80032a0 <HAL_RCC_OscConfig+0x3c4>
 8003294:	4b3b      	ldr	r3, [pc, #236]	; (8003384 <HAL_RCC_OscConfig+0x4a8>)
 8003296:	6c1b      	ldr	r3, [r3, #64]	; 0x40
 8003298:	4a3a      	ldr	r2, [pc, #232]	; (8003384 <HAL_RCC_OscConfig+0x4a8>)
 800329a:	f023 5380 	bic.w	r3, r3, #268435456	; 0x10000000
 800329e:	6413      	str	r3, [r2, #64]	; 0x40
 80032a0:	687b      	ldr	r3, [r7, #4]
 80032a2:	699b      	ldr	r3, [r3, #24]
 80032a4:	2b00      	cmp	r3, #0
 80032a6:	d068      	beq.n	800337a <HAL_RCC_OscConfig+0x49e>
 80032a8:	4b36      	ldr	r3, [pc, #216]	; (8003384 <HAL_RCC_OscConfig+0x4a8>)
 80032aa:	689b      	ldr	r3, [r3, #8]
 80032ac:	f003 030c 	and.w	r3, r3, #12
 80032b0:	2b08      	cmp	r3, #8
 80032b2:	d060      	beq.n	8003376 <HAL_RCC_OscConfig+0x49a>
 80032b4:	687b      	ldr	r3, [r7, #4]
 80032b6:	699b      	ldr	r3, [r3, #24]
 80032b8:	2b02      	cmp	r3, #2
 80032ba:	d145      	bne.n	8003348 <HAL_RCC_OscConfig+0x46c>
 80032bc:	4b33      	ldr	r3, [pc, #204]	; (800338c <HAL_RCC_OscConfig+0x4b0>)
 80032be:	2200      	movs	r2, #0
 80032c0:	601a      	str	r2, [r3, #0]
 80032c2:	f7fe f855 	bl	8001370 <HAL_GetTick>
 80032c6:	6138      	str	r0, [r7, #16]
 80032c8:	e008      	b.n	80032dc <HAL_RCC_OscConfig+0x400>
 80032ca:	f7fe f851 	bl	8001370 <HAL_GetTick>
 80032ce:	4602      	mov	r2, r0
 80032d0:	693b      	ldr	r3, [r7, #16]
 80032d2:	1ad3      	subs	r3, r2, r3
 80032d4:	2b02      	cmp	r3, #2
 80032d6:	d901      	bls.n	80032dc <HAL_RCC_OscConfig+0x400>
 80032d8:	2303      	movs	r3, #3
 80032da:	e04f      	b.n	800337c <HAL_RCC_OscConfig+0x4a0>
 80032dc:	4b29      	ldr	r3, [pc, #164]	; (8003384 <HAL_RCC_OscConfig+0x4a8>)
 80032de:	681b      	ldr	r3, [r3, #0]
 80032e0:	f003 7300 	and.w	r3, r3, #33554432	; 0x2000000
 80032e4:	2b00      	cmp	r3, #0
 80032e6:	d1f0      	bne.n	80032ca <HAL_RCC_OscConfig+0x3ee>
 80032e8:	687b      	ldr	r3, [r7, #4]
 80032ea:	69da      	ldr	r2, [r3, #28]
 80032ec:	687b      	ldr	r3, [r7, #4]
 80032ee:	6a1b      	ldr	r3, [r3, #32]
 80032f0:	431a      	orrs	r2, r3
 80032f2:	687b      	ldr	r3, [r7, #4]
 80032f4:	6a5b      	ldr	r3, [r3, #36]	; 0x24
 80032f6:	019b      	lsls	r3, r3, #6
 80032f8:	431a      	orrs	r2, r3
 80032fa:	687b      	ldr	r3, [r7, #4]
 80032fc:	6a9b      	ldr	r3, [r3, #40]	; 0x28
 80032fe:	085b      	lsrs	r3, r3, #1
 8003300:	3b01      	subs	r3, #1
 8003302:	041b      	lsls	r3, r3, #16
 8003304:	431a      	orrs	r2, r3
 8003306:	687b      	ldr	r3, [r7, #4]
 8003308:	6adb      	ldr	r3, [r3, #44]	; 0x2c
 800330a:	061b      	lsls	r3, r3, #24
 800330c:	431a      	orrs	r2, r3
 800330e:	687b      	ldr	r3, [r7, #4]
 8003310:	6b1b      	ldr	r3, [r3, #48]	; 0x30
 8003312:	071b      	lsls	r3, r3, #28
 8003314:	491b      	ldr	r1, [pc, #108]	; (8003384 <HAL_RCC_OscConfig+0x4a8>)
 8003316:	4313      	orrs	r3, r2
 8003318:	604b      	str	r3, [r1, #4]
 800331a:	4b1c      	ldr	r3, [pc, #112]	; (800338c <HAL_RCC_OscConfig+0x4b0>)
 800331c:	2201      	movs	r2, #1
 800331e:	601a      	str	r2, [r3, #0]
 8003320:	f7fe f826 	bl	8001370 <HAL_GetTick>
 8003324:	6138      	str	r0, [r7, #16]
 8003326:	e008      	b.n	800333a <HAL_RCC_OscConfig+0x45e>
 8003328:	f7fe f822 	bl	8001370 <HAL_GetTick>
 800332c:	4602      	mov	r2, r0
 800332e:	693b      	ldr	r3, [r7, #16]
 8003330:	1ad3      	subs	r3, r2, r3
 8003332:	2b02      	cmp	r3, #2
 8003334:	d901      	bls.n	800333a <HAL_RCC_OscConfig+0x45e>
 8003336:	2303      	movs	r3, #3
 8003338:	e020      	b.n	800337c <HAL_RCC_OscConfig+0x4a0>
 800333a:	4b12      	ldr	r3, [pc, #72]	; (8003384 <HAL_RCC_OscConfig+0x4a8>)
 800333c:	681b      	ldr	r3, [r3, #0]
 800333e:	f003 7300 	and.w	r3, r3, #33554432	; 0x2000000
 8003342:	2b00      	cmp	r3, #0
 8003344:	d0f0      	beq.n	8003328 <HAL_RCC_OscConfig+0x44c>
 8003346:	e018      	b.n	800337a <HAL_RCC_OscConfig+0x49e>
 8003348:	4b10      	ldr	r3, [pc, #64]	; (800338c <HAL_RCC_OscConfig+0x4b0>)
 800334a:	2200      	movs	r2, #0
 800334c:	601a      	str	r2, [r3, #0]
 800334e:	f7fe f80f 	bl	8001370 <HAL_GetTick>
 8003352:	6138      	str	r0, [r7, #16]
 8003354:	e008      	b.n	8003368 <HAL_RCC_OscConfig+0x48c>
 8003356:	f7fe f80b 	bl	8001370 <HAL_GetTick>
 800335a:	4602      	mov	r2, r0
 800335c:	693b      	ldr	r3, [r7, #16]
 800335e:	1ad3      	subs	r3, r2, r3
 8003360:	2b02      	cmp	r3, #2
 8003362:	d901      	bls.n	8003368 <HAL_RCC_OscConfig+0x48c>
 8003364:	2303      	movs	r3, #3
 8003366:	e009      	b.n	800337c <HAL_RCC_OscConfig+0x4a0>
 8003368:	4b06      	ldr	r3, [pc, #24]	; (8003384 <HAL_RCC_OscConfig+0x4a8>)
 800336a:	681b      	ldr	r3, [r3, #0]
 800336c:	f003 7300 	and.w	r3, r3, #33554432	; 0x2000000
 8003370:	2b00      	cmp	r3, #0
 8003372:	d1f0      	bne.n	8003356 <HAL_RCC_OscConfig+0x47a>
 8003374:	e001      	b.n	800337a <HAL_RCC_OscConfig+0x49e>
 8003376:	2301      	movs	r3, #1
 8003378:	e000      	b.n	800337c <HAL_RCC_OscConfig+0x4a0>
 800337a:	2300      	movs	r3, #0
 800337c:	4618      	mov	r0, r3
 800337e:	3718      	adds	r7, #24
 8003380:	46bd      	mov	sp, r7
 8003382:	bd80      	pop	{r7, pc}
 8003384:	40023800 	.word	0x40023800
 8003388:	40007000 	.word	0x40007000
 800338c:	42470060 	.word	0x42470060

08003390 <HAL_TIM_Base_Init>:
 8003390:	b580      	push	{r7, lr}
 8003392:	b082      	sub	sp, #8
 8003394:	af00      	add	r7, sp, #0
 8003396:	6078      	str	r0, [r7, #4]
 8003398:	687b      	ldr	r3, [r7, #4]
 800339a:	2b00      	cmp	r3, #0
 800339c:	d101      	bne.n	80033a2 <HAL_TIM_Base_Init+0x12>
 800339e:	2301      	movs	r3, #1
 80033a0:	e01d      	b.n	80033de <HAL_TIM_Base_Init+0x4e>
 80033a2:	687b      	ldr	r3, [r7, #4]
 80033a4:	f893 303d 	ldrb.w	r3, [r3, #61]	; 0x3d
 80033a8:	b2db      	uxtb	r3, r3
 80033aa:	2b00      	cmp	r3, #0
 80033ac:	d106      	bne.n	80033bc <HAL_TIM_Base_Init+0x2c>
 80033ae:	687b      	ldr	r3, [r7, #4]
 80033b0:	2200      	movs	r2, #0
 80033b2:	f883 203c 	strb.w	r2, [r3, #60]	; 0x3c
 80033b6:	6878      	ldr	r0, [r7, #4]
 80033b8:	f7fd fd08 	bl	8000dcc <HAL_TIM_Base_MspInit>
 80033bc:	687b      	ldr	r3, [r7, #4]
 80033be:	2202      	movs	r2, #2
 80033c0:	f883 203d 	strb.w	r2, [r3, #61]	; 0x3d
 80033c4:	687b      	ldr	r3, [r7, #4]
 80033c6:	681a      	ldr	r2, [r3, #0]
 80033c8:	687b      	ldr	r3, [r7, #4]
 80033ca:	3304      	adds	r3, #4
 80033cc:	4619      	mov	r1, r3
 80033ce:	4610      	mov	r0, r2
 80033d0:	f000 fa22 	bl	8003818 <TIM_Base_SetConfig>
 80033d4:	687b      	ldr	r3, [r7, #4]
 80033d6:	2201      	movs	r2, #1
 80033d8:	f883 203d 	strb.w	r2, [r3, #61]	; 0x3d
 80033dc:	2300      	movs	r3, #0
 80033de:	4618      	mov	r0, r3
 80033e0:	3708      	adds	r7, #8
 80033e2:	46bd      	mov	sp, r7
 80033e4:	bd80      	pop	{r7, pc}

080033e6 <HAL_TIM_Base_Start_IT>:
 80033e6:	b480      	push	{r7}
 80033e8:	b085      	sub	sp, #20
 80033ea:	af00      	add	r7, sp, #0
 80033ec:	6078      	str	r0, [r7, #4]
 80033ee:	687b      	ldr	r3, [r7, #4]
 80033f0:	681b      	ldr	r3, [r3, #0]
 80033f2:	68da      	ldr	r2, [r3, #12]
 80033f4:	687b      	ldr	r3, [r7, #4]
 80033f6:	681b      	ldr	r3, [r3, #0]
 80033f8:	f042 0201 	orr.w	r2, r2, #1
 80033fc:	60da      	str	r2, [r3, #12]
 80033fe:	687b      	ldr	r3, [r7, #4]
 8003400:	681b      	ldr	r3, [r3, #0]
 8003402:	689b      	ldr	r3, [r3, #8]
 8003404:	f003 0307 	and.w	r3, r3, #7
 8003408:	60fb      	str	r3, [r7, #12]
 800340a:	68fb      	ldr	r3, [r7, #12]
 800340c:	2b06      	cmp	r3, #6
 800340e:	d007      	beq.n	8003420 <HAL_TIM_Base_Start_IT+0x3a>
 8003410:	687b      	ldr	r3, [r7, #4]
 8003412:	681b      	ldr	r3, [r3, #0]
 8003414:	681a      	ldr	r2, [r3, #0]
 8003416:	687b      	ldr	r3, [r7, #4]
 8003418:	681b      	ldr	r3, [r3, #0]
 800341a:	f042 0201 	orr.w	r2, r2, #1
 800341e:	601a      	str	r2, [r3, #0]
 8003420:	2300      	movs	r3, #0
 8003422:	4618      	mov	r0, r3
 8003424:	3714      	adds	r7, #20
 8003426:	46bd      	mov	sp, r7
 8003428:	f85d 7b04 	ldr.w	r7, [sp], #4
 800342c:	4770      	bx	lr

0800342e <HAL_TIM_IRQHandler>:
 800342e:	b580      	push	{r7, lr}
 8003430:	b082      	sub	sp, #8
 8003432:	af00      	add	r7, sp, #0
 8003434:	6078      	str	r0, [r7, #4]
 8003436:	687b      	ldr	r3, [r7, #4]
 8003438:	681b      	ldr	r3, [r3, #0]
 800343a:	691b      	ldr	r3, [r3, #16]
 800343c:	f003 0302 	and.w	r3, r3, #2
 8003440:	2b02      	cmp	r3, #2
 8003442:	d122      	bne.n	800348a <HAL_TIM_IRQHandler+0x5c>
 8003444:	687b      	ldr	r3, [r7, #4]
 8003446:	681b      	ldr	r3, [r3, #0]
 8003448:	68db      	ldr	r3, [r3, #12]
 800344a:	f003 0302 	and.w	r3, r3, #2
 800344e:	2b02      	cmp	r3, #2
 8003450:	d11b      	bne.n	800348a <HAL_TIM_IRQHandler+0x5c>
 8003452:	687b      	ldr	r3, [r7, #4]
 8003454:	681b      	ldr	r3, [r3, #0]
 8003456:	f06f 0202 	mvn.w	r2, #2
 800345a:	611a      	str	r2, [r3, #16]
 800345c:	687b      	ldr	r3, [r7, #4]
 800345e:	2201      	movs	r2, #1
 8003460:	771a      	strb	r2, [r3, #28]
 8003462:	687b      	ldr	r3, [r7, #4]
 8003464:	681b      	ldr	r3, [r3, #0]
 8003466:	699b      	ldr	r3, [r3, #24]
 8003468:	f003 0303 	and.w	r3, r3, #3
 800346c:	2b00      	cmp	r3, #0
 800346e:	d003      	beq.n	8003478 <HAL_TIM_IRQHandler+0x4a>
 8003470:	6878      	ldr	r0, [r7, #4]
 8003472:	f000 f9b2 	bl	80037da <HAL_TIM_IC_CaptureCallback>
 8003476:	e005      	b.n	8003484 <HAL_TIM_IRQHandler+0x56>
 8003478:	6878      	ldr	r0, [r7, #4]
 800347a:	f000 f9a4 	bl	80037c6 <HAL_TIM_OC_DelayElapsedCallback>
 800347e:	6878      	ldr	r0, [r7, #4]
 8003480:	f000 f9b5 	bl	80037ee <HAL_TIM_PWM_PulseFinishedCallback>
 8003484:	687b      	ldr	r3, [r7, #4]
 8003486:	2200      	movs	r2, #0
 8003488:	771a      	strb	r2, [r3, #28]
 800348a:	687b      	ldr	r3, [r7, #4]
 800348c:	681b      	ldr	r3, [r3, #0]
 800348e:	691b      	ldr	r3, [r3, #16]
 8003490:	f003 0304 	and.w	r3, r3, #4
 8003494:	2b04      	cmp	r3, #4
 8003496:	d122      	bne.n	80034de <HAL_TIM_IRQHandler+0xb0>
 8003498:	687b      	ldr	r3, [r7, #4]
 800349a:	681b      	ldr	r3, [r3, #0]
 800349c:	68db      	ldr	r3, [r3, #12]
 800349e:	f003 0304 	and.w	r3, r3, #4
 80034a2:	2b04      	cmp	r3, #4
 80034a4:	d11b      	bne.n	80034de <HAL_TIM_IRQHandler+0xb0>
 80034a6:	687b      	ldr	r3, [r7, #4]
 80034a8:	681b      	ldr	r3, [r3, #0]
 80034aa:	f06f 0204 	mvn.w	r2, #4
 80034ae:	611a      	str	r2, [r3, #16]
 80034b0:	687b      	ldr	r3, [r7, #4]
 80034b2:	2202      	movs	r2, #2
 80034b4:	771a      	strb	r2, [r3, #28]
 80034b6:	687b      	ldr	r3, [r7, #4]
 80034b8:	681b      	ldr	r3, [r3, #0]
 80034ba:	699b      	ldr	r3, [r3, #24]
 80034bc:	f403 7340 	and.w	r3, r3, #768	; 0x300
 80034c0:	2b00      	cmp	r3, #0
 80034c2:	d003      	beq.n	80034cc <HAL_TIM_IRQHandler+0x9e>
 80034c4:	6878      	ldr	r0, [r7, #4]
 80034c6:	f000 f988 	bl	80037da <HAL_TIM_IC_CaptureCallback>
 80034ca:	e005      	b.n	80034d8 <HAL_TIM_IRQHandler+0xaa>
 80034cc:	6878      	ldr	r0, [r7, #4]
 80034ce:	f000 f97a 	bl	80037c6 <HAL_TIM_OC_DelayElapsedCallback>
 80034d2:	6878      	ldr	r0, [r7, #4]
 80034d4:	f000 f98b 	bl	80037ee <HAL_TIM_PWM_PulseFinishedCallback>
 80034d8:	687b      	ldr	r3, [r7, #4]
 80034da:	2200      	movs	r2, #0
 80034dc:	771a      	strb	r2, [r3, #28]
 80034de:	687b      	ldr	r3, [r7, #4]
 80034e0:	681b      	ldr	r3, [r3, #0]
 80034e2:	691b      	ldr	r3, [r3, #16]
 80034e4:	f003 0308 	and.w	r3, r3, #8
 80034e8:	2b08      	cmp	r3, #8
 80034ea:	d122      	bne.n	8003532 <HAL_TIM_IRQHandler+0x104>
 80034ec:	687b      	ldr	r3, [r7, #4]
 80034ee:	681b      	ldr	r3, [r3, #0]
 80034f0:	68db      	ldr	r3, [r3, #12]
 80034f2:	f003 0308 	and.w	r3, r3, #8
 80034f6:	2b08      	cmp	r3, #8
 80034f8:	d11b      	bne.n	8003532 <HAL_TIM_IRQHandler+0x104>
 80034fa:	687b      	ldr	r3, [r7, #4]
 80034fc:	681b      	ldr	r3, [r3, #0]
 80034fe:	f06f 0208 	mvn.w	r2, #8
 8003502:	611a      	str	r2, [r3, #16]
 8003504:	687b      	ldr	r3, [r7, #4]
 8003506:	2204      	movs	r2, #4
 8003508:	771a      	strb	r2, [r3, #28]
 800350a:	687b      	ldr	r3, [r7, #4]
 800350c:	681b      	ldr	r3, [r3, #0]
 800350e:	69db      	ldr	r3, [r3, #28]
 8003510:	f003 0303 	and.w	r3, r3, #3
 8003514:	2b00      	cmp	r3, #0
 8003516:	d003      	beq.n	8003520 <HAL_TIM_IRQHandler+0xf2>
 8003518:	6878      	ldr	r0, [r7, #4]
 800351a:	f000 f95e 	bl	80037da <HAL_TIM_IC_CaptureCallback>
 800351e:	e005      	b.n	800352c <HAL_TIM_IRQHandler+0xfe>
 8003520:	6878      	ldr	r0, [r7, #4]
 8003522:	f000 f950 	bl	80037c6 <HAL_TIM_OC_DelayElapsedCallback>
 8003526:	6878      	ldr	r0, [r7, #4]
 8003528:	f000 f961 	bl	80037ee <HAL_TIM_PWM_PulseFinishedCallback>
 800352c:	687b      	ldr	r3, [r7, #4]
 800352e:	2200      	movs	r2, #0
 8003530:	771a      	strb	r2, [r3, #28]
 8003532:	687b      	ldr	r3, [r7, #4]
 8003534:	681b      	ldr	r3, [r3, #0]
 8003536:	691b      	ldr	r3, [r3, #16]
 8003538:	f003 0310 	and.w	r3, r3, #16
 800353c:	2b10      	cmp	r3, #16
 800353e:	d122      	bne.n	8003586 <HAL_TIM_IRQHandler+0x158>
 8003540:	687b      	ldr	r3, [r7, #4]
 8003542:	681b      	ldr	r3, [r3, #0]
 8003544:	68db      	ldr	r3, [r3, #12]
 8003546:	f003 0310 	and.w	r3, r3, #16
 800354a:	2b10      	cmp	r3, #16
 800354c:	d11b      	bne.n	8003586 <HAL_TIM_IRQHandler+0x158>
 800354e:	687b      	ldr	r3, [r7, #4]
 8003550:	681b      	ldr	r3, [r3, #0]
 8003552:	f06f 0210 	mvn.w	r2, #16
 8003556:	611a      	str	r2, [r3, #16]
 8003558:	687b      	ldr	r3, [r7, #4]
 800355a:	2208      	movs	r2, #8
 800355c:	771a      	strb	r2, [r3, #28]
 800355e:	687b      	ldr	r3, [r7, #4]
 8003560:	681b      	ldr	r3, [r3, #0]
 8003562:	69db      	ldr	r3, [r3, #28]
 8003564:	f403 7340 	and.w	r3, r3, #768	; 0x300
 8003568:	2b00      	cmp	r3, #0
 800356a:	d003      	beq.n	8003574 <HAL_TIM_IRQHandler+0x146>
 800356c:	6878      	ldr	r0, [r7, #4]
 800356e:	f000 f934 	bl	80037da <HAL_TIM_IC_CaptureCallback>
 8003572:	e005      	b.n	8003580 <HAL_TIM_IRQHandler+0x152>
 8003574:	6878      	ldr	r0, [r7, #4]
 8003576:	f000 f926 	bl	80037c6 <HAL_TIM_OC_DelayElapsedCallback>
 800357a:	6878      	ldr	r0, [r7, #4]
 800357c:	f000 f937 	bl	80037ee <HAL_TIM_PWM_PulseFinishedCallback>
 8003580:	687b      	ldr	r3, [r7, #4]
 8003582:	2200      	movs	r2, #0
 8003584:	771a      	strb	r2, [r3, #28]
 8003586:	687b      	ldr	r3, [r7, #4]
 8003588:	681b      	ldr	r3, [r3, #0]
 800358a:	691b      	ldr	r3, [r3, #16]
 800358c:	f003 0301 	and.w	r3, r3, #1
 8003590:	2b01      	cmp	r3, #1
 8003592:	d10e      	bne.n	80035b2 <HAL_TIM_IRQHandler+0x184>
 8003594:	687b      	ldr	r3, [r7, #4]
 8003596:	681b      	ldr	r3, [r3, #0]
 8003598:	68db      	ldr	r3, [r3, #12]
 800359a:	f003 0301 	and.w	r3, r3, #1
 800359e:	2b01      	cmp	r3, #1
 80035a0:	d107      	bne.n	80035b2 <HAL_TIM_IRQHandler+0x184>
 80035a2:	687b      	ldr	r3, [r7, #4]
 80035a4:	681b      	ldr	r3, [r3, #0]
 80035a6:	f06f 0201 	mvn.w	r2, #1
 80035aa:	611a      	str	r2, [r3, #16]
 80035ac:	6878      	ldr	r0, [r7, #4]
 80035ae:	f002 fb07 	bl	8005bc0 <HAL_TIM_PeriodElapsedCallback>
 80035b2:	687b      	ldr	r3, [r7, #4]
 80035b4:	681b      	ldr	r3, [r3, #0]
 80035b6:	691b      	ldr	r3, [r3, #16]
 80035b8:	f003 0380 	and.w	r3, r3, #128	; 0x80
 80035bc:	2b80      	cmp	r3, #128	; 0x80
 80035be:	d10e      	bne.n	80035de <HAL_TIM_IRQHandler+0x1b0>
 80035c0:	687b      	ldr	r3, [r7, #4]
 80035c2:	681b      	ldr	r3, [r3, #0]
 80035c4:	68db      	ldr	r3, [r3, #12]
 80035c6:	f003 0380 	and.w	r3, r3, #128	; 0x80
 80035ca:	2b80      	cmp	r3, #128	; 0x80
 80035cc:	d107      	bne.n	80035de <HAL_TIM_IRQHandler+0x1b0>
 80035ce:	687b      	ldr	r3, [r7, #4]
 80035d0:	681b      	ldr	r3, [r3, #0]
 80035d2:	f06f 0280 	mvn.w	r2, #128	; 0x80
 80035d6:	611a      	str	r2, [r3, #16]
 80035d8:	6878      	ldr	r0, [r7, #4]
 80035da:	f000 fadd 	bl	8003b98 <HAL_TIMEx_BreakCallback>
 80035de:	687b      	ldr	r3, [r7, #4]
 80035e0:	681b      	ldr	r3, [r3, #0]
 80035e2:	691b      	ldr	r3, [r3, #16]
 80035e4:	f003 0340 	and.w	r3, r3, #64	; 0x40
 80035e8:	2b40      	cmp	r3, #64	; 0x40
 80035ea:	d10e      	bne.n	800360a <HAL_TIM_IRQHandler+0x1dc>
 80035ec:	687b      	ldr	r3, [r7, #4]
 80035ee:	681b      	ldr	r3, [r3, #0]
 80035f0:	68db      	ldr	r3, [r3, #12]
 80035f2:	f003 0340 	and.w	r3, r3, #64	; 0x40
 80035f6:	2b40      	cmp	r3, #64	; 0x40
 80035f8:	d107      	bne.n	800360a <HAL_TIM_IRQHandler+0x1dc>
 80035fa:	687b      	ldr	r3, [r7, #4]
 80035fc:	681b      	ldr	r3, [r3, #0]
 80035fe:	f06f 0240 	mvn.w	r2, #64	; 0x40
 8003602:	611a      	str	r2, [r3, #16]
 8003604:	6878      	ldr	r0, [r7, #4]
 8003606:	f000 f8fc 	bl	8003802 <HAL_TIM_TriggerCallback>
 800360a:	687b      	ldr	r3, [r7, #4]
 800360c:	681b      	ldr	r3, [r3, #0]
 800360e:	691b      	ldr	r3, [r3, #16]
 8003610:	f003 0320 	and.w	r3, r3, #32
 8003614:	2b20      	cmp	r3, #32
 8003616:	d10e      	bne.n	8003636 <HAL_TIM_IRQHandler+0x208>
 8003618:	687b      	ldr	r3, [r7, #4]
 800361a:	681b      	ldr	r3, [r3, #0]
 800361c:	68db      	ldr	r3, [r3, #12]
 800361e:	f003 0320 	and.w	r3, r3, #32
 8003622:	2b20      	cmp	r3, #32
 8003624:	d107      	bne.n	8003636 <HAL_TIM_IRQHandler+0x208>
 8003626:	687b      	ldr	r3, [r7, #4]
 8003628:	681b      	ldr	r3, [r3, #0]
 800362a:	f06f 0220 	mvn.w	r2, #32
 800362e:	611a      	str	r2, [r3, #16]
 8003630:	6878      	ldr	r0, [r7, #4]
 8003632:	f000 faa7 	bl	8003b84 <HAL_TIMEx_CommutCallback>
 8003636:	bf00      	nop
 8003638:	3708      	adds	r7, #8
 800363a:	46bd      	mov	sp, r7
 800363c:	bd80      	pop	{r7, pc}

0800363e <HAL_TIM_ConfigClockSource>:
 800363e:	b580      	push	{r7, lr}
 8003640:	b084      	sub	sp, #16
 8003642:	af00      	add	r7, sp, #0
 8003644:	6078      	str	r0, [r7, #4]
 8003646:	6039      	str	r1, [r7, #0]
 8003648:	687b      	ldr	r3, [r7, #4]
 800364a:	f893 303c 	ldrb.w	r3, [r3, #60]	; 0x3c
 800364e:	2b01      	cmp	r3, #1
 8003650:	d101      	bne.n	8003656 <HAL_TIM_ConfigClockSource+0x18>
 8003652:	2302      	movs	r3, #2
 8003654:	e0b3      	b.n	80037be <HAL_TIM_ConfigClockSource+0x180>
 8003656:	687b      	ldr	r3, [r7, #4]
 8003658:	2201      	movs	r2, #1
 800365a:	f883 203c 	strb.w	r2, [r3, #60]	; 0x3c
 800365e:	687b      	ldr	r3, [r7, #4]
 8003660:	2202      	movs	r2, #2
 8003662:	f883 203d 	strb.w	r2, [r3, #61]	; 0x3d
 8003666:	687b      	ldr	r3, [r7, #4]
 8003668:	681b      	ldr	r3, [r3, #0]
 800366a:	689b      	ldr	r3, [r3, #8]
 800366c:	60fb      	str	r3, [r7, #12]
 800366e:	68fb      	ldr	r3, [r7, #12]
 8003670:	f023 0377 	bic.w	r3, r3, #119	; 0x77
 8003674:	60fb      	str	r3, [r7, #12]
 8003676:	68fb      	ldr	r3, [r7, #12]
 8003678:	f423 437f 	bic.w	r3, r3, #65280	; 0xff00
 800367c:	60fb      	str	r3, [r7, #12]
 800367e:	687b      	ldr	r3, [r7, #4]
 8003680:	681b      	ldr	r3, [r3, #0]
 8003682:	68fa      	ldr	r2, [r7, #12]
 8003684:	609a      	str	r2, [r3, #8]
 8003686:	683b      	ldr	r3, [r7, #0]
 8003688:	681b      	ldr	r3, [r3, #0]
 800368a:	f5b3 5f00 	cmp.w	r3, #8192	; 0x2000
 800368e:	d03e      	beq.n	800370e <HAL_TIM_ConfigClockSource+0xd0>
 8003690:	f5b3 5f00 	cmp.w	r3, #8192	; 0x2000
 8003694:	f200 8087 	bhi.w	80037a6 <HAL_TIM_ConfigClockSource+0x168>
 8003698:	f5b3 5f80 	cmp.w	r3, #4096	; 0x1000
 800369c:	f000 8085 	beq.w	80037aa <HAL_TIM_ConfigClockSource+0x16c>
 80036a0:	f5b3 5f80 	cmp.w	r3, #4096	; 0x1000
 80036a4:	d87f      	bhi.n	80037a6 <HAL_TIM_ConfigClockSource+0x168>
 80036a6:	2b70      	cmp	r3, #112	; 0x70
 80036a8:	d01a      	beq.n	80036e0 <HAL_TIM_ConfigClockSource+0xa2>
 80036aa:	2b70      	cmp	r3, #112	; 0x70
 80036ac:	d87b      	bhi.n	80037a6 <HAL_TIM_ConfigClockSource+0x168>
 80036ae:	2b60      	cmp	r3, #96	; 0x60
 80036b0:	d050      	beq.n	8003754 <HAL_TIM_ConfigClockSource+0x116>
 80036b2:	2b60      	cmp	r3, #96	; 0x60
 80036b4:	d877      	bhi.n	80037a6 <HAL_TIM_ConfigClockSource+0x168>
 80036b6:	2b50      	cmp	r3, #80	; 0x50
 80036b8:	d03c      	beq.n	8003734 <HAL_TIM_ConfigClockSource+0xf6>
 80036ba:	2b50      	cmp	r3, #80	; 0x50
 80036bc:	d873      	bhi.n	80037a6 <HAL_TIM_ConfigClockSource+0x168>
 80036be:	2b40      	cmp	r3, #64	; 0x40
 80036c0:	d058      	beq.n	8003774 <HAL_TIM_ConfigClockSource+0x136>
 80036c2:	2b40      	cmp	r3, #64	; 0x40
 80036c4:	d86f      	bhi.n	80037a6 <HAL_TIM_ConfigClockSource+0x168>
 80036c6:	2b30      	cmp	r3, #48	; 0x30
 80036c8:	d064      	beq.n	8003794 <HAL_TIM_ConfigClockSource+0x156>
 80036ca:	2b30      	cmp	r3, #48	; 0x30
 80036cc:	d86b      	bhi.n	80037a6 <HAL_TIM_ConfigClockSource+0x168>
 80036ce:	2b20      	cmp	r3, #32
 80036d0:	d060      	beq.n	8003794 <HAL_TIM_ConfigClockSource+0x156>
 80036d2:	2b20      	cmp	r3, #32
 80036d4:	d867      	bhi.n	80037a6 <HAL_TIM_ConfigClockSource+0x168>
 80036d6:	2b00      	cmp	r3, #0
 80036d8:	d05c      	beq.n	8003794 <HAL_TIM_ConfigClockSource+0x156>
 80036da:	2b10      	cmp	r3, #16
 80036dc:	d05a      	beq.n	8003794 <HAL_TIM_ConfigClockSource+0x156>
 80036de:	e062      	b.n	80037a6 <HAL_TIM_ConfigClockSource+0x168>
 80036e0:	687b      	ldr	r3, [r7, #4]
 80036e2:	6818      	ldr	r0, [r3, #0]
 80036e4:	683b      	ldr	r3, [r7, #0]
 80036e6:	6899      	ldr	r1, [r3, #8]
 80036e8:	683b      	ldr	r3, [r7, #0]
 80036ea:	685a      	ldr	r2, [r3, #4]
 80036ec:	683b      	ldr	r3, [r7, #0]
 80036ee:	68db      	ldr	r3, [r3, #12]
 80036f0:	f000 f9ac 	bl	8003a4c <TIM_ETR_SetConfig>
 80036f4:	687b      	ldr	r3, [r7, #4]
 80036f6:	681b      	ldr	r3, [r3, #0]
 80036f8:	689b      	ldr	r3, [r3, #8]
 80036fa:	60fb      	str	r3, [r7, #12]
 80036fc:	68fb      	ldr	r3, [r7, #12]
 80036fe:	f043 0377 	orr.w	r3, r3, #119	; 0x77
 8003702:	60fb      	str	r3, [r7, #12]
 8003704:	687b      	ldr	r3, [r7, #4]
 8003706:	681b      	ldr	r3, [r3, #0]
 8003708:	68fa      	ldr	r2, [r7, #12]
 800370a:	609a      	str	r2, [r3, #8]
 800370c:	e04e      	b.n	80037ac <HAL_TIM_ConfigClockSource+0x16e>
 800370e:	687b      	ldr	r3, [r7, #4]
 8003710:	6818      	ldr	r0, [r3, #0]
 8003712:	683b      	ldr	r3, [r7, #0]
 8003714:	6899      	ldr	r1, [r3, #8]
 8003716:	683b      	ldr	r3, [r7, #0]
 8003718:	685a      	ldr	r2, [r3, #4]
 800371a:	683b      	ldr	r3, [r7, #0]
 800371c:	68db      	ldr	r3, [r3, #12]
 800371e:	f000 f995 	bl	8003a4c <TIM_ETR_SetConfig>
 8003722:	687b      	ldr	r3, [r7, #4]
 8003724:	681b      	ldr	r3, [r3, #0]
 8003726:	689a      	ldr	r2, [r3, #8]
 8003728:	687b      	ldr	r3, [r7, #4]
 800372a:	681b      	ldr	r3, [r3, #0]
 800372c:	f442 4280 	orr.w	r2, r2, #16384	; 0x4000
 8003730:	609a      	str	r2, [r3, #8]
 8003732:	e03b      	b.n	80037ac <HAL_TIM_ConfigClockSource+0x16e>
 8003734:	687b      	ldr	r3, [r7, #4]
 8003736:	6818      	ldr	r0, [r3, #0]
 8003738:	683b      	ldr	r3, [r7, #0]
 800373a:	6859      	ldr	r1, [r3, #4]
 800373c:	683b      	ldr	r3, [r7, #0]
 800373e:	68db      	ldr	r3, [r3, #12]
 8003740:	461a      	mov	r2, r3
 8003742:	f000 f909 	bl	8003958 <TIM_TI1_ConfigInputStage>
 8003746:	687b      	ldr	r3, [r7, #4]
 8003748:	681b      	ldr	r3, [r3, #0]
 800374a:	2150      	movs	r1, #80	; 0x50
 800374c:	4618      	mov	r0, r3
 800374e:	f000 f962 	bl	8003a16 <TIM_ITRx_SetConfig>
 8003752:	e02b      	b.n	80037ac <HAL_TIM_ConfigClockSource+0x16e>
 8003754:	687b      	ldr	r3, [r7, #4]
 8003756:	6818      	ldr	r0, [r3, #0]
 8003758:	683b      	ldr	r3, [r7, #0]
 800375a:	6859      	ldr	r1, [r3, #4]
 800375c:	683b      	ldr	r3, [r7, #0]
 800375e:	68db      	ldr	r3, [r3, #12]
 8003760:	461a      	mov	r2, r3
 8003762:	f000 f928 	bl	80039b6 <TIM_TI2_ConfigInputStage>
 8003766:	687b      	ldr	r3, [r7, #4]
 8003768:	681b      	ldr	r3, [r3, #0]
 800376a:	2160      	movs	r1, #96	; 0x60
 800376c:	4618      	mov	r0, r3
 800376e:	f000 f952 	bl	8003a16 <TIM_ITRx_SetConfig>
 8003772:	e01b      	b.n	80037ac <HAL_TIM_ConfigClockSource+0x16e>
 8003774:	687b      	ldr	r3, [r7, #4]
 8003776:	6818      	ldr	r0, [r3, #0]
 8003778:	683b      	ldr	r3, [r7, #0]
 800377a:	6859      	ldr	r1, [r3, #4]
 800377c:	683b      	ldr	r3, [r7, #0]
 800377e:	68db      	ldr	r3, [r3, #12]
 8003780:	461a      	mov	r2, r3
 8003782:	f000 f8e9 	bl	8003958 <TIM_TI1_ConfigInputStage>
 8003786:	687b      	ldr	r3, [r7, #4]
 8003788:	681b      	ldr	r3, [r3, #0]
 800378a:	2140      	movs	r1, #64	; 0x40
 800378c:	4618      	mov	r0, r3
 800378e:	f000 f942 	bl	8003a16 <TIM_ITRx_SetConfig>
 8003792:	e00b      	b.n	80037ac <HAL_TIM_ConfigClockSource+0x16e>
 8003794:	687b      	ldr	r3, [r7, #4]
 8003796:	681a      	ldr	r2, [r3, #0]
 8003798:	683b      	ldr	r3, [r7, #0]
 800379a:	681b      	ldr	r3, [r3, #0]
 800379c:	4619      	mov	r1, r3
 800379e:	4610      	mov	r0, r2
 80037a0:	f000 f939 	bl	8003a16 <TIM_ITRx_SetConfig>
 80037a4:	e002      	b.n	80037ac <HAL_TIM_ConfigClockSource+0x16e>
 80037a6:	bf00      	nop
 80037a8:	e000      	b.n	80037ac <HAL_TIM_ConfigClockSource+0x16e>
 80037aa:	bf00      	nop
 80037ac:	687b      	ldr	r3, [r7, #4]
 80037ae:	2201      	movs	r2, #1
 80037b0:	f883 203d 	strb.w	r2, [r3, #61]	; 0x3d
 80037b4:	687b      	ldr	r3, [r7, #4]
 80037b6:	2200      	movs	r2, #0
 80037b8:	f883 203c 	strb.w	r2, [r3, #60]	; 0x3c
 80037bc:	2300      	movs	r3, #0
 80037be:	4618      	mov	r0, r3
 80037c0:	3710      	adds	r7, #16
 80037c2:	46bd      	mov	sp, r7
 80037c4:	bd80      	pop	{r7, pc}

080037c6 <HAL_TIM_OC_DelayElapsedCallback>:
 80037c6:	b480      	push	{r7}
 80037c8:	b083      	sub	sp, #12
 80037ca:	af00      	add	r7, sp, #0
 80037cc:	6078      	str	r0, [r7, #4]
 80037ce:	bf00      	nop
 80037d0:	370c      	adds	r7, #12
 80037d2:	46bd      	mov	sp, r7
 80037d4:	f85d 7b04 	ldr.w	r7, [sp], #4
 80037d8:	4770      	bx	lr

080037da <HAL_TIM_IC_CaptureCallback>:
 80037da:	b480      	push	{r7}
 80037dc:	b083      	sub	sp, #12
 80037de:	af00      	add	r7, sp, #0
 80037e0:	6078      	str	r0, [r7, #4]
 80037e2:	bf00      	nop
 80037e4:	370c      	adds	r7, #12
 80037e6:	46bd      	mov	sp, r7
 80037e8:	f85d 7b04 	ldr.w	r7, [sp], #4
 80037ec:	4770      	bx	lr

080037ee <HAL_TIM_PWM_PulseFinishedCallback>:
 80037ee:	b480      	push	{r7}
 80037f0:	b083      	sub	sp, #12
 80037f2:	af00      	add	r7, sp, #0
 80037f4:	6078      	str	r0, [r7, #4]
 80037f6:	bf00      	nop
 80037f8:	370c      	adds	r7, #12
 80037fa:	46bd      	mov	sp, r7
 80037fc:	f85d 7b04 	ldr.w	r7, [sp], #4
 8003800:	4770      	bx	lr

08003802 <HAL_TIM_TriggerCallback>:
 8003802:	b480      	push	{r7}
 8003804:	b083      	sub	sp, #12
 8003806:	af00      	add	r7, sp, #0
 8003808:	6078      	str	r0, [r7, #4]
 800380a:	bf00      	nop
 800380c:	370c      	adds	r7, #12
 800380e:	46bd      	mov	sp, r7
 8003810:	f85d 7b04 	ldr.w	r7, [sp], #4
 8003814:	4770      	bx	lr
	...

08003818 <TIM_Base_SetConfig>:
 8003818:	b480      	push	{r7}
 800381a:	b085      	sub	sp, #20
 800381c:	af00      	add	r7, sp, #0
 800381e:	6078      	str	r0, [r7, #4]
 8003820:	6039      	str	r1, [r7, #0]
 8003822:	687b      	ldr	r3, [r7, #4]
 8003824:	681b      	ldr	r3, [r3, #0]
 8003826:	60fb      	str	r3, [r7, #12]
 8003828:	687b      	ldr	r3, [r7, #4]
 800382a:	4a40      	ldr	r2, [pc, #256]	; (800392c <TIM_Base_SetConfig+0x114>)
 800382c:	4293      	cmp	r3, r2
 800382e:	d013      	beq.n	8003858 <TIM_Base_SetConfig+0x40>
 8003830:	687b      	ldr	r3, [r7, #4]
 8003832:	f1b3 4f80 	cmp.w	r3, #1073741824	; 0x40000000
 8003836:	d00f      	beq.n	8003858 <TIM_Base_SetConfig+0x40>
 8003838:	687b      	ldr	r3, [r7, #4]
 800383a:	4a3d      	ldr	r2, [pc, #244]	; (8003930 <TIM_Base_SetConfig+0x118>)
 800383c:	4293      	cmp	r3, r2
 800383e:	d00b      	beq.n	8003858 <TIM_Base_SetConfig+0x40>
 8003840:	687b      	ldr	r3, [r7, #4]
 8003842:	4a3c      	ldr	r2, [pc, #240]	; (8003934 <TIM_Base_SetConfig+0x11c>)
 8003844:	4293      	cmp	r3, r2
 8003846:	d007      	beq.n	8003858 <TIM_Base_SetConfig+0x40>
 8003848:	687b      	ldr	r3, [r7, #4]
 800384a:	4a3b      	ldr	r2, [pc, #236]	; (8003938 <TIM_Base_SetConfig+0x120>)
 800384c:	4293      	cmp	r3, r2
 800384e:	d003      	beq.n	8003858 <TIM_Base_SetConfig+0x40>
 8003850:	687b      	ldr	r3, [r7, #4]
 8003852:	4a3a      	ldr	r2, [pc, #232]	; (800393c <TIM_Base_SetConfig+0x124>)
 8003854:	4293      	cmp	r3, r2
 8003856:	d108      	bne.n	800386a <TIM_Base_SetConfig+0x52>
 8003858:	68fb      	ldr	r3, [r7, #12]
 800385a:	f023 0370 	bic.w	r3, r3, #112	; 0x70
 800385e:	60fb      	str	r3, [r7, #12]
 8003860:	683b      	ldr	r3, [r7, #0]
 8003862:	685b      	ldr	r3, [r3, #4]
 8003864:	68fa      	ldr	r2, [r7, #12]
 8003866:	4313      	orrs	r3, r2
 8003868:	60fb      	str	r3, [r7, #12]
 800386a:	687b      	ldr	r3, [r7, #4]
 800386c:	4a2f      	ldr	r2, [pc, #188]	; (800392c <TIM_Base_SetConfig+0x114>)
 800386e:	4293      	cmp	r3, r2
 8003870:	d02b      	beq.n	80038ca <TIM_Base_SetConfig+0xb2>
 8003872:	687b      	ldr	r3, [r7, #4]
 8003874:	f1b3 4f80 	cmp.w	r3, #1073741824	; 0x40000000
 8003878:	d027      	beq.n	80038ca <TIM_Base_SetConfig+0xb2>
 800387a:	687b      	ldr	r3, [r7, #4]
 800387c:	4a2c      	ldr	r2, [pc, #176]	; (8003930 <TIM_Base_SetConfig+0x118>)
 800387e:	4293      	cmp	r3, r2
 8003880:	d023      	beq.n	80038ca <TIM_Base_SetConfig+0xb2>
 8003882:	687b      	ldr	r3, [r7, #4]
 8003884:	4a2b      	ldr	r2, [pc, #172]	; (8003934 <TIM_Base_SetConfig+0x11c>)
 8003886:	4293      	cmp	r3, r2
 8003888:	d01f      	beq.n	80038ca <TIM_Base_SetConfig+0xb2>
 800388a:	687b      	ldr	r3, [r7, #4]
 800388c:	4a2a      	ldr	r2, [pc, #168]	; (8003938 <TIM_Base_SetConfig+0x120>)
 800388e:	4293      	cmp	r3, r2
 8003890:	d01b      	beq.n	80038ca <TIM_Base_SetConfig+0xb2>
 8003892:	687b      	ldr	r3, [r7, #4]
 8003894:	4a29      	ldr	r2, [pc, #164]	; (800393c <TIM_Base_SetConfig+0x124>)
 8003896:	4293      	cmp	r3, r2
 8003898:	d017      	beq.n	80038ca <TIM_Base_SetConfig+0xb2>
 800389a:	687b      	ldr	r3, [r7, #4]
 800389c:	4a28      	ldr	r2, [pc, #160]	; (8003940 <TIM_Base_SetConfig+0x128>)
 800389e:	4293      	cmp	r3, r2
 80038a0:	d013      	beq.n	80038ca <TIM_Base_SetConfig+0xb2>
 80038a2:	687b      	ldr	r3, [r7, #4]
 80038a4:	4a27      	ldr	r2, [pc, #156]	; (8003944 <TIM_Base_SetConfig+0x12c>)
 80038a6:	4293      	cmp	r3, r2
 80038a8:	d00f      	beq.n	80038ca <TIM_Base_SetConfig+0xb2>
 80038aa:	687b      	ldr	r3, [r7, #4]
 80038ac:	4a26      	ldr	r2, [pc, #152]	; (8003948 <TIM_Base_SetConfig+0x130>)
 80038ae:	4293      	cmp	r3, r2
 80038b0:	d00b      	beq.n	80038ca <TIM_Base_SetConfig+0xb2>
 80038b2:	687b      	ldr	r3, [r7, #4]
 80038b4:	4a25      	ldr	r2, [pc, #148]	; (800394c <TIM_Base_SetConfig+0x134>)
 80038b6:	4293      	cmp	r3, r2
 80038b8:	d007      	beq.n	80038ca <TIM_Base_SetConfig+0xb2>
 80038ba:	687b      	ldr	r3, [r7, #4]
 80038bc:	4a24      	ldr	r2, [pc, #144]	; (8003950 <TIM_Base_SetConfig+0x138>)
 80038be:	4293      	cmp	r3, r2
 80038c0:	d003      	beq.n	80038ca <TIM_Base_SetConfig+0xb2>
 80038c2:	687b      	ldr	r3, [r7, #4]
 80038c4:	4a23      	ldr	r2, [pc, #140]	; (8003954 <TIM_Base_SetConfig+0x13c>)
 80038c6:	4293      	cmp	r3, r2
 80038c8:	d108      	bne.n	80038dc <TIM_Base_SetConfig+0xc4>
 80038ca:	68fb      	ldr	r3, [r7, #12]
 80038cc:	f423 7340 	bic.w	r3, r3, #768	; 0x300
 80038d0:	60fb      	str	r3, [r7, #12]
 80038d2:	683b      	ldr	r3, [r7, #0]
 80038d4:	68db      	ldr	r3, [r3, #12]
 80038d6:	68fa      	ldr	r2, [r7, #12]
 80038d8:	4313      	orrs	r3, r2
 80038da:	60fb      	str	r3, [r7, #12]
 80038dc:	68fb      	ldr	r3, [r7, #12]
 80038de:	f023 0280 	bic.w	r2, r3, #128	; 0x80
 80038e2:	683b      	ldr	r3, [r7, #0]
 80038e4:	695b      	ldr	r3, [r3, #20]
 80038e6:	4313      	orrs	r3, r2
 80038e8:	60fb      	str	r3, [r7, #12]
 80038ea:	687b      	ldr	r3, [r7, #4]
 80038ec:	68fa      	ldr	r2, [r7, #12]
 80038ee:	601a      	str	r2, [r3, #0]
 80038f0:	683b      	ldr	r3, [r7, #0]
 80038f2:	689a      	ldr	r2, [r3, #8]
 80038f4:	687b      	ldr	r3, [r7, #4]
 80038f6:	62da      	str	r2, [r3, #44]	; 0x2c
 80038f8:	683b      	ldr	r3, [r7, #0]
 80038fa:	681a      	ldr	r2, [r3, #0]
 80038fc:	687b      	ldr	r3, [r7, #4]
 80038fe:	629a      	str	r2, [r3, #40]	; 0x28
 8003900:	687b      	ldr	r3, [r7, #4]
 8003902:	4a0a      	ldr	r2, [pc, #40]	; (800392c <TIM_Base_SetConfig+0x114>)
 8003904:	4293      	cmp	r3, r2
 8003906:	d003      	beq.n	8003910 <TIM_Base_SetConfig+0xf8>
 8003908:	687b      	ldr	r3, [r7, #4]
 800390a:	4a0c      	ldr	r2, [pc, #48]	; (800393c <TIM_Base_SetConfig+0x124>)
 800390c:	4293      	cmp	r3, r2
 800390e:	d103      	bne.n	8003918 <TIM_Base_SetConfig+0x100>
 8003910:	683b      	ldr	r3, [r7, #0]
 8003912:	691a      	ldr	r2, [r3, #16]
 8003914:	687b      	ldr	r3, [r7, #4]
 8003916:	631a      	str	r2, [r3, #48]	; 0x30
 8003918:	687b      	ldr	r3, [r7, #4]
 800391a:	2201      	movs	r2, #1
 800391c:	615a      	str	r2, [r3, #20]
 800391e:	bf00      	nop
 8003920:	3714      	adds	r7, #20
 8003922:	46bd      	mov	sp, r7
 8003924:	f85d 7b04 	ldr.w	r7, [sp], #4
 8003928:	4770      	bx	lr
 800392a:	bf00      	nop
 800392c:	40010000 	.word	0x40010000
 8003930:	40000400 	.word	0x40000400
 8003934:	40000800 	.word	0x40000800
 8003938:	40000c00 	.word	0x40000c00
 800393c:	40010400 	.word	0x40010400
 8003940:	40014000 	.word	0x40014000
 8003944:	40014400 	.word	0x40014400
 8003948:	40014800 	.word	0x40014800
 800394c:	40001800 	.word	0x40001800
 8003950:	40001c00 	.word	0x40001c00
 8003954:	40002000 	.word	0x40002000

08003958 <TIM_TI1_ConfigInputStage>:
 8003958:	b480      	push	{r7}
 800395a:	b087      	sub	sp, #28
 800395c:	af00      	add	r7, sp, #0
 800395e:	60f8      	str	r0, [r7, #12]
 8003960:	60b9      	str	r1, [r7, #8]
 8003962:	607a      	str	r2, [r7, #4]
 8003964:	68fb      	ldr	r3, [r7, #12]
 8003966:	6a1b      	ldr	r3, [r3, #32]
 8003968:	617b      	str	r3, [r7, #20]
 800396a:	68fb      	ldr	r3, [r7, #12]
 800396c:	6a1b      	ldr	r3, [r3, #32]
 800396e:	f023 0201 	bic.w	r2, r3, #1
 8003972:	68fb      	ldr	r3, [r7, #12]
 8003974:	621a      	str	r2, [r3, #32]
 8003976:	68fb      	ldr	r3, [r7, #12]
 8003978:	699b      	ldr	r3, [r3, #24]
 800397a:	613b      	str	r3, [r7, #16]
 800397c:	693b      	ldr	r3, [r7, #16]
 800397e:	f023 03f0 	bic.w	r3, r3, #240	; 0xf0
 8003982:	613b      	str	r3, [r7, #16]
 8003984:	687b      	ldr	r3, [r7, #4]
 8003986:	011b      	lsls	r3, r3, #4
 8003988:	693a      	ldr	r2, [r7, #16]
 800398a:	4313      	orrs	r3, r2
 800398c:	613b      	str	r3, [r7, #16]
 800398e:	697b      	ldr	r3, [r7, #20]
 8003990:	f023 030a 	bic.w	r3, r3, #10
 8003994:	617b      	str	r3, [r7, #20]
 8003996:	697a      	ldr	r2, [r7, #20]
 8003998:	68bb      	ldr	r3, [r7, #8]
 800399a:	4313      	orrs	r3, r2
 800399c:	617b      	str	r3, [r7, #20]
 800399e:	68fb      	ldr	r3, [r7, #12]
 80039a0:	693a      	ldr	r2, [r7, #16]
 80039a2:	619a      	str	r2, [r3, #24]
 80039a4:	68fb      	ldr	r3, [r7, #12]
 80039a6:	697a      	ldr	r2, [r7, #20]
 80039a8:	621a      	str	r2, [r3, #32]
 80039aa:	bf00      	nop
 80039ac:	371c      	adds	r7, #28
 80039ae:	46bd      	mov	sp, r7
 80039b0:	f85d 7b04 	ldr.w	r7, [sp], #4
 80039b4:	4770      	bx	lr

080039b6 <TIM_TI2_ConfigInputStage>:
 80039b6:	b480      	push	{r7}
 80039b8:	b087      	sub	sp, #28
 80039ba:	af00      	add	r7, sp, #0
 80039bc:	60f8      	str	r0, [r7, #12]
 80039be:	60b9      	str	r1, [r7, #8]
 80039c0:	607a      	str	r2, [r7, #4]
 80039c2:	68fb      	ldr	r3, [r7, #12]
 80039c4:	6a1b      	ldr	r3, [r3, #32]
 80039c6:	f023 0210 	bic.w	r2, r3, #16
 80039ca:	68fb      	ldr	r3, [r7, #12]
 80039cc:	621a      	str	r2, [r3, #32]
 80039ce:	68fb      	ldr	r3, [r7, #12]
 80039d0:	699b      	ldr	r3, [r3, #24]
 80039d2:	617b      	str	r3, [r7, #20]
 80039d4:	68fb      	ldr	r3, [r7, #12]
 80039d6:	6a1b      	ldr	r3, [r3, #32]
 80039d8:	613b      	str	r3, [r7, #16]
 80039da:	697b      	ldr	r3, [r7, #20]
 80039dc:	f423 4370 	bic.w	r3, r3, #61440	; 0xf000
 80039e0:	617b      	str	r3, [r7, #20]
 80039e2:	687b      	ldr	r3, [r7, #4]
 80039e4:	031b      	lsls	r3, r3, #12
 80039e6:	697a      	ldr	r2, [r7, #20]
 80039e8:	4313      	orrs	r3, r2
 80039ea:	617b      	str	r3, [r7, #20]
 80039ec:	693b      	ldr	r3, [r7, #16]
 80039ee:	f023 03a0 	bic.w	r3, r3, #160	; 0xa0
 80039f2:	613b      	str	r3, [r7, #16]
 80039f4:	68bb      	ldr	r3, [r7, #8]
 80039f6:	011b      	lsls	r3, r3, #4
 80039f8:	693a      	ldr	r2, [r7, #16]
 80039fa:	4313      	orrs	r3, r2
 80039fc:	613b      	str	r3, [r7, #16]
 80039fe:	68fb      	ldr	r3, [r7, #12]
 8003a00:	697a      	ldr	r2, [r7, #20]
 8003a02:	619a      	str	r2, [r3, #24]
 8003a04:	68fb      	ldr	r3, [r7, #12]
 8003a06:	693a      	ldr	r2, [r7, #16]
 8003a08:	621a      	str	r2, [r3, #32]
 8003a0a:	bf00      	nop
 8003a0c:	371c      	adds	r7, #28
 8003a0e:	46bd      	mov	sp, r7
 8003a10:	f85d 7b04 	ldr.w	r7, [sp], #4
 8003a14:	4770      	bx	lr

08003a16 <TIM_ITRx_SetConfig>:
 8003a16:	b480      	push	{r7}
 8003a18:	b085      	sub	sp, #20
 8003a1a:	af00      	add	r7, sp, #0
 8003a1c:	6078      	str	r0, [r7, #4]
 8003a1e:	6039      	str	r1, [r7, #0]
 8003a20:	687b      	ldr	r3, [r7, #4]
 8003a22:	689b      	ldr	r3, [r3, #8]
 8003a24:	60fb      	str	r3, [r7, #12]
 8003a26:	68fb      	ldr	r3, [r7, #12]
 8003a28:	f023 0370 	bic.w	r3, r3, #112	; 0x70
 8003a2c:	60fb      	str	r3, [r7, #12]
 8003a2e:	683a      	ldr	r2, [r7, #0]
 8003a30:	68fb      	ldr	r3, [r7, #12]
 8003a32:	4313      	orrs	r3, r2
 8003a34:	f043 0307 	orr.w	r3, r3, #7
 8003a38:	60fb      	str	r3, [r7, #12]
 8003a3a:	687b      	ldr	r3, [r7, #4]
 8003a3c:	68fa      	ldr	r2, [r7, #12]
 8003a3e:	609a      	str	r2, [r3, #8]
 8003a40:	bf00      	nop
 8003a42:	3714      	adds	r7, #20
 8003a44:	46bd      	mov	sp, r7
 8003a46:	f85d 7b04 	ldr.w	r7, [sp], #4
 8003a4a:	4770      	bx	lr

08003a4c <TIM_ETR_SetConfig>:
 8003a4c:	b480      	push	{r7}
 8003a4e:	b087      	sub	sp, #28
 8003a50:	af00      	add	r7, sp, #0
 8003a52:	60f8      	str	r0, [r7, #12]
 8003a54:	60b9      	str	r1, [r7, #8]
 8003a56:	607a      	str	r2, [r7, #4]
 8003a58:	603b      	str	r3, [r7, #0]
 8003a5a:	68fb      	ldr	r3, [r7, #12]
 8003a5c:	689b      	ldr	r3, [r3, #8]
 8003a5e:	617b      	str	r3, [r7, #20]
 8003a60:	697b      	ldr	r3, [r7, #20]
 8003a62:	f423 437f 	bic.w	r3, r3, #65280	; 0xff00
 8003a66:	617b      	str	r3, [r7, #20]
 8003a68:	683b      	ldr	r3, [r7, #0]
 8003a6a:	021a      	lsls	r2, r3, #8
 8003a6c:	687b      	ldr	r3, [r7, #4]
 8003a6e:	431a      	orrs	r2, r3
 8003a70:	68bb      	ldr	r3, [r7, #8]
 8003a72:	4313      	orrs	r3, r2
 8003a74:	697a      	ldr	r2, [r7, #20]
 8003a76:	4313      	orrs	r3, r2
 8003a78:	617b      	str	r3, [r7, #20]
 8003a7a:	68fb      	ldr	r3, [r7, #12]
 8003a7c:	697a      	ldr	r2, [r7, #20]
 8003a7e:	609a      	str	r2, [r3, #8]
 8003a80:	bf00      	nop
 8003a82:	371c      	adds	r7, #28
 8003a84:	46bd      	mov	sp, r7
 8003a86:	f85d 7b04 	ldr.w	r7, [sp], #4
 8003a8a:	4770      	bx	lr

08003a8c <HAL_TIMEx_MasterConfigSynchronization>:
 8003a8c:	b480      	push	{r7}
 8003a8e:	b085      	sub	sp, #20
 8003a90:	af00      	add	r7, sp, #0
 8003a92:	6078      	str	r0, [r7, #4]
 8003a94:	6039      	str	r1, [r7, #0]
 8003a96:	687b      	ldr	r3, [r7, #4]
 8003a98:	f893 303c 	ldrb.w	r3, [r3, #60]	; 0x3c
 8003a9c:	2b01      	cmp	r3, #1
 8003a9e:	d101      	bne.n	8003aa4 <HAL_TIMEx_MasterConfigSynchronization+0x18>
 8003aa0:	2302      	movs	r3, #2
 8003aa2:	e05a      	b.n	8003b5a <HAL_TIMEx_MasterConfigSynchronization+0xce>
 8003aa4:	687b      	ldr	r3, [r7, #4]
 8003aa6:	2201      	movs	r2, #1
 8003aa8:	f883 203c 	strb.w	r2, [r3, #60]	; 0x3c
 8003aac:	687b      	ldr	r3, [r7, #4]
 8003aae:	2202      	movs	r2, #2
 8003ab0:	f883 203d 	strb.w	r2, [r3, #61]	; 0x3d
 8003ab4:	687b      	ldr	r3, [r7, #4]
 8003ab6:	681b      	ldr	r3, [r3, #0]
 8003ab8:	685b      	ldr	r3, [r3, #4]
 8003aba:	60fb      	str	r3, [r7, #12]
 8003abc:	687b      	ldr	r3, [r7, #4]
 8003abe:	681b      	ldr	r3, [r3, #0]
 8003ac0:	689b      	ldr	r3, [r3, #8]
 8003ac2:	60bb      	str	r3, [r7, #8]
 8003ac4:	68fb      	ldr	r3, [r7, #12]
 8003ac6:	f023 0370 	bic.w	r3, r3, #112	; 0x70
 8003aca:	60fb      	str	r3, [r7, #12]
 8003acc:	683b      	ldr	r3, [r7, #0]
 8003ace:	681b      	ldr	r3, [r3, #0]
 8003ad0:	68fa      	ldr	r2, [r7, #12]
 8003ad2:	4313      	orrs	r3, r2
 8003ad4:	60fb      	str	r3, [r7, #12]
 8003ad6:	687b      	ldr	r3, [r7, #4]
 8003ad8:	681b      	ldr	r3, [r3, #0]
 8003ada:	68fa      	ldr	r2, [r7, #12]
 8003adc:	605a      	str	r2, [r3, #4]
 8003ade:	687b      	ldr	r3, [r7, #4]
 8003ae0:	681b      	ldr	r3, [r3, #0]
 8003ae2:	4a21      	ldr	r2, [pc, #132]	; (8003b68 <HAL_TIMEx_MasterConfigSynchronization+0xdc>)
 8003ae4:	4293      	cmp	r3, r2
 8003ae6:	d022      	beq.n	8003b2e <HAL_TIMEx_MasterConfigSynchronization+0xa2>
 8003ae8:	687b      	ldr	r3, [r7, #4]
 8003aea:	681b      	ldr	r3, [r3, #0]
 8003aec:	f1b3 4f80 	cmp.w	r3, #1073741824	; 0x40000000
 8003af0:	d01d      	beq.n	8003b2e <HAL_TIMEx_MasterConfigSynchronization+0xa2>
 8003af2:	687b      	ldr	r3, [r7, #4]
 8003af4:	681b      	ldr	r3, [r3, #0]
 8003af6:	4a1d      	ldr	r2, [pc, #116]	; (8003b6c <HAL_TIMEx_MasterConfigSynchronization+0xe0>)
 8003af8:	4293      	cmp	r3, r2
 8003afa:	d018      	beq.n	8003b2e <HAL_TIMEx_MasterConfigSynchronization+0xa2>
 8003afc:	687b      	ldr	r3, [r7, #4]
 8003afe:	681b      	ldr	r3, [r3, #0]
 8003b00:	4a1b      	ldr	r2, [pc, #108]	; (8003b70 <HAL_TIMEx_MasterConfigSynchronization+0xe4>)
 8003b02:	4293      	cmp	r3, r2
 8003b04:	d013      	beq.n	8003b2e <HAL_TIMEx_MasterConfigSynchronization+0xa2>
 8003b06:	687b      	ldr	r3, [r7, #4]
 8003b08:	681b      	ldr	r3, [r3, #0]
 8003b0a:	4a1a      	ldr	r2, [pc, #104]	; (8003b74 <HAL_TIMEx_MasterConfigSynchronization+0xe8>)
 8003b0c:	4293      	cmp	r3, r2
 8003b0e:	d00e      	beq.n	8003b2e <HAL_TIMEx_MasterConfigSynchronization+0xa2>
 8003b10:	687b      	ldr	r3, [r7, #4]
 8003b12:	681b      	ldr	r3, [r3, #0]
 8003b14:	4a18      	ldr	r2, [pc, #96]	; (8003b78 <HAL_TIMEx_MasterConfigSynchronization+0xec>)
 8003b16:	4293      	cmp	r3, r2
 8003b18:	d009      	beq.n	8003b2e <HAL_TIMEx_MasterConfigSynchronization+0xa2>
 8003b1a:	687b      	ldr	r3, [r7, #4]
 8003b1c:	681b      	ldr	r3, [r3, #0]
 8003b1e:	4a17      	ldr	r2, [pc, #92]	; (8003b7c <HAL_TIMEx_MasterConfigSynchronization+0xf0>)
 8003b20:	4293      	cmp	r3, r2
 8003b22:	d004      	beq.n	8003b2e <HAL_TIMEx_MasterConfigSynchronization+0xa2>
 8003b24:	687b      	ldr	r3, [r7, #4]
 8003b26:	681b      	ldr	r3, [r3, #0]
 8003b28:	4a15      	ldr	r2, [pc, #84]	; (8003b80 <HAL_TIMEx_MasterConfigSynchronization+0xf4>)
 8003b2a:	4293      	cmp	r3, r2
 8003b2c:	d10c      	bne.n	8003b48 <HAL_TIMEx_MasterConfigSynchronization+0xbc>
 8003b2e:	68bb      	ldr	r3, [r7, #8]
 8003b30:	f023 0380 	bic.w	r3, r3, #128	; 0x80
 8003b34:	60bb      	str	r3, [r7, #8]
 8003b36:	683b      	ldr	r3, [r7, #0]
 8003b38:	685b      	ldr	r3, [r3, #4]
 8003b3a:	68ba      	ldr	r2, [r7, #8]
 8003b3c:	4313      	orrs	r3, r2
 8003b3e:	60bb      	str	r3, [r7, #8]
 8003b40:	687b      	ldr	r3, [r7, #4]
 8003b42:	681b      	ldr	r3, [r3, #0]
 8003b44:	68ba      	ldr	r2, [r7, #8]
 8003b46:	609a      	str	r2, [r3, #8]
 8003b48:	687b      	ldr	r3, [r7, #4]
 8003b4a:	2201      	movs	r2, #1
 8003b4c:	f883 203d 	strb.w	r2, [r3, #61]	; 0x3d
 8003b50:	687b      	ldr	r3, [r7, #4]
 8003b52:	2200      	movs	r2, #0
 8003b54:	f883 203c 	strb.w	r2, [r3, #60]	; 0x3c
 8003b58:	2300      	movs	r3, #0
 8003b5a:	4618      	mov	r0, r3
 8003b5c:	3714      	adds	r7, #20
 8003b5e:	46bd      	mov	sp, r7
 8003b60:	f85d 7b04 	ldr.w	r7, [sp], #4
 8003b64:	4770      	bx	lr
 8003b66:	bf00      	nop
 8003b68:	40010000 	.word	0x40010000
 8003b6c:	40000400 	.word	0x40000400
 8003b70:	40000800 	.word	0x40000800
 8003b74:	40000c00 	.word	0x40000c00
 8003b78:	40010400 	.word	0x40010400
 8003b7c:	40014000 	.word	0x40014000
 8003b80:	40001800 	.word	0x40001800

08003b84 <HAL_TIMEx_CommutCallback>:
 8003b84:	b480      	push	{r7}
 8003b86:	b083      	sub	sp, #12
 8003b88:	af00      	add	r7, sp, #0
 8003b8a:	6078      	str	r0, [r7, #4]
 8003b8c:	bf00      	nop
 8003b8e:	370c      	adds	r7, #12
 8003b90:	46bd      	mov	sp, r7
 8003b92:	f85d 7b04 	ldr.w	r7, [sp], #4
 8003b96:	4770      	bx	lr

08003b98 <HAL_TIMEx_BreakCallback>:
 8003b98:	b480      	push	{r7}
 8003b9a:	b083      	sub	sp, #12
 8003b9c:	af00      	add	r7, sp, #0
 8003b9e:	6078      	str	r0, [r7, #4]
 8003ba0:	bf00      	nop
 8003ba2:	370c      	adds	r7, #12
 8003ba4:	46bd      	mov	sp, r7
 8003ba6:	f85d 7b04 	ldr.w	r7, [sp], #4
 8003baa:	4770      	bx	lr

08003bac <HAL_UART_Init>:
 8003bac:	b580      	push	{r7, lr}
 8003bae:	b082      	sub	sp, #8
 8003bb0:	af00      	add	r7, sp, #0
 8003bb2:	6078      	str	r0, [r7, #4]
 8003bb4:	687b      	ldr	r3, [r7, #4]
 8003bb6:	2b00      	cmp	r3, #0
 8003bb8:	d101      	bne.n	8003bbe <HAL_UART_Init+0x12>
 8003bba:	2301      	movs	r3, #1
 8003bbc:	e03f      	b.n	8003c3e <HAL_UART_Init+0x92>
 8003bbe:	687b      	ldr	r3, [r7, #4]
 8003bc0:	f893 3039 	ldrb.w	r3, [r3, #57]	; 0x39
 8003bc4:	b2db      	uxtb	r3, r3
 8003bc6:	2b00      	cmp	r3, #0
 8003bc8:	d106      	bne.n	8003bd8 <HAL_UART_Init+0x2c>
 8003bca:	687b      	ldr	r3, [r7, #4]
 8003bcc:	2200      	movs	r2, #0
 8003bce:	f883 2038 	strb.w	r2, [r3, #56]	; 0x38
 8003bd2:	6878      	ldr	r0, [r7, #4]
 8003bd4:	f7fd f9da 	bl	8000f8c <HAL_UART_MspInit>
 8003bd8:	687b      	ldr	r3, [r7, #4]
 8003bda:	2224      	movs	r2, #36	; 0x24
 8003bdc:	f883 2039 	strb.w	r2, [r3, #57]	; 0x39
 8003be0:	687b      	ldr	r3, [r7, #4]
 8003be2:	681b      	ldr	r3, [r3, #0]
 8003be4:	68da      	ldr	r2, [r3, #12]
 8003be6:	687b      	ldr	r3, [r7, #4]
 8003be8:	681b      	ldr	r3, [r3, #0]
 8003bea:	f422 5200 	bic.w	r2, r2, #8192	; 0x2000
 8003bee:	60da      	str	r2, [r3, #12]
 8003bf0:	6878      	ldr	r0, [r7, #4]
 8003bf2:	f000 fc6d 	bl	80044d0 <UART_SetConfig>
 8003bf6:	687b      	ldr	r3, [r7, #4]
 8003bf8:	681b      	ldr	r3, [r3, #0]
 8003bfa:	691a      	ldr	r2, [r3, #16]
 8003bfc:	687b      	ldr	r3, [r7, #4]
 8003bfe:	681b      	ldr	r3, [r3, #0]
 8003c00:	f422 4290 	bic.w	r2, r2, #18432	; 0x4800
 8003c04:	611a      	str	r2, [r3, #16]
 8003c06:	687b      	ldr	r3, [r7, #4]
 8003c08:	681b      	ldr	r3, [r3, #0]
 8003c0a:	695a      	ldr	r2, [r3, #20]
 8003c0c:	687b      	ldr	r3, [r7, #4]
 8003c0e:	681b      	ldr	r3, [r3, #0]
 8003c10:	f022 022a 	bic.w	r2, r2, #42	; 0x2a
 8003c14:	615a      	str	r2, [r3, #20]
 8003c16:	687b      	ldr	r3, [r7, #4]
 8003c18:	681b      	ldr	r3, [r3, #0]
 8003c1a:	68da      	ldr	r2, [r3, #12]
 8003c1c:	687b      	ldr	r3, [r7, #4]
 8003c1e:	681b      	ldr	r3, [r3, #0]
 8003c20:	f442 5200 	orr.w	r2, r2, #8192	; 0x2000
 8003c24:	60da      	str	r2, [r3, #12]
 8003c26:	687b      	ldr	r3, [r7, #4]
 8003c28:	2200      	movs	r2, #0
 8003c2a:	63da      	str	r2, [r3, #60]	; 0x3c
 8003c2c:	687b      	ldr	r3, [r7, #4]
 8003c2e:	2220      	movs	r2, #32
 8003c30:	f883 2039 	strb.w	r2, [r3, #57]	; 0x39
 8003c34:	687b      	ldr	r3, [r7, #4]
 8003c36:	2220      	movs	r2, #32
 8003c38:	f883 203a 	strb.w	r2, [r3, #58]	; 0x3a
 8003c3c:	2300      	movs	r3, #0
 8003c3e:	4618      	mov	r0, r3
 8003c40:	3708      	adds	r7, #8
 8003c42:	46bd      	mov	sp, r7
 8003c44:	bd80      	pop	{r7, pc}

08003c46 <HAL_UART_Transmit>:
 8003c46:	b580      	push	{r7, lr}
 8003c48:	b088      	sub	sp, #32
 8003c4a:	af02      	add	r7, sp, #8
 8003c4c:	60f8      	str	r0, [r7, #12]
 8003c4e:	60b9      	str	r1, [r7, #8]
 8003c50:	603b      	str	r3, [r7, #0]
 8003c52:	4613      	mov	r3, r2
 8003c54:	80fb      	strh	r3, [r7, #6]
 8003c56:	2300      	movs	r3, #0
 8003c58:	617b      	str	r3, [r7, #20]
 8003c5a:	68fb      	ldr	r3, [r7, #12]
 8003c5c:	f893 3039 	ldrb.w	r3, [r3, #57]	; 0x39
 8003c60:	b2db      	uxtb	r3, r3
 8003c62:	2b20      	cmp	r3, #32
 8003c64:	f040 8083 	bne.w	8003d6e <HAL_UART_Transmit+0x128>
 8003c68:	68bb      	ldr	r3, [r7, #8]
 8003c6a:	2b00      	cmp	r3, #0
 8003c6c:	d002      	beq.n	8003c74 <HAL_UART_Transmit+0x2e>
 8003c6e:	88fb      	ldrh	r3, [r7, #6]
 8003c70:	2b00      	cmp	r3, #0
 8003c72:	d101      	bne.n	8003c78 <HAL_UART_Transmit+0x32>
 8003c74:	2301      	movs	r3, #1
 8003c76:	e07b      	b.n	8003d70 <HAL_UART_Transmit+0x12a>
 8003c78:	68fb      	ldr	r3, [r7, #12]
 8003c7a:	f893 3038 	ldrb.w	r3, [r3, #56]	; 0x38
 8003c7e:	2b01      	cmp	r3, #1
 8003c80:	d101      	bne.n	8003c86 <HAL_UART_Transmit+0x40>
 8003c82:	2302      	movs	r3, #2
 8003c84:	e074      	b.n	8003d70 <HAL_UART_Transmit+0x12a>
 8003c86:	68fb      	ldr	r3, [r7, #12]
 8003c88:	2201      	movs	r2, #1
 8003c8a:	f883 2038 	strb.w	r2, [r3, #56]	; 0x38
 8003c8e:	68fb      	ldr	r3, [r7, #12]
 8003c90:	2200      	movs	r2, #0
 8003c92:	63da      	str	r2, [r3, #60]	; 0x3c
 8003c94:	68fb      	ldr	r3, [r7, #12]
 8003c96:	2221      	movs	r2, #33	; 0x21
 8003c98:	f883 2039 	strb.w	r2, [r3, #57]	; 0x39
 8003c9c:	f7fd fb68 	bl	8001370 <HAL_GetTick>
 8003ca0:	6178      	str	r0, [r7, #20]
 8003ca2:	68fb      	ldr	r3, [r7, #12]
 8003ca4:	88fa      	ldrh	r2, [r7, #6]
 8003ca6:	849a      	strh	r2, [r3, #36]	; 0x24
 8003ca8:	68fb      	ldr	r3, [r7, #12]
 8003caa:	88fa      	ldrh	r2, [r7, #6]
 8003cac:	84da      	strh	r2, [r3, #38]	; 0x26
 8003cae:	68fb      	ldr	r3, [r7, #12]
 8003cb0:	2200      	movs	r2, #0
 8003cb2:	f883 2038 	strb.w	r2, [r3, #56]	; 0x38
 8003cb6:	e042      	b.n	8003d3e <HAL_UART_Transmit+0xf8>
 8003cb8:	68fb      	ldr	r3, [r7, #12]
 8003cba:	8cdb      	ldrh	r3, [r3, #38]	; 0x26
 8003cbc:	b29b      	uxth	r3, r3
 8003cbe:	3b01      	subs	r3, #1
 8003cc0:	b29a      	uxth	r2, r3
 8003cc2:	68fb      	ldr	r3, [r7, #12]
 8003cc4:	84da      	strh	r2, [r3, #38]	; 0x26
 8003cc6:	68fb      	ldr	r3, [r7, #12]
 8003cc8:	689b      	ldr	r3, [r3, #8]
 8003cca:	f5b3 5f80 	cmp.w	r3, #4096	; 0x1000
 8003cce:	d122      	bne.n	8003d16 <HAL_UART_Transmit+0xd0>
 8003cd0:	683b      	ldr	r3, [r7, #0]
 8003cd2:	9300      	str	r3, [sp, #0]
 8003cd4:	697b      	ldr	r3, [r7, #20]
 8003cd6:	2200      	movs	r2, #0
 8003cd8:	2180      	movs	r1, #128	; 0x80
 8003cda:	68f8      	ldr	r0, [r7, #12]
 8003cdc:	f000 fa76 	bl	80041cc <UART_WaitOnFlagUntilTimeout>
 8003ce0:	4603      	mov	r3, r0
 8003ce2:	2b00      	cmp	r3, #0
 8003ce4:	d001      	beq.n	8003cea <HAL_UART_Transmit+0xa4>
 8003ce6:	2303      	movs	r3, #3
 8003ce8:	e042      	b.n	8003d70 <HAL_UART_Transmit+0x12a>
 8003cea:	68bb      	ldr	r3, [r7, #8]
 8003cec:	613b      	str	r3, [r7, #16]
 8003cee:	693b      	ldr	r3, [r7, #16]
 8003cf0:	881b      	ldrh	r3, [r3, #0]
 8003cf2:	461a      	mov	r2, r3
 8003cf4:	68fb      	ldr	r3, [r7, #12]
 8003cf6:	681b      	ldr	r3, [r3, #0]
 8003cf8:	f3c2 0208 	ubfx	r2, r2, #0, #9
 8003cfc:	605a      	str	r2, [r3, #4]
 8003cfe:	68fb      	ldr	r3, [r7, #12]
 8003d00:	691b      	ldr	r3, [r3, #16]
 8003d02:	2b00      	cmp	r3, #0
 8003d04:	d103      	bne.n	8003d0e <HAL_UART_Transmit+0xc8>
 8003d06:	68bb      	ldr	r3, [r7, #8]
 8003d08:	3302      	adds	r3, #2
 8003d0a:	60bb      	str	r3, [r7, #8]
 8003d0c:	e017      	b.n	8003d3e <HAL_UART_Transmit+0xf8>
 8003d0e:	68bb      	ldr	r3, [r7, #8]
 8003d10:	3301      	adds	r3, #1
 8003d12:	60bb      	str	r3, [r7, #8]
 8003d14:	e013      	b.n	8003d3e <HAL_UART_Transmit+0xf8>
 8003d16:	683b      	ldr	r3, [r7, #0]
 8003d18:	9300      	str	r3, [sp, #0]
 8003d1a:	697b      	ldr	r3, [r7, #20]
 8003d1c:	2200      	movs	r2, #0
 8003d1e:	2180      	movs	r1, #128	; 0x80
 8003d20:	68f8      	ldr	r0, [r7, #12]
 8003d22:	f000 fa53 	bl	80041cc <UART_WaitOnFlagUntilTimeout>
 8003d26:	4603      	mov	r3, r0
 8003d28:	2b00      	cmp	r3, #0
 8003d2a:	d001      	beq.n	8003d30 <HAL_UART_Transmit+0xea>
 8003d2c:	2303      	movs	r3, #3
 8003d2e:	e01f      	b.n	8003d70 <HAL_UART_Transmit+0x12a>
 8003d30:	68bb      	ldr	r3, [r7, #8]
 8003d32:	1c5a      	adds	r2, r3, #1
 8003d34:	60ba      	str	r2, [r7, #8]
 8003d36:	781a      	ldrb	r2, [r3, #0]
 8003d38:	68fb      	ldr	r3, [r7, #12]
 8003d3a:	681b      	ldr	r3, [r3, #0]
 8003d3c:	605a      	str	r2, [r3, #4]
 8003d3e:	68fb      	ldr	r3, [r7, #12]
 8003d40:	8cdb      	ldrh	r3, [r3, #38]	; 0x26
 8003d42:	b29b      	uxth	r3, r3
 8003d44:	2b00      	cmp	r3, #0
 8003d46:	d1b7      	bne.n	8003cb8 <HAL_UART_Transmit+0x72>
 8003d48:	683b      	ldr	r3, [r7, #0]
 8003d4a:	9300      	str	r3, [sp, #0]
 8003d4c:	697b      	ldr	r3, [r7, #20]
 8003d4e:	2200      	movs	r2, #0
 8003d50:	2140      	movs	r1, #64	; 0x40
 8003d52:	68f8      	ldr	r0, [r7, #12]
 8003d54:	f000 fa3a 	bl	80041cc <UART_WaitOnFlagUntilTimeout>
 8003d58:	4603      	mov	r3, r0
 8003d5a:	2b00      	cmp	r3, #0
 8003d5c:	d001      	beq.n	8003d62 <HAL_UART_Transmit+0x11c>
 8003d5e:	2303      	movs	r3, #3
 8003d60:	e006      	b.n	8003d70 <HAL_UART_Transmit+0x12a>
 8003d62:	68fb      	ldr	r3, [r7, #12]
 8003d64:	2220      	movs	r2, #32
 8003d66:	f883 2039 	strb.w	r2, [r3, #57]	; 0x39
 8003d6a:	2300      	movs	r3, #0
 8003d6c:	e000      	b.n	8003d70 <HAL_UART_Transmit+0x12a>
 8003d6e:	2302      	movs	r3, #2
 8003d70:	4618      	mov	r0, r3
 8003d72:	3718      	adds	r7, #24
 8003d74:	46bd      	mov	sp, r7
 8003d76:	bd80      	pop	{r7, pc}

08003d78 <HAL_UART_Receive_DMA>:
 8003d78:	b580      	push	{r7, lr}
 8003d7a:	b086      	sub	sp, #24
 8003d7c:	af00      	add	r7, sp, #0
 8003d7e:	60f8      	str	r0, [r7, #12]
 8003d80:	60b9      	str	r1, [r7, #8]
 8003d82:	4613      	mov	r3, r2
 8003d84:	80fb      	strh	r3, [r7, #6]
 8003d86:	68fb      	ldr	r3, [r7, #12]
 8003d88:	f893 303a 	ldrb.w	r3, [r3, #58]	; 0x3a
 8003d8c:	b2db      	uxtb	r3, r3
 8003d8e:	2b20      	cmp	r3, #32
 8003d90:	d166      	bne.n	8003e60 <HAL_UART_Receive_DMA+0xe8>
 8003d92:	68bb      	ldr	r3, [r7, #8]
 8003d94:	2b00      	cmp	r3, #0
 8003d96:	d002      	beq.n	8003d9e <HAL_UART_Receive_DMA+0x26>
 8003d98:	88fb      	ldrh	r3, [r7, #6]
 8003d9a:	2b00      	cmp	r3, #0
 8003d9c:	d101      	bne.n	8003da2 <HAL_UART_Receive_DMA+0x2a>
 8003d9e:	2301      	movs	r3, #1
 8003da0:	e05f      	b.n	8003e62 <HAL_UART_Receive_DMA+0xea>
 8003da2:	68fb      	ldr	r3, [r7, #12]
 8003da4:	f893 3038 	ldrb.w	r3, [r3, #56]	; 0x38
 8003da8:	2b01      	cmp	r3, #1
 8003daa:	d101      	bne.n	8003db0 <HAL_UART_Receive_DMA+0x38>
 8003dac:	2302      	movs	r3, #2
 8003dae:	e058      	b.n	8003e62 <HAL_UART_Receive_DMA+0xea>
 8003db0:	68fb      	ldr	r3, [r7, #12]
 8003db2:	2201      	movs	r2, #1
 8003db4:	f883 2038 	strb.w	r2, [r3, #56]	; 0x38
 8003db8:	68ba      	ldr	r2, [r7, #8]
 8003dba:	68fb      	ldr	r3, [r7, #12]
 8003dbc:	629a      	str	r2, [r3, #40]	; 0x28
 8003dbe:	68fb      	ldr	r3, [r7, #12]
 8003dc0:	88fa      	ldrh	r2, [r7, #6]
 8003dc2:	859a      	strh	r2, [r3, #44]	; 0x2c
 8003dc4:	68fb      	ldr	r3, [r7, #12]
 8003dc6:	2200      	movs	r2, #0
 8003dc8:	63da      	str	r2, [r3, #60]	; 0x3c
 8003dca:	68fb      	ldr	r3, [r7, #12]
 8003dcc:	2222      	movs	r2, #34	; 0x22
 8003dce:	f883 203a 	strb.w	r2, [r3, #58]	; 0x3a
 8003dd2:	68fb      	ldr	r3, [r7, #12]
 8003dd4:	6b5b      	ldr	r3, [r3, #52]	; 0x34
 8003dd6:	4a25      	ldr	r2, [pc, #148]	; (8003e6c <HAL_UART_Receive_DMA+0xf4>)
 8003dd8:	63da      	str	r2, [r3, #60]	; 0x3c
 8003dda:	68fb      	ldr	r3, [r7, #12]
 8003ddc:	6b5b      	ldr	r3, [r3, #52]	; 0x34
 8003dde:	4a24      	ldr	r2, [pc, #144]	; (8003e70 <HAL_UART_Receive_DMA+0xf8>)
 8003de0:	641a      	str	r2, [r3, #64]	; 0x40
 8003de2:	68fb      	ldr	r3, [r7, #12]
 8003de4:	6b5b      	ldr	r3, [r3, #52]	; 0x34
 8003de6:	4a23      	ldr	r2, [pc, #140]	; (8003e74 <HAL_UART_Receive_DMA+0xfc>)
 8003de8:	64da      	str	r2, [r3, #76]	; 0x4c
 8003dea:	68fb      	ldr	r3, [r7, #12]
 8003dec:	6b5b      	ldr	r3, [r3, #52]	; 0x34
 8003dee:	2200      	movs	r2, #0
 8003df0:	651a      	str	r2, [r3, #80]	; 0x50
 8003df2:	f107 0308 	add.w	r3, r7, #8
 8003df6:	617b      	str	r3, [r7, #20]
 8003df8:	68fb      	ldr	r3, [r7, #12]
 8003dfa:	6b58      	ldr	r0, [r3, #52]	; 0x34
 8003dfc:	68fb      	ldr	r3, [r7, #12]
 8003dfe:	681b      	ldr	r3, [r3, #0]
 8003e00:	3304      	adds	r3, #4
 8003e02:	4619      	mov	r1, r3
 8003e04:	697b      	ldr	r3, [r7, #20]
 8003e06:	681a      	ldr	r2, [r3, #0]
 8003e08:	88fb      	ldrh	r3, [r7, #6]
 8003e0a:	f7fe f857 	bl	8001ebc <HAL_DMA_Start_IT>
 8003e0e:	2300      	movs	r3, #0
 8003e10:	613b      	str	r3, [r7, #16]
 8003e12:	68fb      	ldr	r3, [r7, #12]
 8003e14:	681b      	ldr	r3, [r3, #0]
 8003e16:	681b      	ldr	r3, [r3, #0]
 8003e18:	613b      	str	r3, [r7, #16]
 8003e1a:	68fb      	ldr	r3, [r7, #12]
 8003e1c:	681b      	ldr	r3, [r3, #0]
 8003e1e:	685b      	ldr	r3, [r3, #4]
 8003e20:	613b      	str	r3, [r7, #16]
 8003e22:	693b      	ldr	r3, [r7, #16]
 8003e24:	68fb      	ldr	r3, [r7, #12]
 8003e26:	2200      	movs	r2, #0
 8003e28:	f883 2038 	strb.w	r2, [r3, #56]	; 0x38
 8003e2c:	68fb      	ldr	r3, [r7, #12]
 8003e2e:	681b      	ldr	r3, [r3, #0]
 8003e30:	68da      	ldr	r2, [r3, #12]
 8003e32:	68fb      	ldr	r3, [r7, #12]
 8003e34:	681b      	ldr	r3, [r3, #0]
 8003e36:	f442 7280 	orr.w	r2, r2, #256	; 0x100
 8003e3a:	60da      	str	r2, [r3, #12]
 8003e3c:	68fb      	ldr	r3, [r7, #12]
 8003e3e:	681b      	ldr	r3, [r3, #0]
 8003e40:	695a      	ldr	r2, [r3, #20]
 8003e42:	68fb      	ldr	r3, [r7, #12]
 8003e44:	681b      	ldr	r3, [r3, #0]
 8003e46:	f042 0201 	orr.w	r2, r2, #1
 8003e4a:	615a      	str	r2, [r3, #20]
 8003e4c:	68fb      	ldr	r3, [r7, #12]
 8003e4e:	681b      	ldr	r3, [r3, #0]
 8003e50:	695a      	ldr	r2, [r3, #20]
 8003e52:	68fb      	ldr	r3, [r7, #12]
 8003e54:	681b      	ldr	r3, [r3, #0]
 8003e56:	f042 0240 	orr.w	r2, r2, #64	; 0x40
 8003e5a:	615a      	str	r2, [r3, #20]
 8003e5c:	2300      	movs	r3, #0
 8003e5e:	e000      	b.n	8003e62 <HAL_UART_Receive_DMA+0xea>
 8003e60:	2302      	movs	r3, #2
 8003e62:	4618      	mov	r0, r3
 8003e64:	3718      	adds	r7, #24
 8003e66:	46bd      	mov	sp, r7
 8003e68:	bd80      	pop	{r7, pc}
 8003e6a:	bf00      	nop
 8003e6c:	080040b5 	.word	0x080040b5
 8003e70:	0800411d 	.word	0x0800411d
 8003e74:	08004139 	.word	0x08004139

08003e78 <HAL_UART_IRQHandler>:
 8003e78:	b580      	push	{r7, lr}
 8003e7a:	b088      	sub	sp, #32
 8003e7c:	af00      	add	r7, sp, #0
 8003e7e:	6078      	str	r0, [r7, #4]
 8003e80:	687b      	ldr	r3, [r7, #4]
 8003e82:	681b      	ldr	r3, [r3, #0]
 8003e84:	681b      	ldr	r3, [r3, #0]
 8003e86:	61fb      	str	r3, [r7, #28]
 8003e88:	687b      	ldr	r3, [r7, #4]
 8003e8a:	681b      	ldr	r3, [r3, #0]
 8003e8c:	68db      	ldr	r3, [r3, #12]
 8003e8e:	61bb      	str	r3, [r7, #24]
 8003e90:	687b      	ldr	r3, [r7, #4]
 8003e92:	681b      	ldr	r3, [r3, #0]
 8003e94:	695b      	ldr	r3, [r3, #20]
 8003e96:	617b      	str	r3, [r7, #20]
 8003e98:	2300      	movs	r3, #0
 8003e9a:	613b      	str	r3, [r7, #16]
 8003e9c:	2300      	movs	r3, #0
 8003e9e:	60fb      	str	r3, [r7, #12]
 8003ea0:	69fb      	ldr	r3, [r7, #28]
 8003ea2:	f003 030f 	and.w	r3, r3, #15
 8003ea6:	613b      	str	r3, [r7, #16]
 8003ea8:	693b      	ldr	r3, [r7, #16]
 8003eaa:	2b00      	cmp	r3, #0
 8003eac:	d10d      	bne.n	8003eca <HAL_UART_IRQHandler+0x52>
 8003eae:	69fb      	ldr	r3, [r7, #28]
 8003eb0:	f003 0320 	and.w	r3, r3, #32
 8003eb4:	2b00      	cmp	r3, #0
 8003eb6:	d008      	beq.n	8003eca <HAL_UART_IRQHandler+0x52>
 8003eb8:	69bb      	ldr	r3, [r7, #24]
 8003eba:	f003 0320 	and.w	r3, r3, #32
 8003ebe:	2b00      	cmp	r3, #0
 8003ec0:	d003      	beq.n	8003eca <HAL_UART_IRQHandler+0x52>
 8003ec2:	6878      	ldr	r0, [r7, #4]
 8003ec4:	f000 fa82 	bl	80043cc <UART_Receive_IT>
 8003ec8:	e0d0      	b.n	800406c <HAL_UART_IRQHandler+0x1f4>
 8003eca:	693b      	ldr	r3, [r7, #16]
 8003ecc:	2b00      	cmp	r3, #0
 8003ece:	f000 80b0 	beq.w	8004032 <HAL_UART_IRQHandler+0x1ba>
 8003ed2:	697b      	ldr	r3, [r7, #20]
 8003ed4:	f003 0301 	and.w	r3, r3, #1
 8003ed8:	2b00      	cmp	r3, #0
 8003eda:	d105      	bne.n	8003ee8 <HAL_UART_IRQHandler+0x70>
 8003edc:	69bb      	ldr	r3, [r7, #24]
 8003ede:	f403 7390 	and.w	r3, r3, #288	; 0x120
 8003ee2:	2b00      	cmp	r3, #0
 8003ee4:	f000 80a5 	beq.w	8004032 <HAL_UART_IRQHandler+0x1ba>
 8003ee8:	69fb      	ldr	r3, [r7, #28]
 8003eea:	f003 0301 	and.w	r3, r3, #1
 8003eee:	2b00      	cmp	r3, #0
 8003ef0:	d00a      	beq.n	8003f08 <HAL_UART_IRQHandler+0x90>
 8003ef2:	69bb      	ldr	r3, [r7, #24]
 8003ef4:	f403 7380 	and.w	r3, r3, #256	; 0x100
 8003ef8:	2b00      	cmp	r3, #0
 8003efa:	d005      	beq.n	8003f08 <HAL_UART_IRQHandler+0x90>
 8003efc:	687b      	ldr	r3, [r7, #4]
 8003efe:	6bdb      	ldr	r3, [r3, #60]	; 0x3c
 8003f00:	f043 0201 	orr.w	r2, r3, #1
 8003f04:	687b      	ldr	r3, [r7, #4]
 8003f06:	63da      	str	r2, [r3, #60]	; 0x3c
 8003f08:	69fb      	ldr	r3, [r7, #28]
 8003f0a:	f003 0304 	and.w	r3, r3, #4
 8003f0e:	2b00      	cmp	r3, #0
 8003f10:	d00a      	beq.n	8003f28 <HAL_UART_IRQHandler+0xb0>
 8003f12:	697b      	ldr	r3, [r7, #20]
 8003f14:	f003 0301 	and.w	r3, r3, #1
 8003f18:	2b00      	cmp	r3, #0
 8003f1a:	d005      	beq.n	8003f28 <HAL_UART_IRQHandler+0xb0>
 8003f1c:	687b      	ldr	r3, [r7, #4]
 8003f1e:	6bdb      	ldr	r3, [r3, #60]	; 0x3c
 8003f20:	f043 0202 	orr.w	r2, r3, #2
 8003f24:	687b      	ldr	r3, [r7, #4]
 8003f26:	63da      	str	r2, [r3, #60]	; 0x3c
 8003f28:	69fb      	ldr	r3, [r7, #28]
 8003f2a:	f003 0302 	and.w	r3, r3, #2
 8003f2e:	2b00      	cmp	r3, #0
 8003f30:	d00a      	beq.n	8003f48 <HAL_UART_IRQHandler+0xd0>
 8003f32:	697b      	ldr	r3, [r7, #20]
 8003f34:	f003 0301 	and.w	r3, r3, #1
 8003f38:	2b00      	cmp	r3, #0
 8003f3a:	d005      	beq.n	8003f48 <HAL_UART_IRQHandler+0xd0>
 8003f3c:	687b      	ldr	r3, [r7, #4]
 8003f3e:	6bdb      	ldr	r3, [r3, #60]	; 0x3c
 8003f40:	f043 0204 	orr.w	r2, r3, #4
 8003f44:	687b      	ldr	r3, [r7, #4]
 8003f46:	63da      	str	r2, [r3, #60]	; 0x3c
 8003f48:	69fb      	ldr	r3, [r7, #28]
 8003f4a:	f003 0308 	and.w	r3, r3, #8
 8003f4e:	2b00      	cmp	r3, #0
 8003f50:	d00f      	beq.n	8003f72 <HAL_UART_IRQHandler+0xfa>
 8003f52:	69bb      	ldr	r3, [r7, #24]
 8003f54:	f003 0320 	and.w	r3, r3, #32
 8003f58:	2b00      	cmp	r3, #0
 8003f5a:	d104      	bne.n	8003f66 <HAL_UART_IRQHandler+0xee>
 8003f5c:	697b      	ldr	r3, [r7, #20]
 8003f5e:	f003 0301 	and.w	r3, r3, #1
 8003f62:	2b00      	cmp	r3, #0
 8003f64:	d005      	beq.n	8003f72 <HAL_UART_IRQHandler+0xfa>
 8003f66:	687b      	ldr	r3, [r7, #4]
 8003f68:	6bdb      	ldr	r3, [r3, #60]	; 0x3c
 8003f6a:	f043 0208 	orr.w	r2, r3, #8
 8003f6e:	687b      	ldr	r3, [r7, #4]
 8003f70:	63da      	str	r2, [r3, #60]	; 0x3c
 8003f72:	687b      	ldr	r3, [r7, #4]
 8003f74:	6bdb      	ldr	r3, [r3, #60]	; 0x3c
 8003f76:	2b00      	cmp	r3, #0
 8003f78:	d077      	beq.n	800406a <HAL_UART_IRQHandler+0x1f2>
 8003f7a:	69fb      	ldr	r3, [r7, #28]
 8003f7c:	f003 0320 	and.w	r3, r3, #32
 8003f80:	2b00      	cmp	r3, #0
 8003f82:	d007      	beq.n	8003f94 <HAL_UART_IRQHandler+0x11c>
 8003f84:	69bb      	ldr	r3, [r7, #24]
 8003f86:	f003 0320 	and.w	r3, r3, #32
 8003f8a:	2b00      	cmp	r3, #0
 8003f8c:	d002      	beq.n	8003f94 <HAL_UART_IRQHandler+0x11c>
 8003f8e:	6878      	ldr	r0, [r7, #4]
 8003f90:	f000 fa1c 	bl	80043cc <UART_Receive_IT>
 8003f94:	687b      	ldr	r3, [r7, #4]
 8003f96:	681b      	ldr	r3, [r3, #0]
 8003f98:	695b      	ldr	r3, [r3, #20]
 8003f9a:	f003 0340 	and.w	r3, r3, #64	; 0x40
 8003f9e:	2b40      	cmp	r3, #64	; 0x40
 8003fa0:	bf0c      	ite	eq
 8003fa2:	2301      	moveq	r3, #1
 8003fa4:	2300      	movne	r3, #0
 8003fa6:	b2db      	uxtb	r3, r3
 8003fa8:	60fb      	str	r3, [r7, #12]
 8003faa:	687b      	ldr	r3, [r7, #4]
 8003fac:	6bdb      	ldr	r3, [r3, #60]	; 0x3c
 8003fae:	f003 0308 	and.w	r3, r3, #8
 8003fb2:	2b00      	cmp	r3, #0
 8003fb4:	d102      	bne.n	8003fbc <HAL_UART_IRQHandler+0x144>
 8003fb6:	68fb      	ldr	r3, [r7, #12]
 8003fb8:	2b00      	cmp	r3, #0
 8003fba:	d031      	beq.n	8004020 <HAL_UART_IRQHandler+0x1a8>
 8003fbc:	6878      	ldr	r0, [r7, #4]
 8003fbe:	f000 f965 	bl	800428c <UART_EndRxTransfer>
 8003fc2:	687b      	ldr	r3, [r7, #4]
 8003fc4:	681b      	ldr	r3, [r3, #0]
 8003fc6:	695b      	ldr	r3, [r3, #20]
 8003fc8:	f003 0340 	and.w	r3, r3, #64	; 0x40
 8003fcc:	2b40      	cmp	r3, #64	; 0x40
 8003fce:	d123      	bne.n	8004018 <HAL_UART_IRQHandler+0x1a0>
 8003fd0:	687b      	ldr	r3, [r7, #4]
 8003fd2:	681b      	ldr	r3, [r3, #0]
 8003fd4:	695a      	ldr	r2, [r3, #20]
 8003fd6:	687b      	ldr	r3, [r7, #4]
 8003fd8:	681b      	ldr	r3, [r3, #0]
 8003fda:	f022 0240 	bic.w	r2, r2, #64	; 0x40
 8003fde:	615a      	str	r2, [r3, #20]
 8003fe0:	687b      	ldr	r3, [r7, #4]
 8003fe2:	6b5b      	ldr	r3, [r3, #52]	; 0x34
 8003fe4:	2b00      	cmp	r3, #0
 8003fe6:	d013      	beq.n	8004010 <HAL_UART_IRQHandler+0x198>
 8003fe8:	687b      	ldr	r3, [r7, #4]
 8003fea:	6b5b      	ldr	r3, [r3, #52]	; 0x34
 8003fec:	4a21      	ldr	r2, [pc, #132]	; (8004074 <HAL_UART_IRQHandler+0x1fc>)
 8003fee:	651a      	str	r2, [r3, #80]	; 0x50
 8003ff0:	687b      	ldr	r3, [r7, #4]
 8003ff2:	6b5b      	ldr	r3, [r3, #52]	; 0x34
 8003ff4:	4618      	mov	r0, r3
 8003ff6:	f7fd ffb9 	bl	8001f6c <HAL_DMA_Abort_IT>
 8003ffa:	4603      	mov	r3, r0
 8003ffc:	2b00      	cmp	r3, #0
 8003ffe:	d016      	beq.n	800402e <HAL_UART_IRQHandler+0x1b6>
 8004000:	687b      	ldr	r3, [r7, #4]
 8004002:	6b5b      	ldr	r3, [r3, #52]	; 0x34
 8004004:	6d1b      	ldr	r3, [r3, #80]	; 0x50
 8004006:	687a      	ldr	r2, [r7, #4]
 8004008:	6b52      	ldr	r2, [r2, #52]	; 0x34
 800400a:	4610      	mov	r0, r2
 800400c:	4798      	blx	r3
 800400e:	e00e      	b.n	800402e <HAL_UART_IRQHandler+0x1b6>
 8004010:	6878      	ldr	r0, [r7, #4]
 8004012:	f000 f845 	bl	80040a0 <HAL_UART_ErrorCallback>
 8004016:	e00a      	b.n	800402e <HAL_UART_IRQHandler+0x1b6>
 8004018:	6878      	ldr	r0, [r7, #4]
 800401a:	f000 f841 	bl	80040a0 <HAL_UART_ErrorCallback>
 800401e:	e006      	b.n	800402e <HAL_UART_IRQHandler+0x1b6>
 8004020:	6878      	ldr	r0, [r7, #4]
 8004022:	f000 f83d 	bl	80040a0 <HAL_UART_ErrorCallback>
 8004026:	687b      	ldr	r3, [r7, #4]
 8004028:	2200      	movs	r2, #0
 800402a:	63da      	str	r2, [r3, #60]	; 0x3c
 800402c:	e01d      	b.n	800406a <HAL_UART_IRQHandler+0x1f2>
 800402e:	bf00      	nop
 8004030:	e01b      	b.n	800406a <HAL_UART_IRQHandler+0x1f2>
 8004032:	69fb      	ldr	r3, [r7, #28]
 8004034:	f003 0380 	and.w	r3, r3, #128	; 0x80
 8004038:	2b00      	cmp	r3, #0
 800403a:	d008      	beq.n	800404e <HAL_UART_IRQHandler+0x1d6>
 800403c:	69bb      	ldr	r3, [r7, #24]
 800403e:	f003 0380 	and.w	r3, r3, #128	; 0x80
 8004042:	2b00      	cmp	r3, #0
 8004044:	d003      	beq.n	800404e <HAL_UART_IRQHandler+0x1d6>
 8004046:	6878      	ldr	r0, [r7, #4]
 8004048:	f000 f952 	bl	80042f0 <UART_Transmit_IT>
 800404c:	e00e      	b.n	800406c <HAL_UART_IRQHandler+0x1f4>
 800404e:	69fb      	ldr	r3, [r7, #28]
 8004050:	f003 0340 	and.w	r3, r3, #64	; 0x40
 8004054:	2b00      	cmp	r3, #0
 8004056:	d009      	beq.n	800406c <HAL_UART_IRQHandler+0x1f4>
 8004058:	69bb      	ldr	r3, [r7, #24]
 800405a:	f003 0340 	and.w	r3, r3, #64	; 0x40
 800405e:	2b00      	cmp	r3, #0
 8004060:	d004      	beq.n	800406c <HAL_UART_IRQHandler+0x1f4>
 8004062:	6878      	ldr	r0, [r7, #4]
 8004064:	f000 f99a 	bl	800439c <UART_EndTransmit_IT>
 8004068:	e000      	b.n	800406c <HAL_UART_IRQHandler+0x1f4>
 800406a:	bf00      	nop
 800406c:	3720      	adds	r7, #32
 800406e:	46bd      	mov	sp, r7
 8004070:	bd80      	pop	{r7, pc}
 8004072:	bf00      	nop
 8004074:	080042c9 	.word	0x080042c9

08004078 <HAL_UART_TxCpltCallback>:
 8004078:	b480      	push	{r7}
 800407a:	b083      	sub	sp, #12
 800407c:	af00      	add	r7, sp, #0
 800407e:	6078      	str	r0, [r7, #4]
 8004080:	bf00      	nop
 8004082:	370c      	adds	r7, #12
 8004084:	46bd      	mov	sp, r7
 8004086:	f85d 7b04 	ldr.w	r7, [sp], #4
 800408a:	4770      	bx	lr

0800408c <HAL_UART_RxHalfCpltCallback>:
 800408c:	b480      	push	{r7}
 800408e:	b083      	sub	sp, #12
 8004090:	af00      	add	r7, sp, #0
 8004092:	6078      	str	r0, [r7, #4]
 8004094:	bf00      	nop
 8004096:	370c      	adds	r7, #12
 8004098:	46bd      	mov	sp, r7
 800409a:	f85d 7b04 	ldr.w	r7, [sp], #4
 800409e:	4770      	bx	lr

080040a0 <HAL_UART_ErrorCallback>:
 80040a0:	b480      	push	{r7}
 80040a2:	b083      	sub	sp, #12
 80040a4:	af00      	add	r7, sp, #0
 80040a6:	6078      	str	r0, [r7, #4]
 80040a8:	bf00      	nop
 80040aa:	370c      	adds	r7, #12
 80040ac:	46bd      	mov	sp, r7
 80040ae:	f85d 7b04 	ldr.w	r7, [sp], #4
 80040b2:	4770      	bx	lr

080040b4 <UART_DMAReceiveCplt>:
 80040b4:	b580      	push	{r7, lr}
 80040b6:	b084      	sub	sp, #16
 80040b8:	af00      	add	r7, sp, #0
 80040ba:	6078      	str	r0, [r7, #4]
 80040bc:	687b      	ldr	r3, [r7, #4]
 80040be:	6b9b      	ldr	r3, [r3, #56]	; 0x38
 80040c0:	60fb      	str	r3, [r7, #12]
 80040c2:	687b      	ldr	r3, [r7, #4]
 80040c4:	681b      	ldr	r3, [r3, #0]
 80040c6:	681b      	ldr	r3, [r3, #0]
 80040c8:	f403 7380 	and.w	r3, r3, #256	; 0x100
 80040cc:	2b00      	cmp	r3, #0
 80040ce:	d11e      	bne.n	800410e <UART_DMAReceiveCplt+0x5a>
 80040d0:	68fb      	ldr	r3, [r7, #12]
 80040d2:	2200      	movs	r2, #0
 80040d4:	85da      	strh	r2, [r3, #46]	; 0x2e
 80040d6:	68fb      	ldr	r3, [r7, #12]
 80040d8:	681b      	ldr	r3, [r3, #0]
 80040da:	68da      	ldr	r2, [r3, #12]
 80040dc:	68fb      	ldr	r3, [r7, #12]
 80040de:	681b      	ldr	r3, [r3, #0]
 80040e0:	f422 7280 	bic.w	r2, r2, #256	; 0x100
 80040e4:	60da      	str	r2, [r3, #12]
 80040e6:	68fb      	ldr	r3, [r7, #12]
 80040e8:	681b      	ldr	r3, [r3, #0]
 80040ea:	695a      	ldr	r2, [r3, #20]
 80040ec:	68fb      	ldr	r3, [r7, #12]
 80040ee:	681b      	ldr	r3, [r3, #0]
 80040f0:	f022 0201 	bic.w	r2, r2, #1
 80040f4:	615a      	str	r2, [r3, #20]
 80040f6:	68fb      	ldr	r3, [r7, #12]
 80040f8:	681b      	ldr	r3, [r3, #0]
 80040fa:	695a      	ldr	r2, [r3, #20]
 80040fc:	68fb      	ldr	r3, [r7, #12]
 80040fe:	681b      	ldr	r3, [r3, #0]
 8004100:	f022 0240 	bic.w	r2, r2, #64	; 0x40
 8004104:	615a      	str	r2, [r3, #20]
 8004106:	68fb      	ldr	r3, [r7, #12]
 8004108:	2220      	movs	r2, #32
 800410a:	f883 203a 	strb.w	r2, [r3, #58]	; 0x3a
 800410e:	68f8      	ldr	r0, [r7, #12]
 8004110:	f001 fc16 	bl	8005940 <HAL_UART_RxCpltCallback>
 8004114:	bf00      	nop
 8004116:	3710      	adds	r7, #16
 8004118:	46bd      	mov	sp, r7
 800411a:	bd80      	pop	{r7, pc}

0800411c <UART_DMARxHalfCplt>:
 800411c:	b580      	push	{r7, lr}
 800411e:	b084      	sub	sp, #16
 8004120:	af00      	add	r7, sp, #0
 8004122:	6078      	str	r0, [r7, #4]
 8004124:	687b      	ldr	r3, [r7, #4]
 8004126:	6b9b      	ldr	r3, [r3, #56]	; 0x38
 8004128:	60fb      	str	r3, [r7, #12]
 800412a:	68f8      	ldr	r0, [r7, #12]
 800412c:	f7ff ffae 	bl	800408c <HAL_UART_RxHalfCpltCallback>
 8004130:	bf00      	nop
 8004132:	3710      	adds	r7, #16
 8004134:	46bd      	mov	sp, r7
 8004136:	bd80      	pop	{r7, pc}

08004138 <UART_DMAError>:
 8004138:	b580      	push	{r7, lr}
 800413a:	b084      	sub	sp, #16
 800413c:	af00      	add	r7, sp, #0
 800413e:	6078      	str	r0, [r7, #4]
 8004140:	2300      	movs	r3, #0
 8004142:	60fb      	str	r3, [r7, #12]
 8004144:	687b      	ldr	r3, [r7, #4]
 8004146:	6b9b      	ldr	r3, [r3, #56]	; 0x38
 8004148:	60bb      	str	r3, [r7, #8]
 800414a:	68bb      	ldr	r3, [r7, #8]
 800414c:	681b      	ldr	r3, [r3, #0]
 800414e:	695b      	ldr	r3, [r3, #20]
 8004150:	f003 0380 	and.w	r3, r3, #128	; 0x80
 8004154:	2b80      	cmp	r3, #128	; 0x80
 8004156:	bf0c      	ite	eq
 8004158:	2301      	moveq	r3, #1
 800415a:	2300      	movne	r3, #0
 800415c:	b2db      	uxtb	r3, r3
 800415e:	60fb      	str	r3, [r7, #12]
 8004160:	68bb      	ldr	r3, [r7, #8]
 8004162:	f893 3039 	ldrb.w	r3, [r3, #57]	; 0x39
 8004166:	b2db      	uxtb	r3, r3
 8004168:	2b21      	cmp	r3, #33	; 0x21
 800416a:	d108      	bne.n	800417e <UART_DMAError+0x46>
 800416c:	68fb      	ldr	r3, [r7, #12]
 800416e:	2b00      	cmp	r3, #0
 8004170:	d005      	beq.n	800417e <UART_DMAError+0x46>
 8004172:	68bb      	ldr	r3, [r7, #8]
 8004174:	2200      	movs	r2, #0
 8004176:	84da      	strh	r2, [r3, #38]	; 0x26
 8004178:	68b8      	ldr	r0, [r7, #8]
 800417a:	f000 f871 	bl	8004260 <UART_EndTxTransfer>
 800417e:	68bb      	ldr	r3, [r7, #8]
 8004180:	681b      	ldr	r3, [r3, #0]
 8004182:	695b      	ldr	r3, [r3, #20]
 8004184:	f003 0340 	and.w	r3, r3, #64	; 0x40
 8004188:	2b40      	cmp	r3, #64	; 0x40
 800418a:	bf0c      	ite	eq
 800418c:	2301      	moveq	r3, #1
 800418e:	2300      	movne	r3, #0
 8004190:	b2db      	uxtb	r3, r3
 8004192:	60fb      	str	r3, [r7, #12]
 8004194:	68bb      	ldr	r3, [r7, #8]
 8004196:	f893 303a 	ldrb.w	r3, [r3, #58]	; 0x3a
 800419a:	b2db      	uxtb	r3, r3
 800419c:	2b22      	cmp	r3, #34	; 0x22
 800419e:	d108      	bne.n	80041b2 <UART_DMAError+0x7a>
 80041a0:	68fb      	ldr	r3, [r7, #12]
 80041a2:	2b00      	cmp	r3, #0
 80041a4:	d005      	beq.n	80041b2 <UART_DMAError+0x7a>
 80041a6:	68bb      	ldr	r3, [r7, #8]
 80041a8:	2200      	movs	r2, #0
 80041aa:	85da      	strh	r2, [r3, #46]	; 0x2e
 80041ac:	68b8      	ldr	r0, [r7, #8]
 80041ae:	f000 f86d 	bl	800428c <UART_EndRxTransfer>
 80041b2:	68bb      	ldr	r3, [r7, #8]
 80041b4:	6bdb      	ldr	r3, [r3, #60]	; 0x3c
 80041b6:	f043 0210 	orr.w	r2, r3, #16
 80041ba:	68bb      	ldr	r3, [r7, #8]
 80041bc:	63da      	str	r2, [r3, #60]	; 0x3c
 80041be:	68b8      	ldr	r0, [r7, #8]
 80041c0:	f7ff ff6e 	bl	80040a0 <HAL_UART_ErrorCallback>
 80041c4:	bf00      	nop
 80041c6:	3710      	adds	r7, #16
 80041c8:	46bd      	mov	sp, r7
 80041ca:	bd80      	pop	{r7, pc}

080041cc <UART_WaitOnFlagUntilTimeout>:
 80041cc:	b580      	push	{r7, lr}
 80041ce:	b084      	sub	sp, #16
 80041d0:	af00      	add	r7, sp, #0
 80041d2:	60f8      	str	r0, [r7, #12]
 80041d4:	60b9      	str	r1, [r7, #8]
 80041d6:	603b      	str	r3, [r7, #0]
 80041d8:	4613      	mov	r3, r2
 80041da:	71fb      	strb	r3, [r7, #7]
 80041dc:	e02c      	b.n	8004238 <UART_WaitOnFlagUntilTimeout+0x6c>
 80041de:	69bb      	ldr	r3, [r7, #24]
 80041e0:	f1b3 3fff 	cmp.w	r3, #4294967295
 80041e4:	d028      	beq.n	8004238 <UART_WaitOnFlagUntilTimeout+0x6c>
 80041e6:	69bb      	ldr	r3, [r7, #24]
 80041e8:	2b00      	cmp	r3, #0
 80041ea:	d007      	beq.n	80041fc <UART_WaitOnFlagUntilTimeout+0x30>
 80041ec:	f7fd f8c0 	bl	8001370 <HAL_GetTick>
 80041f0:	4602      	mov	r2, r0
 80041f2:	683b      	ldr	r3, [r7, #0]
 80041f4:	1ad3      	subs	r3, r2, r3
 80041f6:	69ba      	ldr	r2, [r7, #24]
 80041f8:	429a      	cmp	r2, r3
 80041fa:	d21d      	bcs.n	8004238 <UART_WaitOnFlagUntilTimeout+0x6c>
 80041fc:	68fb      	ldr	r3, [r7, #12]
 80041fe:	681b      	ldr	r3, [r3, #0]
 8004200:	68da      	ldr	r2, [r3, #12]
 8004202:	68fb      	ldr	r3, [r7, #12]
 8004204:	681b      	ldr	r3, [r3, #0]
 8004206:	f422 72d0 	bic.w	r2, r2, #416	; 0x1a0
 800420a:	60da      	str	r2, [r3, #12]
 800420c:	68fb      	ldr	r3, [r7, #12]
 800420e:	681b      	ldr	r3, [r3, #0]
 8004210:	695a      	ldr	r2, [r3, #20]
 8004212:	68fb      	ldr	r3, [r7, #12]
 8004214:	681b      	ldr	r3, [r3, #0]
 8004216:	f022 0201 	bic.w	r2, r2, #1
 800421a:	615a      	str	r2, [r3, #20]
 800421c:	68fb      	ldr	r3, [r7, #12]
 800421e:	2220      	movs	r2, #32
 8004220:	f883 2039 	strb.w	r2, [r3, #57]	; 0x39
 8004224:	68fb      	ldr	r3, [r7, #12]
 8004226:	2220      	movs	r2, #32
 8004228:	f883 203a 	strb.w	r2, [r3, #58]	; 0x3a
 800422c:	68fb      	ldr	r3, [r7, #12]
 800422e:	2200      	movs	r2, #0
 8004230:	f883 2038 	strb.w	r2, [r3, #56]	; 0x38
 8004234:	2303      	movs	r3, #3
 8004236:	e00f      	b.n	8004258 <UART_WaitOnFlagUntilTimeout+0x8c>
 8004238:	68fb      	ldr	r3, [r7, #12]
 800423a:	681b      	ldr	r3, [r3, #0]
 800423c:	681a      	ldr	r2, [r3, #0]
 800423e:	68bb      	ldr	r3, [r7, #8]
 8004240:	4013      	ands	r3, r2
 8004242:	68ba      	ldr	r2, [r7, #8]
 8004244:	429a      	cmp	r2, r3
 8004246:	bf0c      	ite	eq
 8004248:	2301      	moveq	r3, #1
 800424a:	2300      	movne	r3, #0
 800424c:	b2db      	uxtb	r3, r3
 800424e:	461a      	mov	r2, r3
 8004250:	79fb      	ldrb	r3, [r7, #7]
 8004252:	429a      	cmp	r2, r3
 8004254:	d0c3      	beq.n	80041de <UART_WaitOnFlagUntilTimeout+0x12>
 8004256:	2300      	movs	r3, #0
 8004258:	4618      	mov	r0, r3
 800425a:	3710      	adds	r7, #16
 800425c:	46bd      	mov	sp, r7
 800425e:	bd80      	pop	{r7, pc}

08004260 <UART_EndTxTransfer>:
 8004260:	b480      	push	{r7}
 8004262:	b083      	sub	sp, #12
 8004264:	af00      	add	r7, sp, #0
 8004266:	6078      	str	r0, [r7, #4]
 8004268:	687b      	ldr	r3, [r7, #4]
 800426a:	681b      	ldr	r3, [r3, #0]
 800426c:	68da      	ldr	r2, [r3, #12]
 800426e:	687b      	ldr	r3, [r7, #4]
 8004270:	681b      	ldr	r3, [r3, #0]
 8004272:	f022 02c0 	bic.w	r2, r2, #192	; 0xc0
 8004276:	60da      	str	r2, [r3, #12]
 8004278:	687b      	ldr	r3, [r7, #4]
 800427a:	2220      	movs	r2, #32
 800427c:	f883 2039 	strb.w	r2, [r3, #57]	; 0x39
 8004280:	bf00      	nop
 8004282:	370c      	adds	r7, #12
 8004284:	46bd      	mov	sp, r7
 8004286:	f85d 7b04 	ldr.w	r7, [sp], #4
 800428a:	4770      	bx	lr

0800428c <UART_EndRxTransfer>:
 800428c:	b480      	push	{r7}
 800428e:	b083      	sub	sp, #12
 8004290:	af00      	add	r7, sp, #0
 8004292:	6078      	str	r0, [r7, #4]
 8004294:	687b      	ldr	r3, [r7, #4]
 8004296:	681b      	ldr	r3, [r3, #0]
 8004298:	68da      	ldr	r2, [r3, #12]
 800429a:	687b      	ldr	r3, [r7, #4]
 800429c:	681b      	ldr	r3, [r3, #0]
 800429e:	f422 7290 	bic.w	r2, r2, #288	; 0x120
 80042a2:	60da      	str	r2, [r3, #12]
 80042a4:	687b      	ldr	r3, [r7, #4]
 80042a6:	681b      	ldr	r3, [r3, #0]
 80042a8:	695a      	ldr	r2, [r3, #20]
 80042aa:	687b      	ldr	r3, [r7, #4]
 80042ac:	681b      	ldr	r3, [r3, #0]
 80042ae:	f022 0201 	bic.w	r2, r2, #1
 80042b2:	615a      	str	r2, [r3, #20]
 80042b4:	687b      	ldr	r3, [r7, #4]
 80042b6:	2220      	movs	r2, #32
 80042b8:	f883 203a 	strb.w	r2, [r3, #58]	; 0x3a
 80042bc:	bf00      	nop
 80042be:	370c      	adds	r7, #12
 80042c0:	46bd      	mov	sp, r7
 80042c2:	f85d 7b04 	ldr.w	r7, [sp], #4
 80042c6:	4770      	bx	lr

080042c8 <UART_DMAAbortOnError>:
 80042c8:	b580      	push	{r7, lr}
 80042ca:	b084      	sub	sp, #16
 80042cc:	af00      	add	r7, sp, #0
 80042ce:	6078      	str	r0, [r7, #4]
 80042d0:	687b      	ldr	r3, [r7, #4]
 80042d2:	6b9b      	ldr	r3, [r3, #56]	; 0x38
 80042d4:	60fb      	str	r3, [r7, #12]
 80042d6:	68fb      	ldr	r3, [r7, #12]
 80042d8:	2200      	movs	r2, #0
 80042da:	85da      	strh	r2, [r3, #46]	; 0x2e
 80042dc:	68fb      	ldr	r3, [r7, #12]
 80042de:	2200      	movs	r2, #0
 80042e0:	84da      	strh	r2, [r3, #38]	; 0x26
 80042e2:	68f8      	ldr	r0, [r7, #12]
 80042e4:	f7ff fedc 	bl	80040a0 <HAL_UART_ErrorCallback>
 80042e8:	bf00      	nop
 80042ea:	3710      	adds	r7, #16
 80042ec:	46bd      	mov	sp, r7
 80042ee:	bd80      	pop	{r7, pc}

080042f0 <UART_Transmit_IT>:
 80042f0:	b480      	push	{r7}
 80042f2:	b085      	sub	sp, #20
 80042f4:	af00      	add	r7, sp, #0
 80042f6:	6078      	str	r0, [r7, #4]
 80042f8:	687b      	ldr	r3, [r7, #4]
 80042fa:	f893 3039 	ldrb.w	r3, [r3, #57]	; 0x39
 80042fe:	b2db      	uxtb	r3, r3
 8004300:	2b21      	cmp	r3, #33	; 0x21
 8004302:	d144      	bne.n	800438e <UART_Transmit_IT+0x9e>
 8004304:	687b      	ldr	r3, [r7, #4]
 8004306:	689b      	ldr	r3, [r3, #8]
 8004308:	f5b3 5f80 	cmp.w	r3, #4096	; 0x1000
 800430c:	d11a      	bne.n	8004344 <UART_Transmit_IT+0x54>
 800430e:	687b      	ldr	r3, [r7, #4]
 8004310:	6a1b      	ldr	r3, [r3, #32]
 8004312:	60fb      	str	r3, [r7, #12]
 8004314:	68fb      	ldr	r3, [r7, #12]
 8004316:	881b      	ldrh	r3, [r3, #0]
 8004318:	461a      	mov	r2, r3
 800431a:	687b      	ldr	r3, [r7, #4]
 800431c:	681b      	ldr	r3, [r3, #0]
 800431e:	f3c2 0208 	ubfx	r2, r2, #0, #9
 8004322:	605a      	str	r2, [r3, #4]
 8004324:	687b      	ldr	r3, [r7, #4]
 8004326:	691b      	ldr	r3, [r3, #16]
 8004328:	2b00      	cmp	r3, #0
 800432a:	d105      	bne.n	8004338 <UART_Transmit_IT+0x48>
 800432c:	687b      	ldr	r3, [r7, #4]
 800432e:	6a1b      	ldr	r3, [r3, #32]
 8004330:	1c9a      	adds	r2, r3, #2
 8004332:	687b      	ldr	r3, [r7, #4]
 8004334:	621a      	str	r2, [r3, #32]
 8004336:	e00e      	b.n	8004356 <UART_Transmit_IT+0x66>
 8004338:	687b      	ldr	r3, [r7, #4]
 800433a:	6a1b      	ldr	r3, [r3, #32]
 800433c:	1c5a      	adds	r2, r3, #1
 800433e:	687b      	ldr	r3, [r7, #4]
 8004340:	621a      	str	r2, [r3, #32]
 8004342:	e008      	b.n	8004356 <UART_Transmit_IT+0x66>
 8004344:	687b      	ldr	r3, [r7, #4]
 8004346:	6a1b      	ldr	r3, [r3, #32]
 8004348:	1c59      	adds	r1, r3, #1
 800434a:	687a      	ldr	r2, [r7, #4]
 800434c:	6211      	str	r1, [r2, #32]
 800434e:	781a      	ldrb	r2, [r3, #0]
 8004350:	687b      	ldr	r3, [r7, #4]
 8004352:	681b      	ldr	r3, [r3, #0]
 8004354:	605a      	str	r2, [r3, #4]
 8004356:	687b      	ldr	r3, [r7, #4]
 8004358:	8cdb      	ldrh	r3, [r3, #38]	; 0x26
 800435a:	b29b      	uxth	r3, r3
 800435c:	3b01      	subs	r3, #1
 800435e:	b29b      	uxth	r3, r3
 8004360:	687a      	ldr	r2, [r7, #4]
 8004362:	4619      	mov	r1, r3
 8004364:	84d1      	strh	r1, [r2, #38]	; 0x26
 8004366:	2b00      	cmp	r3, #0
 8004368:	d10f      	bne.n	800438a <UART_Transmit_IT+0x9a>
 800436a:	687b      	ldr	r3, [r7, #4]
 800436c:	681b      	ldr	r3, [r3, #0]
 800436e:	68da      	ldr	r2, [r3, #12]
 8004370:	687b      	ldr	r3, [r7, #4]
 8004372:	681b      	ldr	r3, [r3, #0]
 8004374:	f022 0280 	bic.w	r2, r2, #128	; 0x80
 8004378:	60da      	str	r2, [r3, #12]
 800437a:	687b      	ldr	r3, [r7, #4]
 800437c:	681b      	ldr	r3, [r3, #0]
 800437e:	68da      	ldr	r2, [r3, #12]
 8004380:	687b      	ldr	r3, [r7, #4]
 8004382:	681b      	ldr	r3, [r3, #0]
 8004384:	f042 0240 	orr.w	r2, r2, #64	; 0x40
 8004388:	60da      	str	r2, [r3, #12]
 800438a:	2300      	movs	r3, #0
 800438c:	e000      	b.n	8004390 <UART_Transmit_IT+0xa0>
 800438e:	2302      	movs	r3, #2
 8004390:	4618      	mov	r0, r3
 8004392:	3714      	adds	r7, #20
 8004394:	46bd      	mov	sp, r7
 8004396:	f85d 7b04 	ldr.w	r7, [sp], #4
 800439a:	4770      	bx	lr

0800439c <UART_EndTransmit_IT>:
 800439c:	b580      	push	{r7, lr}
 800439e:	b082      	sub	sp, #8
 80043a0:	af00      	add	r7, sp, #0
 80043a2:	6078      	str	r0, [r7, #4]
 80043a4:	687b      	ldr	r3, [r7, #4]
 80043a6:	681b      	ldr	r3, [r3, #0]
 80043a8:	68da      	ldr	r2, [r3, #12]
 80043aa:	687b      	ldr	r3, [r7, #4]
 80043ac:	681b      	ldr	r3, [r3, #0]
 80043ae:	f022 0240 	bic.w	r2, r2, #64	; 0x40
 80043b2:	60da      	str	r2, [r3, #12]
 80043b4:	687b      	ldr	r3, [r7, #4]
 80043b6:	2220      	movs	r2, #32
 80043b8:	f883 2039 	strb.w	r2, [r3, #57]	; 0x39
 80043bc:	6878      	ldr	r0, [r7, #4]
 80043be:	f7ff fe5b 	bl	8004078 <HAL_UART_TxCpltCallback>
 80043c2:	2300      	movs	r3, #0
 80043c4:	4618      	mov	r0, r3
 80043c6:	3708      	adds	r7, #8
 80043c8:	46bd      	mov	sp, r7
 80043ca:	bd80      	pop	{r7, pc}

080043cc <UART_Receive_IT>:
 80043cc:	b580      	push	{r7, lr}
 80043ce:	b084      	sub	sp, #16
 80043d0:	af00      	add	r7, sp, #0
 80043d2:	6078      	str	r0, [r7, #4]
 80043d4:	687b      	ldr	r3, [r7, #4]
 80043d6:	f893 303a 	ldrb.w	r3, [r3, #58]	; 0x3a
 80043da:	b2db      	uxtb	r3, r3
 80043dc:	2b22      	cmp	r3, #34	; 0x22
 80043de:	d171      	bne.n	80044c4 <UART_Receive_IT+0xf8>
 80043e0:	687b      	ldr	r3, [r7, #4]
 80043e2:	689b      	ldr	r3, [r3, #8]
 80043e4:	f5b3 5f80 	cmp.w	r3, #4096	; 0x1000
 80043e8:	d123      	bne.n	8004432 <UART_Receive_IT+0x66>
 80043ea:	687b      	ldr	r3, [r7, #4]
 80043ec:	6a9b      	ldr	r3, [r3, #40]	; 0x28
 80043ee:	60fb      	str	r3, [r7, #12]
 80043f0:	687b      	ldr	r3, [r7, #4]
 80043f2:	691b      	ldr	r3, [r3, #16]
 80043f4:	2b00      	cmp	r3, #0
 80043f6:	d10e      	bne.n	8004416 <UART_Receive_IT+0x4a>
 80043f8:	687b      	ldr	r3, [r7, #4]
 80043fa:	681b      	ldr	r3, [r3, #0]
 80043fc:	685b      	ldr	r3, [r3, #4]
 80043fe:	b29b      	uxth	r3, r3
 8004400:	f3c3 0308 	ubfx	r3, r3, #0, #9
 8004404:	b29a      	uxth	r2, r3
 8004406:	68fb      	ldr	r3, [r7, #12]
 8004408:	801a      	strh	r2, [r3, #0]
 800440a:	687b      	ldr	r3, [r7, #4]
 800440c:	6a9b      	ldr	r3, [r3, #40]	; 0x28
 800440e:	1c9a      	adds	r2, r3, #2
 8004410:	687b      	ldr	r3, [r7, #4]
 8004412:	629a      	str	r2, [r3, #40]	; 0x28
 8004414:	e029      	b.n	800446a <UART_Receive_IT+0x9e>
 8004416:	687b      	ldr	r3, [r7, #4]
 8004418:	681b      	ldr	r3, [r3, #0]
 800441a:	685b      	ldr	r3, [r3, #4]
 800441c:	b29b      	uxth	r3, r3
 800441e:	b2db      	uxtb	r3, r3
 8004420:	b29a      	uxth	r2, r3
 8004422:	68fb      	ldr	r3, [r7, #12]
 8004424:	801a      	strh	r2, [r3, #0]
 8004426:	687b      	ldr	r3, [r7, #4]
 8004428:	6a9b      	ldr	r3, [r3, #40]	; 0x28
 800442a:	1c5a      	adds	r2, r3, #1
 800442c:	687b      	ldr	r3, [r7, #4]
 800442e:	629a      	str	r2, [r3, #40]	; 0x28
 8004430:	e01b      	b.n	800446a <UART_Receive_IT+0x9e>
 8004432:	687b      	ldr	r3, [r7, #4]
 8004434:	691b      	ldr	r3, [r3, #16]
 8004436:	2b00      	cmp	r3, #0
 8004438:	d10a      	bne.n	8004450 <UART_Receive_IT+0x84>
 800443a:	687b      	ldr	r3, [r7, #4]
 800443c:	681b      	ldr	r3, [r3, #0]
 800443e:	6858      	ldr	r0, [r3, #4]
 8004440:	687b      	ldr	r3, [r7, #4]
 8004442:	6a9b      	ldr	r3, [r3, #40]	; 0x28
 8004444:	1c59      	adds	r1, r3, #1
 8004446:	687a      	ldr	r2, [r7, #4]
 8004448:	6291      	str	r1, [r2, #40]	; 0x28
 800444a:	b2c2      	uxtb	r2, r0
 800444c:	701a      	strb	r2, [r3, #0]
 800444e:	e00c      	b.n	800446a <UART_Receive_IT+0x9e>
 8004450:	687b      	ldr	r3, [r7, #4]
 8004452:	681b      	ldr	r3, [r3, #0]
 8004454:	685b      	ldr	r3, [r3, #4]
 8004456:	b2da      	uxtb	r2, r3
 8004458:	687b      	ldr	r3, [r7, #4]
 800445a:	6a9b      	ldr	r3, [r3, #40]	; 0x28
 800445c:	1c58      	adds	r0, r3, #1
 800445e:	6879      	ldr	r1, [r7, #4]
 8004460:	6288      	str	r0, [r1, #40]	; 0x28
 8004462:	f002 027f 	and.w	r2, r2, #127	; 0x7f
 8004466:	b2d2      	uxtb	r2, r2
 8004468:	701a      	strb	r2, [r3, #0]
 800446a:	687b      	ldr	r3, [r7, #4]
 800446c:	8ddb      	ldrh	r3, [r3, #46]	; 0x2e
 800446e:	b29b      	uxth	r3, r3
 8004470:	3b01      	subs	r3, #1
 8004472:	b29b      	uxth	r3, r3
 8004474:	687a      	ldr	r2, [r7, #4]
 8004476:	4619      	mov	r1, r3
 8004478:	85d1      	strh	r1, [r2, #46]	; 0x2e
 800447a:	2b00      	cmp	r3, #0
 800447c:	d120      	bne.n	80044c0 <UART_Receive_IT+0xf4>
 800447e:	687b      	ldr	r3, [r7, #4]
 8004480:	681b      	ldr	r3, [r3, #0]
 8004482:	68da      	ldr	r2, [r3, #12]
 8004484:	687b      	ldr	r3, [r7, #4]
 8004486:	681b      	ldr	r3, [r3, #0]
 8004488:	f022 0220 	bic.w	r2, r2, #32
 800448c:	60da      	str	r2, [r3, #12]
 800448e:	687b      	ldr	r3, [r7, #4]
 8004490:	681b      	ldr	r3, [r3, #0]
 8004492:	68da      	ldr	r2, [r3, #12]
 8004494:	687b      	ldr	r3, [r7, #4]
 8004496:	681b      	ldr	r3, [r3, #0]
 8004498:	f422 7280 	bic.w	r2, r2, #256	; 0x100
 800449c:	60da      	str	r2, [r3, #12]
 800449e:	687b      	ldr	r3, [r7, #4]
 80044a0:	681b      	ldr	r3, [r3, #0]
 80044a2:	695a      	ldr	r2, [r3, #20]
 80044a4:	687b      	ldr	r3, [r7, #4]
 80044a6:	681b      	ldr	r3, [r3, #0]
 80044a8:	f022 0201 	bic.w	r2, r2, #1
 80044ac:	615a      	str	r2, [r3, #20]
 80044ae:	687b      	ldr	r3, [r7, #4]
 80044b0:	2220      	movs	r2, #32
 80044b2:	f883 203a 	strb.w	r2, [r3, #58]	; 0x3a
 80044b6:	6878      	ldr	r0, [r7, #4]
 80044b8:	f001 fa42 	bl	8005940 <HAL_UART_RxCpltCallback>
 80044bc:	2300      	movs	r3, #0
 80044be:	e002      	b.n	80044c6 <UART_Receive_IT+0xfa>
 80044c0:	2300      	movs	r3, #0
 80044c2:	e000      	b.n	80044c6 <UART_Receive_IT+0xfa>
 80044c4:	2302      	movs	r3, #2
 80044c6:	4618      	mov	r0, r3
 80044c8:	3710      	adds	r7, #16
 80044ca:	46bd      	mov	sp, r7
 80044cc:	bd80      	pop	{r7, pc}
	...

080044d0 <UART_SetConfig>:
 80044d0:	e92d 4ff0 	stmdb	sp!, {r4, r5, r6, r7, r8, r9, sl, fp, lr}
 80044d4:	b0bd      	sub	sp, #244	; 0xf4
 80044d6:	af00      	add	r7, sp, #0
 80044d8:	f8c7 00e4 	str.w	r0, [r7, #228]	; 0xe4
 80044dc:	f8d7 30e4 	ldr.w	r3, [r7, #228]	; 0xe4
 80044e0:	681b      	ldr	r3, [r3, #0]
 80044e2:	691b      	ldr	r3, [r3, #16]
 80044e4:	f423 5040 	bic.w	r0, r3, #12288	; 0x3000
 80044e8:	f8d7 30e4 	ldr.w	r3, [r7, #228]	; 0xe4
 80044ec:	68d9      	ldr	r1, [r3, #12]
 80044ee:	f8d7 30e4 	ldr.w	r3, [r7, #228]	; 0xe4
 80044f2:	681a      	ldr	r2, [r3, #0]
 80044f4:	ea40 0301 	orr.w	r3, r0, r1
 80044f8:	6113      	str	r3, [r2, #16]
 80044fa:	f8d7 30e4 	ldr.w	r3, [r7, #228]	; 0xe4
 80044fe:	689a      	ldr	r2, [r3, #8]
 8004500:	f8d7 30e4 	ldr.w	r3, [r7, #228]	; 0xe4
 8004504:	691b      	ldr	r3, [r3, #16]
 8004506:	431a      	orrs	r2, r3
 8004508:	f8d7 30e4 	ldr.w	r3, [r7, #228]	; 0xe4
 800450c:	695b      	ldr	r3, [r3, #20]
 800450e:	431a      	orrs	r2, r3
 8004510:	f8d7 30e4 	ldr.w	r3, [r7, #228]	; 0xe4
 8004514:	69db      	ldr	r3, [r3, #28]
 8004516:	4313      	orrs	r3, r2
 8004518:	f8c7 30ec 	str.w	r3, [r7, #236]	; 0xec
 800451c:	f8d7 30e4 	ldr.w	r3, [r7, #228]	; 0xe4
 8004520:	681b      	ldr	r3, [r3, #0]
 8004522:	68db      	ldr	r3, [r3, #12]
 8004524:	f423 4116 	bic.w	r1, r3, #38400	; 0x9600
 8004528:	f021 010c 	bic.w	r1, r1, #12
 800452c:	f8d7 30e4 	ldr.w	r3, [r7, #228]	; 0xe4
 8004530:	681a      	ldr	r2, [r3, #0]
 8004532:	f8d7 30ec 	ldr.w	r3, [r7, #236]	; 0xec
 8004536:	430b      	orrs	r3, r1
 8004538:	60d3      	str	r3, [r2, #12]
 800453a:	f8d7 30e4 	ldr.w	r3, [r7, #228]	; 0xe4
 800453e:	681b      	ldr	r3, [r3, #0]
 8004540:	695b      	ldr	r3, [r3, #20]
 8004542:	f423 7040 	bic.w	r0, r3, #768	; 0x300
 8004546:	f8d7 30e4 	ldr.w	r3, [r7, #228]	; 0xe4
 800454a:	6999      	ldr	r1, [r3, #24]
 800454c:	f8d7 30e4 	ldr.w	r3, [r7, #228]	; 0xe4
 8004550:	681a      	ldr	r2, [r3, #0]
 8004552:	ea40 0301 	orr.w	r3, r0, r1
 8004556:	6153      	str	r3, [r2, #20]
 8004558:	f8d7 30e4 	ldr.w	r3, [r7, #228]	; 0xe4
 800455c:	69db      	ldr	r3, [r3, #28]
 800455e:	f5b3 4f00 	cmp.w	r3, #32768	; 0x8000
 8004562:	f040 81a5 	bne.w	80048b0 <UART_SetConfig+0x3e0>
 8004566:	f8d7 30e4 	ldr.w	r3, [r7, #228]	; 0xe4
 800456a:	681a      	ldr	r2, [r3, #0]
 800456c:	4bcd      	ldr	r3, [pc, #820]	; (80048a4 <UART_SetConfig+0x3d4>)
 800456e:	429a      	cmp	r2, r3
 8004570:	d006      	beq.n	8004580 <UART_SetConfig+0xb0>
 8004572:	f8d7 30e4 	ldr.w	r3, [r7, #228]	; 0xe4
 8004576:	681a      	ldr	r2, [r3, #0]
 8004578:	4bcb      	ldr	r3, [pc, #812]	; (80048a8 <UART_SetConfig+0x3d8>)
 800457a:	429a      	cmp	r2, r3
 800457c:	f040 80cb 	bne.w	8004716 <UART_SetConfig+0x246>
 8004580:	f7fe fae6 	bl	8002b50 <HAL_RCC_GetPCLK2Freq>
 8004584:	f8c7 00e8 	str.w	r0, [r7, #232]	; 0xe8
 8004588:	f8d7 30e8 	ldr.w	r3, [r7, #232]	; 0xe8
 800458c:	461c      	mov	r4, r3
 800458e:	f04f 0500 	mov.w	r5, #0
 8004592:	4622      	mov	r2, r4
 8004594:	462b      	mov	r3, r5
 8004596:	1891      	adds	r1, r2, r2
 8004598:	f8c7 1088 	str.w	r1, [r7, #136]	; 0x88
 800459c:	415b      	adcs	r3, r3
 800459e:	f8c7 308c 	str.w	r3, [r7, #140]	; 0x8c
 80045a2:	e9d7 2322 	ldrd	r2, r3, [r7, #136]	; 0x88
 80045a6:	1912      	adds	r2, r2, r4
 80045a8:	eb45 0303 	adc.w	r3, r5, r3
 80045ac:	f04f 0000 	mov.w	r0, #0
 80045b0:	f04f 0100 	mov.w	r1, #0
 80045b4:	00d9      	lsls	r1, r3, #3
 80045b6:	ea41 7152 	orr.w	r1, r1, r2, lsr #29
 80045ba:	00d0      	lsls	r0, r2, #3
 80045bc:	4602      	mov	r2, r0
 80045be:	460b      	mov	r3, r1
 80045c0:	1911      	adds	r1, r2, r4
 80045c2:	f8c7 10d8 	str.w	r1, [r7, #216]	; 0xd8
 80045c6:	416b      	adcs	r3, r5
 80045c8:	f8c7 30dc 	str.w	r3, [r7, #220]	; 0xdc
 80045cc:	f8d7 30e4 	ldr.w	r3, [r7, #228]	; 0xe4
 80045d0:	685b      	ldr	r3, [r3, #4]
 80045d2:	461a      	mov	r2, r3
 80045d4:	f04f 0300 	mov.w	r3, #0
 80045d8:	1891      	adds	r1, r2, r2
 80045da:	f8c7 1080 	str.w	r1, [r7, #128]	; 0x80
 80045de:	415b      	adcs	r3, r3
 80045e0:	f8c7 3084 	str.w	r3, [r7, #132]	; 0x84
 80045e4:	e9d7 2320 	ldrd	r2, r3, [r7, #128]	; 0x80
 80045e8:	e9d7 0136 	ldrd	r0, r1, [r7, #216]	; 0xd8
 80045ec:	f7fb fe0a 	bl	8000204 <__aeabi_uldivmod>
 80045f0:	4602      	mov	r2, r0
 80045f2:	460b      	mov	r3, r1
 80045f4:	4bad      	ldr	r3, [pc, #692]	; (80048ac <UART_SetConfig+0x3dc>)
 80045f6:	fba3 2302 	umull	r2, r3, r3, r2
 80045fa:	095b      	lsrs	r3, r3, #5
 80045fc:	011e      	lsls	r6, r3, #4
 80045fe:	f8d7 30e8 	ldr.w	r3, [r7, #232]	; 0xe8
 8004602:	461c      	mov	r4, r3
 8004604:	f04f 0500 	mov.w	r5, #0
 8004608:	4622      	mov	r2, r4
 800460a:	462b      	mov	r3, r5
 800460c:	1891      	adds	r1, r2, r2
 800460e:	67b9      	str	r1, [r7, #120]	; 0x78
 8004610:	415b      	adcs	r3, r3
 8004612:	67fb      	str	r3, [r7, #124]	; 0x7c
 8004614:	e9d7 231e 	ldrd	r2, r3, [r7, #120]	; 0x78
 8004618:	1912      	adds	r2, r2, r4
 800461a:	eb45 0303 	adc.w	r3, r5, r3
 800461e:	f04f 0000 	mov.w	r0, #0
 8004622:	f04f 0100 	mov.w	r1, #0
 8004626:	00d9      	lsls	r1, r3, #3
 8004628:	ea41 7152 	orr.w	r1, r1, r2, lsr #29
 800462c:	00d0      	lsls	r0, r2, #3
 800462e:	4602      	mov	r2, r0
 8004630:	460b      	mov	r3, r1
 8004632:	1911      	adds	r1, r2, r4
 8004634:	f8c7 10d0 	str.w	r1, [r7, #208]	; 0xd0
 8004638:	416b      	adcs	r3, r5
 800463a:	f8c7 30d4 	str.w	r3, [r7, #212]	; 0xd4
 800463e:	f8d7 30e4 	ldr.w	r3, [r7, #228]	; 0xe4
 8004642:	685b      	ldr	r3, [r3, #4]
 8004644:	461a      	mov	r2, r3
 8004646:	f04f 0300 	mov.w	r3, #0
 800464a:	1891      	adds	r1, r2, r2
 800464c:	6739      	str	r1, [r7, #112]	; 0x70
 800464e:	415b      	adcs	r3, r3
 8004650:	677b      	str	r3, [r7, #116]	; 0x74
 8004652:	e9d7 231c 	ldrd	r2, r3, [r7, #112]	; 0x70
 8004656:	e9d7 0134 	ldrd	r0, r1, [r7, #208]	; 0xd0
 800465a:	f7fb fdd3 	bl	8000204 <__aeabi_uldivmod>
 800465e:	4602      	mov	r2, r0
 8004660:	460b      	mov	r3, r1
 8004662:	4b92      	ldr	r3, [pc, #584]	; (80048ac <UART_SetConfig+0x3dc>)
 8004664:	fba3 1302 	umull	r1, r3, r3, r2
 8004668:	095b      	lsrs	r3, r3, #5
 800466a:	2164      	movs	r1, #100	; 0x64
 800466c:	fb01 f303 	mul.w	r3, r1, r3
 8004670:	1ad3      	subs	r3, r2, r3
 8004672:	00db      	lsls	r3, r3, #3
 8004674:	3332      	adds	r3, #50	; 0x32
 8004676:	4a8d      	ldr	r2, [pc, #564]	; (80048ac <UART_SetConfig+0x3dc>)
 8004678:	fba2 2303 	umull	r2, r3, r2, r3
 800467c:	095b      	lsrs	r3, r3, #5
 800467e:	005b      	lsls	r3, r3, #1
 8004680:	f403 73f8 	and.w	r3, r3, #496	; 0x1f0
 8004684:	441e      	add	r6, r3
 8004686:	f8d7 30e8 	ldr.w	r3, [r7, #232]	; 0xe8
 800468a:	4618      	mov	r0, r3
 800468c:	f04f 0100 	mov.w	r1, #0
 8004690:	4602      	mov	r2, r0
 8004692:	460b      	mov	r3, r1
 8004694:	1894      	adds	r4, r2, r2
 8004696:	66bc      	str	r4, [r7, #104]	; 0x68
 8004698:	415b      	adcs	r3, r3
 800469a:	66fb      	str	r3, [r7, #108]	; 0x6c
 800469c:	e9d7 231a 	ldrd	r2, r3, [r7, #104]	; 0x68
 80046a0:	1812      	adds	r2, r2, r0
 80046a2:	eb41 0303 	adc.w	r3, r1, r3
 80046a6:	f04f 0400 	mov.w	r4, #0
 80046aa:	f04f 0500 	mov.w	r5, #0
 80046ae:	00dd      	lsls	r5, r3, #3
 80046b0:	ea45 7552 	orr.w	r5, r5, r2, lsr #29
 80046b4:	00d4      	lsls	r4, r2, #3
 80046b6:	4622      	mov	r2, r4
 80046b8:	462b      	mov	r3, r5
 80046ba:	1814      	adds	r4, r2, r0
 80046bc:	f8c7 40c8 	str.w	r4, [r7, #200]	; 0xc8
 80046c0:	414b      	adcs	r3, r1
 80046c2:	f8c7 30cc 	str.w	r3, [r7, #204]	; 0xcc
 80046c6:	f8d7 30e4 	ldr.w	r3, [r7, #228]	; 0xe4
 80046ca:	685b      	ldr	r3, [r3, #4]
 80046cc:	461a      	mov	r2, r3
 80046ce:	f04f 0300 	mov.w	r3, #0
 80046d2:	1891      	adds	r1, r2, r2
 80046d4:	6639      	str	r1, [r7, #96]	; 0x60
 80046d6:	415b      	adcs	r3, r3
 80046d8:	667b      	str	r3, [r7, #100]	; 0x64
 80046da:	e9d7 2318 	ldrd	r2, r3, [r7, #96]	; 0x60
 80046de:	e9d7 0132 	ldrd	r0, r1, [r7, #200]	; 0xc8
 80046e2:	f7fb fd8f 	bl	8000204 <__aeabi_uldivmod>
 80046e6:	4602      	mov	r2, r0
 80046e8:	460b      	mov	r3, r1
 80046ea:	4b70      	ldr	r3, [pc, #448]	; (80048ac <UART_SetConfig+0x3dc>)
 80046ec:	fba3 1302 	umull	r1, r3, r3, r2
 80046f0:	095b      	lsrs	r3, r3, #5
 80046f2:	2164      	movs	r1, #100	; 0x64
 80046f4:	fb01 f303 	mul.w	r3, r1, r3
 80046f8:	1ad3      	subs	r3, r2, r3
 80046fa:	00db      	lsls	r3, r3, #3
 80046fc:	3332      	adds	r3, #50	; 0x32
 80046fe:	4a6b      	ldr	r2, [pc, #428]	; (80048ac <UART_SetConfig+0x3dc>)
 8004700:	fba2 2303 	umull	r2, r3, r2, r3
 8004704:	095b      	lsrs	r3, r3, #5
 8004706:	f003 0207 	and.w	r2, r3, #7
 800470a:	f8d7 30e4 	ldr.w	r3, [r7, #228]	; 0xe4
 800470e:	681b      	ldr	r3, [r3, #0]
 8004710:	4432      	add	r2, r6
 8004712:	609a      	str	r2, [r3, #8]
 8004714:	e26d      	b.n	8004bf2 <UART_SetConfig+0x722>
 8004716:	f7fe fa07 	bl	8002b28 <HAL_RCC_GetPCLK1Freq>
 800471a:	f8c7 00e8 	str.w	r0, [r7, #232]	; 0xe8
 800471e:	f8d7 30e8 	ldr.w	r3, [r7, #232]	; 0xe8
 8004722:	461c      	mov	r4, r3
 8004724:	f04f 0500 	mov.w	r5, #0
 8004728:	4622      	mov	r2, r4
 800472a:	462b      	mov	r3, r5
 800472c:	1891      	adds	r1, r2, r2
 800472e:	65b9      	str	r1, [r7, #88]	; 0x58
 8004730:	415b      	adcs	r3, r3
 8004732:	65fb      	str	r3, [r7, #92]	; 0x5c
 8004734:	e9d7 2316 	ldrd	r2, r3, [r7, #88]	; 0x58
 8004738:	1912      	adds	r2, r2, r4
 800473a:	eb45 0303 	adc.w	r3, r5, r3
 800473e:	f04f 0000 	mov.w	r0, #0
 8004742:	f04f 0100 	mov.w	r1, #0
 8004746:	00d9      	lsls	r1, r3, #3
 8004748:	ea41 7152 	orr.w	r1, r1, r2, lsr #29
 800474c:	00d0      	lsls	r0, r2, #3
 800474e:	4602      	mov	r2, r0
 8004750:	460b      	mov	r3, r1
 8004752:	1911      	adds	r1, r2, r4
 8004754:	f8c7 10c0 	str.w	r1, [r7, #192]	; 0xc0
 8004758:	416b      	adcs	r3, r5
 800475a:	f8c7 30c4 	str.w	r3, [r7, #196]	; 0xc4
 800475e:	f8d7 30e4 	ldr.w	r3, [r7, #228]	; 0xe4
 8004762:	685b      	ldr	r3, [r3, #4]
 8004764:	461a      	mov	r2, r3
 8004766:	f04f 0300 	mov.w	r3, #0
 800476a:	1891      	adds	r1, r2, r2
 800476c:	6539      	str	r1, [r7, #80]	; 0x50
 800476e:	415b      	adcs	r3, r3
 8004770:	657b      	str	r3, [r7, #84]	; 0x54
 8004772:	e9d7 2314 	ldrd	r2, r3, [r7, #80]	; 0x50
 8004776:	e9d7 0130 	ldrd	r0, r1, [r7, #192]	; 0xc0
 800477a:	f7fb fd43 	bl	8000204 <__aeabi_uldivmod>
 800477e:	4602      	mov	r2, r0
 8004780:	460b      	mov	r3, r1
 8004782:	4b4a      	ldr	r3, [pc, #296]	; (80048ac <UART_SetConfig+0x3dc>)
 8004784:	fba3 2302 	umull	r2, r3, r3, r2
 8004788:	095b      	lsrs	r3, r3, #5
 800478a:	011e      	lsls	r6, r3, #4
 800478c:	f8d7 30e8 	ldr.w	r3, [r7, #232]	; 0xe8
 8004790:	461c      	mov	r4, r3
 8004792:	f04f 0500 	mov.w	r5, #0
 8004796:	4622      	mov	r2, r4
 8004798:	462b      	mov	r3, r5
 800479a:	1891      	adds	r1, r2, r2
 800479c:	64b9      	str	r1, [r7, #72]	; 0x48
 800479e:	415b      	adcs	r3, r3
 80047a0:	64fb      	str	r3, [r7, #76]	; 0x4c
 80047a2:	e9d7 2312 	ldrd	r2, r3, [r7, #72]	; 0x48
 80047a6:	1912      	adds	r2, r2, r4
 80047a8:	eb45 0303 	adc.w	r3, r5, r3
 80047ac:	f04f 0000 	mov.w	r0, #0
 80047b0:	f04f 0100 	mov.w	r1, #0
 80047b4:	00d9      	lsls	r1, r3, #3
 80047b6:	ea41 7152 	orr.w	r1, r1, r2, lsr #29
 80047ba:	00d0      	lsls	r0, r2, #3
 80047bc:	4602      	mov	r2, r0
 80047be:	460b      	mov	r3, r1
 80047c0:	1911      	adds	r1, r2, r4
 80047c2:	f8c7 10b8 	str.w	r1, [r7, #184]	; 0xb8
 80047c6:	416b      	adcs	r3, r5
 80047c8:	f8c7 30bc 	str.w	r3, [r7, #188]	; 0xbc
 80047cc:	f8d7 30e4 	ldr.w	r3, [r7, #228]	; 0xe4
 80047d0:	685b      	ldr	r3, [r3, #4]
 80047d2:	461a      	mov	r2, r3
 80047d4:	f04f 0300 	mov.w	r3, #0
 80047d8:	1891      	adds	r1, r2, r2
 80047da:	6439      	str	r1, [r7, #64]	; 0x40
 80047dc:	415b      	adcs	r3, r3
 80047de:	647b      	str	r3, [r7, #68]	; 0x44
 80047e0:	e9d7 2310 	ldrd	r2, r3, [r7, #64]	; 0x40
 80047e4:	e9d7 012e 	ldrd	r0, r1, [r7, #184]	; 0xb8
 80047e8:	f7fb fd0c 	bl	8000204 <__aeabi_uldivmod>
 80047ec:	4602      	mov	r2, r0
 80047ee:	460b      	mov	r3, r1
 80047f0:	4b2e      	ldr	r3, [pc, #184]	; (80048ac <UART_SetConfig+0x3dc>)
 80047f2:	fba3 1302 	umull	r1, r3, r3, r2
 80047f6:	095b      	lsrs	r3, r3, #5
 80047f8:	2164      	movs	r1, #100	; 0x64
 80047fa:	fb01 f303 	mul.w	r3, r1, r3
 80047fe:	1ad3      	subs	r3, r2, r3
 8004800:	00db      	lsls	r3, r3, #3
 8004802:	3332      	adds	r3, #50	; 0x32
 8004804:	4a29      	ldr	r2, [pc, #164]	; (80048ac <UART_SetConfig+0x3dc>)
 8004806:	fba2 2303 	umull	r2, r3, r2, r3
 800480a:	095b      	lsrs	r3, r3, #5
 800480c:	005b      	lsls	r3, r3, #1
 800480e:	f403 73f8 	and.w	r3, r3, #496	; 0x1f0
 8004812:	441e      	add	r6, r3
 8004814:	f8d7 30e8 	ldr.w	r3, [r7, #232]	; 0xe8
 8004818:	4618      	mov	r0, r3
 800481a:	f04f 0100 	mov.w	r1, #0
 800481e:	4602      	mov	r2, r0
 8004820:	460b      	mov	r3, r1
 8004822:	1894      	adds	r4, r2, r2
 8004824:	63bc      	str	r4, [r7, #56]	; 0x38
 8004826:	415b      	adcs	r3, r3
 8004828:	63fb      	str	r3, [r7, #60]	; 0x3c
 800482a:	e9d7 230e 	ldrd	r2, r3, [r7, #56]	; 0x38
 800482e:	1812      	adds	r2, r2, r0
 8004830:	eb41 0303 	adc.w	r3, r1, r3
 8004834:	f04f 0400 	mov.w	r4, #0
 8004838:	f04f 0500 	mov.w	r5, #0
 800483c:	00dd      	lsls	r5, r3, #3
 800483e:	ea45 7552 	orr.w	r5, r5, r2, lsr #29
 8004842:	00d4      	lsls	r4, r2, #3
 8004844:	4622      	mov	r2, r4
 8004846:	462b      	mov	r3, r5
 8004848:	1814      	adds	r4, r2, r0
 800484a:	f8c7 40b0 	str.w	r4, [r7, #176]	; 0xb0
 800484e:	414b      	adcs	r3, r1
 8004850:	f8c7 30b4 	str.w	r3, [r7, #180]	; 0xb4
 8004854:	f8d7 30e4 	ldr.w	r3, [r7, #228]	; 0xe4
 8004858:	685b      	ldr	r3, [r3, #4]
 800485a:	461a      	mov	r2, r3
 800485c:	f04f 0300 	mov.w	r3, #0
 8004860:	1891      	adds	r1, r2, r2
 8004862:	6339      	str	r1, [r7, #48]	; 0x30
 8004864:	415b      	adcs	r3, r3
 8004866:	637b      	str	r3, [r7, #52]	; 0x34
 8004868:	e9d7 230c 	ldrd	r2, r3, [r7, #48]	; 0x30
 800486c:	e9d7 012c 	ldrd	r0, r1, [r7, #176]	; 0xb0
 8004870:	f7fb fcc8 	bl	8000204 <__aeabi_uldivmod>
 8004874:	4602      	mov	r2, r0
 8004876:	460b      	mov	r3, r1
 8004878:	4b0c      	ldr	r3, [pc, #48]	; (80048ac <UART_SetConfig+0x3dc>)
 800487a:	fba3 1302 	umull	r1, r3, r3, r2
 800487e:	095b      	lsrs	r3, r3, #5
 8004880:	2164      	movs	r1, #100	; 0x64
 8004882:	fb01 f303 	mul.w	r3, r1, r3
 8004886:	1ad3      	subs	r3, r2, r3
 8004888:	00db      	lsls	r3, r3, #3
 800488a:	3332      	adds	r3, #50	; 0x32
 800488c:	4a07      	ldr	r2, [pc, #28]	; (80048ac <UART_SetConfig+0x3dc>)
 800488e:	fba2 2303 	umull	r2, r3, r2, r3
 8004892:	095b      	lsrs	r3, r3, #5
 8004894:	f003 0207 	and.w	r2, r3, #7
 8004898:	f8d7 30e4 	ldr.w	r3, [r7, #228]	; 0xe4
 800489c:	681b      	ldr	r3, [r3, #0]
 800489e:	4432      	add	r2, r6
 80048a0:	609a      	str	r2, [r3, #8]
 80048a2:	e1a6      	b.n	8004bf2 <UART_SetConfig+0x722>
 80048a4:	40011000 	.word	0x40011000
 80048a8:	40011400 	.word	0x40011400
 80048ac:	51eb851f 	.word	0x51eb851f
 80048b0:	f8d7 30e4 	ldr.w	r3, [r7, #228]	; 0xe4
 80048b4:	681a      	ldr	r2, [r3, #0]
 80048b6:	4bd1      	ldr	r3, [pc, #836]	; (8004bfc <UART_SetConfig+0x72c>)
 80048b8:	429a      	cmp	r2, r3
 80048ba:	d006      	beq.n	80048ca <UART_SetConfig+0x3fa>
 80048bc:	f8d7 30e4 	ldr.w	r3, [r7, #228]	; 0xe4
 80048c0:	681a      	ldr	r2, [r3, #0]
 80048c2:	4bcf      	ldr	r3, [pc, #828]	; (8004c00 <UART_SetConfig+0x730>)
 80048c4:	429a      	cmp	r2, r3
 80048c6:	f040 80ca 	bne.w	8004a5e <UART_SetConfig+0x58e>
 80048ca:	f7fe f941 	bl	8002b50 <HAL_RCC_GetPCLK2Freq>
 80048ce:	f8c7 00e8 	str.w	r0, [r7, #232]	; 0xe8
 80048d2:	f8d7 30e8 	ldr.w	r3, [r7, #232]	; 0xe8
 80048d6:	461c      	mov	r4, r3
 80048d8:	f04f 0500 	mov.w	r5, #0
 80048dc:	4622      	mov	r2, r4
 80048de:	462b      	mov	r3, r5
 80048e0:	1891      	adds	r1, r2, r2
 80048e2:	62b9      	str	r1, [r7, #40]	; 0x28
 80048e4:	415b      	adcs	r3, r3
 80048e6:	62fb      	str	r3, [r7, #44]	; 0x2c
 80048e8:	e9d7 230a 	ldrd	r2, r3, [r7, #40]	; 0x28
 80048ec:	1912      	adds	r2, r2, r4
 80048ee:	eb45 0303 	adc.w	r3, r5, r3
 80048f2:	f04f 0000 	mov.w	r0, #0
 80048f6:	f04f 0100 	mov.w	r1, #0
 80048fa:	00d9      	lsls	r1, r3, #3
 80048fc:	ea41 7152 	orr.w	r1, r1, r2, lsr #29
 8004900:	00d0      	lsls	r0, r2, #3
 8004902:	4602      	mov	r2, r0
 8004904:	460b      	mov	r3, r1
 8004906:	eb12 0a04 	adds.w	sl, r2, r4
 800490a:	eb43 0b05 	adc.w	fp, r3, r5
 800490e:	f8d7 30e4 	ldr.w	r3, [r7, #228]	; 0xe4
 8004912:	685b      	ldr	r3, [r3, #4]
 8004914:	4618      	mov	r0, r3
 8004916:	f04f 0100 	mov.w	r1, #0
 800491a:	f04f 0200 	mov.w	r2, #0
 800491e:	f04f 0300 	mov.w	r3, #0
 8004922:	008b      	lsls	r3, r1, #2
 8004924:	ea43 7390 	orr.w	r3, r3, r0, lsr #30
 8004928:	0082      	lsls	r2, r0, #2
 800492a:	4650      	mov	r0, sl
 800492c:	4659      	mov	r1, fp
 800492e:	f7fb fc69 	bl	8000204 <__aeabi_uldivmod>
 8004932:	4602      	mov	r2, r0
 8004934:	460b      	mov	r3, r1
 8004936:	4bb3      	ldr	r3, [pc, #716]	; (8004c04 <UART_SetConfig+0x734>)
 8004938:	fba3 2302 	umull	r2, r3, r3, r2
 800493c:	095b      	lsrs	r3, r3, #5
 800493e:	011e      	lsls	r6, r3, #4
 8004940:	f8d7 30e8 	ldr.w	r3, [r7, #232]	; 0xe8
 8004944:	4618      	mov	r0, r3
 8004946:	f04f 0100 	mov.w	r1, #0
 800494a:	4602      	mov	r2, r0
 800494c:	460b      	mov	r3, r1
 800494e:	1894      	adds	r4, r2, r2
 8004950:	623c      	str	r4, [r7, #32]
 8004952:	415b      	adcs	r3, r3
 8004954:	627b      	str	r3, [r7, #36]	; 0x24
 8004956:	e9d7 2308 	ldrd	r2, r3, [r7, #32]
 800495a:	1812      	adds	r2, r2, r0
 800495c:	eb41 0303 	adc.w	r3, r1, r3
 8004960:	f04f 0400 	mov.w	r4, #0
 8004964:	f04f 0500 	mov.w	r5, #0
 8004968:	00dd      	lsls	r5, r3, #3
 800496a:	ea45 7552 	orr.w	r5, r5, r2, lsr #29
 800496e:	00d4      	lsls	r4, r2, #3
 8004970:	4622      	mov	r2, r4
 8004972:	462b      	mov	r3, r5
 8004974:	1814      	adds	r4, r2, r0
 8004976:	f8c7 40a8 	str.w	r4, [r7, #168]	; 0xa8
 800497a:	414b      	adcs	r3, r1
 800497c:	f8c7 30ac 	str.w	r3, [r7, #172]	; 0xac
 8004980:	f8d7 30e4 	ldr.w	r3, [r7, #228]	; 0xe4
 8004984:	685b      	ldr	r3, [r3, #4]
 8004986:	4618      	mov	r0, r3
 8004988:	f04f 0100 	mov.w	r1, #0
 800498c:	f04f 0200 	mov.w	r2, #0
 8004990:	f04f 0300 	mov.w	r3, #0
 8004994:	008b      	lsls	r3, r1, #2
 8004996:	ea43 7390 	orr.w	r3, r3, r0, lsr #30
 800499a:	0082      	lsls	r2, r0, #2
 800499c:	e9d7 012a 	ldrd	r0, r1, [r7, #168]	; 0xa8
 80049a0:	f7fb fc30 	bl	8000204 <__aeabi_uldivmod>
 80049a4:	4602      	mov	r2, r0
 80049a6:	460b      	mov	r3, r1
 80049a8:	4b96      	ldr	r3, [pc, #600]	; (8004c04 <UART_SetConfig+0x734>)
 80049aa:	fba3 1302 	umull	r1, r3, r3, r2
 80049ae:	095b      	lsrs	r3, r3, #5
 80049b0:	2164      	movs	r1, #100	; 0x64
 80049b2:	fb01 f303 	mul.w	r3, r1, r3
 80049b6:	1ad3      	subs	r3, r2, r3
 80049b8:	011b      	lsls	r3, r3, #4
 80049ba:	3332      	adds	r3, #50	; 0x32
 80049bc:	4a91      	ldr	r2, [pc, #580]	; (8004c04 <UART_SetConfig+0x734>)
 80049be:	fba2 2303 	umull	r2, r3, r2, r3
 80049c2:	095b      	lsrs	r3, r3, #5
 80049c4:	f003 03f0 	and.w	r3, r3, #240	; 0xf0
 80049c8:	441e      	add	r6, r3
 80049ca:	f8d7 30e8 	ldr.w	r3, [r7, #232]	; 0xe8
 80049ce:	4618      	mov	r0, r3
 80049d0:	f04f 0100 	mov.w	r1, #0
 80049d4:	4602      	mov	r2, r0
 80049d6:	460b      	mov	r3, r1
 80049d8:	1894      	adds	r4, r2, r2
 80049da:	61bc      	str	r4, [r7, #24]
 80049dc:	415b      	adcs	r3, r3
 80049de:	61fb      	str	r3, [r7, #28]
 80049e0:	e9d7 2306 	ldrd	r2, r3, [r7, #24]
 80049e4:	1812      	adds	r2, r2, r0
 80049e6:	eb41 0303 	adc.w	r3, r1, r3
 80049ea:	f04f 0400 	mov.w	r4, #0
 80049ee:	f04f 0500 	mov.w	r5, #0
 80049f2:	00dd      	lsls	r5, r3, #3
 80049f4:	ea45 7552 	orr.w	r5, r5, r2, lsr #29
 80049f8:	00d4      	lsls	r4, r2, #3
 80049fa:	4622      	mov	r2, r4
 80049fc:	462b      	mov	r3, r5
 80049fe:	1814      	adds	r4, r2, r0
 8004a00:	f8c7 40a0 	str.w	r4, [r7, #160]	; 0xa0
 8004a04:	414b      	adcs	r3, r1
 8004a06:	f8c7 30a4 	str.w	r3, [r7, #164]	; 0xa4
 8004a0a:	f8d7 30e4 	ldr.w	r3, [r7, #228]	; 0xe4
 8004a0e:	685b      	ldr	r3, [r3, #4]
 8004a10:	4618      	mov	r0, r3
 8004a12:	f04f 0100 	mov.w	r1, #0
 8004a16:	f04f 0200 	mov.w	r2, #0
 8004a1a:	f04f 0300 	mov.w	r3, #0
 8004a1e:	008b      	lsls	r3, r1, #2
 8004a20:	ea43 7390 	orr.w	r3, r3, r0, lsr #30
 8004a24:	0082      	lsls	r2, r0, #2
 8004a26:	e9d7 0128 	ldrd	r0, r1, [r7, #160]	; 0xa0
 8004a2a:	f7fb fbeb 	bl	8000204 <__aeabi_uldivmod>
 8004a2e:	4602      	mov	r2, r0
 8004a30:	460b      	mov	r3, r1
 8004a32:	4b74      	ldr	r3, [pc, #464]	; (8004c04 <UART_SetConfig+0x734>)
 8004a34:	fba3 1302 	umull	r1, r3, r3, r2
 8004a38:	095b      	lsrs	r3, r3, #5
 8004a3a:	2164      	movs	r1, #100	; 0x64
 8004a3c:	fb01 f303 	mul.w	r3, r1, r3
 8004a40:	1ad3      	subs	r3, r2, r3
 8004a42:	011b      	lsls	r3, r3, #4
 8004a44:	3332      	adds	r3, #50	; 0x32
 8004a46:	4a6f      	ldr	r2, [pc, #444]	; (8004c04 <UART_SetConfig+0x734>)
 8004a48:	fba2 2303 	umull	r2, r3, r2, r3
 8004a4c:	095b      	lsrs	r3, r3, #5
 8004a4e:	f003 020f 	and.w	r2, r3, #15
 8004a52:	f8d7 30e4 	ldr.w	r3, [r7, #228]	; 0xe4
 8004a56:	681b      	ldr	r3, [r3, #0]
 8004a58:	4432      	add	r2, r6
 8004a5a:	609a      	str	r2, [r3, #8]
 8004a5c:	e0c9      	b.n	8004bf2 <UART_SetConfig+0x722>
 8004a5e:	f7fe f863 	bl	8002b28 <HAL_RCC_GetPCLK1Freq>
 8004a62:	f8c7 00e8 	str.w	r0, [r7, #232]	; 0xe8
 8004a66:	f8d7 30e8 	ldr.w	r3, [r7, #232]	; 0xe8
 8004a6a:	461c      	mov	r4, r3
 8004a6c:	f04f 0500 	mov.w	r5, #0
 8004a70:	4622      	mov	r2, r4
 8004a72:	462b      	mov	r3, r5
 8004a74:	1891      	adds	r1, r2, r2
 8004a76:	6139      	str	r1, [r7, #16]
 8004a78:	415b      	adcs	r3, r3
 8004a7a:	617b      	str	r3, [r7, #20]
 8004a7c:	e9d7 2304 	ldrd	r2, r3, [r7, #16]
 8004a80:	1912      	adds	r2, r2, r4
 8004a82:	eb45 0303 	adc.w	r3, r5, r3
 8004a86:	f04f 0000 	mov.w	r0, #0
 8004a8a:	f04f 0100 	mov.w	r1, #0
 8004a8e:	00d9      	lsls	r1, r3, #3
 8004a90:	ea41 7152 	orr.w	r1, r1, r2, lsr #29
 8004a94:	00d0      	lsls	r0, r2, #3
 8004a96:	4602      	mov	r2, r0
 8004a98:	460b      	mov	r3, r1
 8004a9a:	eb12 0804 	adds.w	r8, r2, r4
 8004a9e:	eb43 0905 	adc.w	r9, r3, r5
 8004aa2:	f8d7 30e4 	ldr.w	r3, [r7, #228]	; 0xe4
 8004aa6:	685b      	ldr	r3, [r3, #4]
 8004aa8:	4618      	mov	r0, r3
 8004aaa:	f04f 0100 	mov.w	r1, #0
 8004aae:	f04f 0200 	mov.w	r2, #0
 8004ab2:	f04f 0300 	mov.w	r3, #0
 8004ab6:	008b      	lsls	r3, r1, #2
 8004ab8:	ea43 7390 	orr.w	r3, r3, r0, lsr #30
 8004abc:	0082      	lsls	r2, r0, #2
 8004abe:	4640      	mov	r0, r8
 8004ac0:	4649      	mov	r1, r9
 8004ac2:	f7fb fb9f 	bl	8000204 <__aeabi_uldivmod>
 8004ac6:	4602      	mov	r2, r0
 8004ac8:	460b      	mov	r3, r1
 8004aca:	4b4e      	ldr	r3, [pc, #312]	; (8004c04 <UART_SetConfig+0x734>)
 8004acc:	fba3 2302 	umull	r2, r3, r3, r2
 8004ad0:	095b      	lsrs	r3, r3, #5
 8004ad2:	011e      	lsls	r6, r3, #4
 8004ad4:	f8d7 30e8 	ldr.w	r3, [r7, #232]	; 0xe8
 8004ad8:	4618      	mov	r0, r3
 8004ada:	f04f 0100 	mov.w	r1, #0
 8004ade:	4602      	mov	r2, r0
 8004ae0:	460b      	mov	r3, r1
 8004ae2:	1894      	adds	r4, r2, r2
 8004ae4:	60bc      	str	r4, [r7, #8]
 8004ae6:	415b      	adcs	r3, r3
 8004ae8:	60fb      	str	r3, [r7, #12]
 8004aea:	e9d7 2302 	ldrd	r2, r3, [r7, #8]
 8004aee:	1812      	adds	r2, r2, r0
 8004af0:	eb41 0303 	adc.w	r3, r1, r3
 8004af4:	f04f 0400 	mov.w	r4, #0
 8004af8:	f04f 0500 	mov.w	r5, #0
 8004afc:	00dd      	lsls	r5, r3, #3
 8004afe:	ea45 7552 	orr.w	r5, r5, r2, lsr #29
 8004b02:	00d4      	lsls	r4, r2, #3
 8004b04:	4622      	mov	r2, r4
 8004b06:	462b      	mov	r3, r5
 8004b08:	1814      	adds	r4, r2, r0
 8004b0a:	f8c7 4098 	str.w	r4, [r7, #152]	; 0x98
 8004b0e:	414b      	adcs	r3, r1
 8004b10:	f8c7 309c 	str.w	r3, [r7, #156]	; 0x9c
 8004b14:	f8d7 30e4 	ldr.w	r3, [r7, #228]	; 0xe4
 8004b18:	685b      	ldr	r3, [r3, #4]
 8004b1a:	4618      	mov	r0, r3
 8004b1c:	f04f 0100 	mov.w	r1, #0
 8004b20:	f04f 0200 	mov.w	r2, #0
 8004b24:	f04f 0300 	mov.w	r3, #0
 8004b28:	008b      	lsls	r3, r1, #2
 8004b2a:	ea43 7390 	orr.w	r3, r3, r0, lsr #30
 8004b2e:	0082      	lsls	r2, r0, #2
 8004b30:	e9d7 0126 	ldrd	r0, r1, [r7, #152]	; 0x98
 8004b34:	f7fb fb66 	bl	8000204 <__aeabi_uldivmod>
 8004b38:	4602      	mov	r2, r0
 8004b3a:	460b      	mov	r3, r1
 8004b3c:	4b31      	ldr	r3, [pc, #196]	; (8004c04 <UART_SetConfig+0x734>)
 8004b3e:	fba3 1302 	umull	r1, r3, r3, r2
 8004b42:	095b      	lsrs	r3, r3, #5
 8004b44:	2164      	movs	r1, #100	; 0x64
 8004b46:	fb01 f303 	mul.w	r3, r1, r3
 8004b4a:	1ad3      	subs	r3, r2, r3
 8004b4c:	011b      	lsls	r3, r3, #4
 8004b4e:	3332      	adds	r3, #50	; 0x32
 8004b50:	4a2c      	ldr	r2, [pc, #176]	; (8004c04 <UART_SetConfig+0x734>)
 8004b52:	fba2 2303 	umull	r2, r3, r2, r3
 8004b56:	095b      	lsrs	r3, r3, #5
 8004b58:	f003 03f0 	and.w	r3, r3, #240	; 0xf0
 8004b5c:	441e      	add	r6, r3
 8004b5e:	f8d7 30e8 	ldr.w	r3, [r7, #232]	; 0xe8
 8004b62:	4618      	mov	r0, r3
 8004b64:	f04f 0100 	mov.w	r1, #0
 8004b68:	4602      	mov	r2, r0
 8004b6a:	460b      	mov	r3, r1
 8004b6c:	1894      	adds	r4, r2, r2
 8004b6e:	603c      	str	r4, [r7, #0]
 8004b70:	415b      	adcs	r3, r3
 8004b72:	607b      	str	r3, [r7, #4]
 8004b74:	e9d7 2300 	ldrd	r2, r3, [r7]
 8004b78:	1812      	adds	r2, r2, r0
 8004b7a:	eb41 0303 	adc.w	r3, r1, r3
 8004b7e:	f04f 0400 	mov.w	r4, #0
 8004b82:	f04f 0500 	mov.w	r5, #0
 8004b86:	00dd      	lsls	r5, r3, #3
 8004b88:	ea45 7552 	orr.w	r5, r5, r2, lsr #29
 8004b8c:	00d4      	lsls	r4, r2, #3
 8004b8e:	4622      	mov	r2, r4
 8004b90:	462b      	mov	r3, r5
 8004b92:	1814      	adds	r4, r2, r0
 8004b94:	f8c7 4090 	str.w	r4, [r7, #144]	; 0x90
 8004b98:	414b      	adcs	r3, r1
 8004b9a:	f8c7 3094 	str.w	r3, [r7, #148]	; 0x94
 8004b9e:	f8d7 30e4 	ldr.w	r3, [r7, #228]	; 0xe4
 8004ba2:	685b      	ldr	r3, [r3, #4]
 8004ba4:	4618      	mov	r0, r3
 8004ba6:	f04f 0100 	mov.w	r1, #0
 8004baa:	f04f 0200 	mov.w	r2, #0
 8004bae:	f04f 0300 	mov.w	r3, #0
 8004bb2:	008b      	lsls	r3, r1, #2
 8004bb4:	ea43 7390 	orr.w	r3, r3, r0, lsr #30
 8004bb8:	0082      	lsls	r2, r0, #2
 8004bba:	e9d7 0124 	ldrd	r0, r1, [r7, #144]	; 0x90
 8004bbe:	f7fb fb21 	bl	8000204 <__aeabi_uldivmod>
 8004bc2:	4602      	mov	r2, r0
 8004bc4:	460b      	mov	r3, r1
 8004bc6:	4b0f      	ldr	r3, [pc, #60]	; (8004c04 <UART_SetConfig+0x734>)
 8004bc8:	fba3 1302 	umull	r1, r3, r3, r2
 8004bcc:	095b      	lsrs	r3, r3, #5
 8004bce:	2164      	movs	r1, #100	; 0x64
 8004bd0:	fb01 f303 	mul.w	r3, r1, r3
 8004bd4:	1ad3      	subs	r3, r2, r3
 8004bd6:	011b      	lsls	r3, r3, #4
 8004bd8:	3332      	adds	r3, #50	; 0x32
 8004bda:	4a0a      	ldr	r2, [pc, #40]	; (8004c04 <UART_SetConfig+0x734>)
 8004bdc:	fba2 2303 	umull	r2, r3, r2, r3
 8004be0:	095b      	lsrs	r3, r3, #5
 8004be2:	f003 020f 	and.w	r2, r3, #15
 8004be6:	f8d7 30e4 	ldr.w	r3, [r7, #228]	; 0xe4
 8004bea:	681b      	ldr	r3, [r3, #0]
 8004bec:	4432      	add	r2, r6
 8004bee:	609a      	str	r2, [r3, #8]
 8004bf0:	e7ff      	b.n	8004bf2 <UART_SetConfig+0x722>
 8004bf2:	bf00      	nop
 8004bf4:	37f4      	adds	r7, #244	; 0xf4
 8004bf6:	46bd      	mov	sp, r7
 8004bf8:	e8bd 8ff0 	ldmia.w	sp!, {r4, r5, r6, r7, r8, r9, sl, fp, pc}
 8004bfc:	40011000 	.word	0x40011000
 8004c00:	40011400 	.word	0x40011400
 8004c04:	51eb851f 	.word	0x51eb851f

08004c08 <horn_step>:
 8004c08:	b580      	push	{r7, lr}
 8004c0a:	af00      	add	r7, sp, #0
 8004c0c:	2201      	movs	r2, #1
 8004c0e:	f44f 7100 	mov.w	r1, #512	; 0x200
 8004c12:	4802      	ldr	r0, [pc, #8]	; (8004c1c <horn_step+0x14>)
 8004c14:	f7fd fdca 	bl	80027ac <HAL_GPIO_WritePin>
 8004c18:	bf00      	nop
 8004c1a:	bd80      	pop	{r7, pc}
 8004c1c:	40020800 	.word	0x40020800

08004c20 <hydrogreen_init>:
 8004c20:	b580      	push	{r7, lr}
 8004c22:	af00      	add	r7, sp, #0
 8004c24:	f000 fff0 	bl	8005c08 <watchdog_init>
 8004c28:	f000 feec 	bl	8005a04 <timers_init>
 8004c2c:	f000 fc2a 	bl	8005484 <rs485_init_SW>
 8004c30:	f000 f9d2 	bl	8004fd8 <rs485_init_EF>
 8004c34:	bf00      	nop
 8004c36:	bd80      	pop	{r7, pc}

08004c38 <hydrogreen_step1kHz>:
 8004c38:	b580      	push	{r7, lr}
 8004c3a:	af00      	add	r7, sp, #0
 8004c3c:	f7ff ffe4 	bl	8004c08 <horn_step>
 8004c40:	f001 f814 	bl	8005c6c <watchdog_step>
 8004c44:	bf00      	nop
 8004c46:	bd80      	pop	{r7, pc}

08004c48 <hydrogreen_step10kHz>:
 8004c48:	b580      	push	{r7, lr}
 8004c4a:	af00      	add	r7, sp, #0
 8004c4c:	f000 fc2a 	bl	80054a4 <rs485_step_SW>
 8004c50:	f000 f9d2 	bl	8004ff8 <rs485_step_EF>
 8004c54:	bf00      	nop
 8004c56:	bd80      	pop	{r7, pc}

08004c58 <hydrogreen_main>:
 8004c58:	b580      	push	{r7, lr}
 8004c5a:	af00      	add	r7, sp, #0
 8004c5c:	f7ff ffe0 	bl	8004c20 <hydrogreen_init>
 8004c60:	4b0c      	ldr	r3, [pc, #48]	; (8004c94 <hydrogreen_main+0x3c>)
 8004c62:	781b      	ldrb	r3, [r3, #0]
 8004c64:	b2db      	uxtb	r3, r3
 8004c66:	2b00      	cmp	r3, #0
 8004c68:	d008      	beq.n	8004c7c <hydrogreen_main+0x24>
 8004c6a:	f000 ff2f 	bl	8005acc <timers_beforeStep1kHz>
 8004c6e:	f7ff ffe3 	bl	8004c38 <hydrogreen_step1kHz>
 8004c72:	f000 ff37 	bl	8005ae4 <timers_afterStep1kHz>
 8004c76:	4b07      	ldr	r3, [pc, #28]	; (8004c94 <hydrogreen_main+0x3c>)
 8004c78:	2200      	movs	r2, #0
 8004c7a:	701a      	strb	r2, [r3, #0]
 8004c7c:	4b06      	ldr	r3, [pc, #24]	; (8004c98 <hydrogreen_main+0x40>)
 8004c7e:	781b      	ldrb	r3, [r3, #0]
 8004c80:	b2db      	uxtb	r3, r3
 8004c82:	2b00      	cmp	r3, #0
 8004c84:	d0ec      	beq.n	8004c60 <hydrogreen_main+0x8>
 8004c86:	f7ff ffdf 	bl	8004c48 <hydrogreen_step10kHz>
 8004c8a:	4b03      	ldr	r3, [pc, #12]	; (8004c98 <hydrogreen_main+0x40>)
 8004c8c:	2200      	movs	r2, #0
 8004c8e:	701a      	strb	r2, [r3, #0]
 8004c90:	e7e6      	b.n	8004c60 <hydrogreen_main+0x8>
 8004c92:	bf00      	nop
 8004c94:	20000470 	.word	0x20000470
 8004c98:	2000046c 	.word	0x2000046c

08004c9c <hydrogreen_hardFault>:
 8004c9c:	b480      	push	{r7}
 8004c9e:	af00      	add	r7, sp, #0
 8004ca0:	bf00      	nop
 8004ca2:	46bd      	mov	sp, r7
 8004ca4:	f85d 7b04 	ldr.w	r7, [sp], #4
 8004ca8:	4770      	bx	lr
	...

08004cac <HAL_GPIO_EXTI_Callback>:
 8004cac:	b480      	push	{r7}
 8004cae:	b083      	sub	sp, #12
 8004cb0:	af00      	add	r7, sp, #0
 8004cb2:	4603      	mov	r3, r0
 8004cb4:	80fb      	strh	r3, [r7, #6]
 8004cb6:	88fb      	ldrh	r3, [r7, #6]
 8004cb8:	2b08      	cmp	r3, #8
 8004cba:	d105      	bne.n	8004cc8 <HAL_GPIO_EXTI_Callback+0x1c>
 8004cbc:	4b0a      	ldr	r3, [pc, #40]	; (8004ce8 <HAL_GPIO_EXTI_Callback+0x3c>)
 8004cbe:	781b      	ldrb	r3, [r3, #0]
 8004cc0:	3301      	adds	r3, #1
 8004cc2:	b2da      	uxtb	r2, r3
 8004cc4:	4b08      	ldr	r3, [pc, #32]	; (8004ce8 <HAL_GPIO_EXTI_Callback+0x3c>)
 8004cc6:	701a      	strb	r2, [r3, #0]
 8004cc8:	88fb      	ldrh	r3, [r7, #6]
 8004cca:	2b01      	cmp	r3, #1
 8004ccc:	d106      	bne.n	8004cdc <HAL_GPIO_EXTI_Callback+0x30>
 8004cce:	4b07      	ldr	r3, [pc, #28]	; (8004cec <HAL_GPIO_EXTI_Callback+0x40>)
 8004cd0:	2201      	movs	r2, #1
 8004cd2:	f883 2025 	strb.w	r2, [r3, #37]	; 0x25
 8004cd6:	4b06      	ldr	r3, [pc, #24]	; (8004cf0 <HAL_GPIO_EXTI_Callback+0x44>)
 8004cd8:	2201      	movs	r2, #1
 8004cda:	709a      	strb	r2, [r3, #2]
 8004cdc:	bf00      	nop
 8004cde:	370c      	adds	r7, #12
 8004ce0:	46bd      	mov	sp, r7
 8004ce2:	f85d 7b04 	ldr.w	r7, [sp], #4
 8004ce6:	4770      	bx	lr
 8004ce8:	2000002e 	.word	0x2000002e
 8004cec:	20000428 	.word	0x20000428
 8004cf0:	20000410 	.word	0x20000410

08004cf4 <measurements_step>:
 8004cf4:	b580      	push	{r7, lr}
 8004cf6:	af00      	add	r7, sp, #0
 8004cf8:	4b04      	ldr	r3, [pc, #16]	; (8004d0c <measurements_step+0x18>)
 8004cfa:	781b      	ldrb	r3, [r3, #0]
 8004cfc:	2b00      	cmp	r3, #0
 8004cfe:	d003      	beq.n	8004d08 <measurements_step+0x14>
 8004d00:	f000 f806 	bl	8004d10 <laptime>
 8004d04:	f000 f87e 	bl	8004e04 <calcSpeed>
 8004d08:	bf00      	nop
 8004d0a:	bd80      	pop	{r7, pc}
 8004d0c:	2000002e 	.word	0x2000002e

08004d10 <laptime>:
 8004d10:	b480      	push	{r7}
 8004d12:	b083      	sub	sp, #12
 8004d14:	af00      	add	r7, sp, #0
 8004d16:	4b35      	ldr	r3, [pc, #212]	; (8004dec <laptime+0xdc>)
 8004d18:	781b      	ldrb	r3, [r3, #0]
 8004d1a:	b2db      	uxtb	r3, r3
 8004d1c:	2b00      	cmp	r3, #0
 8004d1e:	d028      	beq.n	8004d72 <laptime+0x62>
 8004d20:	4b33      	ldr	r3, [pc, #204]	; (8004df0 <laptime+0xe0>)
 8004d22:	881b      	ldrh	r3, [r3, #0]
 8004d24:	b29b      	uxth	r3, r3
 8004d26:	3301      	adds	r3, #1
 8004d28:	b29a      	uxth	r2, r3
 8004d2a:	4b31      	ldr	r3, [pc, #196]	; (8004df0 <laptime+0xe0>)
 8004d2c:	801a      	strh	r2, [r3, #0]
 8004d2e:	4b30      	ldr	r3, [pc, #192]	; (8004df0 <laptime+0xe0>)
 8004d30:	881b      	ldrh	r3, [r3, #0]
 8004d32:	b29b      	uxth	r3, r3
 8004d34:	f5b3 7f7a 	cmp.w	r3, #1000	; 0x3e8
 8004d38:	d309      	bcc.n	8004d4e <laptime+0x3e>
 8004d3a:	4b2d      	ldr	r3, [pc, #180]	; (8004df0 <laptime+0xe0>)
 8004d3c:	2200      	movs	r2, #0
 8004d3e:	801a      	strh	r2, [r3, #0]
 8004d40:	4b2c      	ldr	r3, [pc, #176]	; (8004df4 <laptime+0xe4>)
 8004d42:	781b      	ldrb	r3, [r3, #0]
 8004d44:	b2db      	uxtb	r3, r3
 8004d46:	3301      	adds	r3, #1
 8004d48:	b2da      	uxtb	r2, r3
 8004d4a:	4b2a      	ldr	r3, [pc, #168]	; (8004df4 <laptime+0xe4>)
 8004d4c:	701a      	strb	r2, [r3, #0]
 8004d4e:	4b29      	ldr	r3, [pc, #164]	; (8004df4 <laptime+0xe4>)
 8004d50:	781b      	ldrb	r3, [r3, #0]
 8004d52:	b2db      	uxtb	r3, r3
 8004d54:	2b3b      	cmp	r3, #59	; 0x3b
 8004d56:	d909      	bls.n	8004d6c <laptime+0x5c>
 8004d58:	4b26      	ldr	r3, [pc, #152]	; (8004df4 <laptime+0xe4>)
 8004d5a:	2200      	movs	r2, #0
 8004d5c:	701a      	strb	r2, [r3, #0]
 8004d5e:	4b26      	ldr	r3, [pc, #152]	; (8004df8 <laptime+0xe8>)
 8004d60:	881b      	ldrh	r3, [r3, #0]
 8004d62:	b29b      	uxth	r3, r3
 8004d64:	3301      	adds	r3, #1
 8004d66:	b29a      	uxth	r2, r3
 8004d68:	4b23      	ldr	r3, [pc, #140]	; (8004df8 <laptime+0xe8>)
 8004d6a:	801a      	strh	r2, [r3, #0]
 8004d6c:	4b1f      	ldr	r3, [pc, #124]	; (8004dec <laptime+0xdc>)
 8004d6e:	2200      	movs	r2, #0
 8004d70:	701a      	strb	r2, [r3, #0]
 8004d72:	4b22      	ldr	r3, [pc, #136]	; (8004dfc <laptime+0xec>)
 8004d74:	78db      	ldrb	r3, [r3, #3]
 8004d76:	2b01      	cmp	r3, #1
 8004d78:	d132      	bne.n	8004de0 <laptime+0xd0>
 8004d7a:	2300      	movs	r3, #0
 8004d7c:	71fb      	strb	r3, [r7, #7]
 8004d7e:	e00b      	b.n	8004d98 <laptime+0x88>
 8004d80:	4b1b      	ldr	r3, [pc, #108]	; (8004df0 <laptime+0xe0>)
 8004d82:	881b      	ldrh	r3, [r3, #0]
 8004d84:	b29a      	uxth	r2, r3
 8004d86:	79fb      	ldrb	r3, [r7, #7]
 8004d88:	b2d1      	uxtb	r1, r2
 8004d8a:	4a1d      	ldr	r2, [pc, #116]	; (8004e00 <laptime+0xf0>)
 8004d8c:	4413      	add	r3, r2
 8004d8e:	460a      	mov	r2, r1
 8004d90:	769a      	strb	r2, [r3, #26]
 8004d92:	79fb      	ldrb	r3, [r7, #7]
 8004d94:	3301      	adds	r3, #1
 8004d96:	71fb      	strb	r3, [r7, #7]
 8004d98:	79fb      	ldrb	r3, [r7, #7]
 8004d9a:	2b01      	cmp	r3, #1
 8004d9c:	d9f0      	bls.n	8004d80 <laptime+0x70>
 8004d9e:	2300      	movs	r3, #0
 8004da0:	71bb      	strb	r3, [r7, #6]
 8004da2:	e00b      	b.n	8004dbc <laptime+0xac>
 8004da4:	4b14      	ldr	r3, [pc, #80]	; (8004df8 <laptime+0xe8>)
 8004da6:	881b      	ldrh	r3, [r3, #0]
 8004da8:	b29a      	uxth	r2, r3
 8004daa:	79bb      	ldrb	r3, [r7, #6]
 8004dac:	b2d1      	uxtb	r1, r2
 8004dae:	4a14      	ldr	r2, [pc, #80]	; (8004e00 <laptime+0xf0>)
 8004db0:	4413      	add	r3, r2
 8004db2:	460a      	mov	r2, r1
 8004db4:	761a      	strb	r2, [r3, #24]
 8004db6:	79bb      	ldrb	r3, [r7, #6]
 8004db8:	3301      	adds	r3, #1
 8004dba:	71bb      	strb	r3, [r7, #6]
 8004dbc:	79bb      	ldrb	r3, [r7, #6]
 8004dbe:	2b01      	cmp	r3, #1
 8004dc0:	d9f0      	bls.n	8004da4 <laptime+0x94>
 8004dc2:	4b0c      	ldr	r3, [pc, #48]	; (8004df4 <laptime+0xe4>)
 8004dc4:	781b      	ldrb	r3, [r3, #0]
 8004dc6:	b2da      	uxtb	r2, r3
 8004dc8:	4b0d      	ldr	r3, [pc, #52]	; (8004e00 <laptime+0xf0>)
 8004dca:	f883 2020 	strb.w	r2, [r3, #32]
 8004dce:	4b09      	ldr	r3, [pc, #36]	; (8004df4 <laptime+0xe4>)
 8004dd0:	2200      	movs	r2, #0
 8004dd2:	701a      	strb	r2, [r3, #0]
 8004dd4:	4b08      	ldr	r3, [pc, #32]	; (8004df8 <laptime+0xe8>)
 8004dd6:	2200      	movs	r2, #0
 8004dd8:	801a      	strh	r2, [r3, #0]
 8004dda:	4b05      	ldr	r3, [pc, #20]	; (8004df0 <laptime+0xe0>)
 8004ddc:	2200      	movs	r2, #0
 8004dde:	801a      	strh	r2, [r3, #0]
 8004de0:	bf00      	nop
 8004de2:	370c      	adds	r7, #12
 8004de4:	46bd      	mov	sp, r7
 8004de6:	f85d 7b04 	ldr.w	r7, [sp], #4
 8004dea:	4770      	bx	lr
 8004dec:	20000472 	.word	0x20000472
 8004df0:	2000002c 	.word	0x2000002c
 8004df4:	20000028 	.word	0x20000028
 8004df8:	2000002a 	.word	0x2000002a
 8004dfc:	2000045c 	.word	0x2000045c
 8004e00:	20000428 	.word	0x20000428

08004e04 <calcSpeed>:
 8004e04:	b4b0      	push	{r4, r5, r7}
 8004e06:	b085      	sub	sp, #20
 8004e08:	af00      	add	r7, sp, #0
 8004e0a:	466b      	mov	r3, sp
 8004e0c:	461d      	mov	r5, r3
 8004e0e:	2300      	movs	r3, #0
 8004e10:	737b      	strb	r3, [r7, #13]
 8004e12:	2300      	movs	r3, #0
 8004e14:	733b      	strb	r3, [r7, #12]
 8004e16:	7b3c      	ldrb	r4, [r7, #12]
 8004e18:	4623      	mov	r3, r4
 8004e1a:	3b01      	subs	r3, #1
 8004e1c:	60bb      	str	r3, [r7, #8]
 8004e1e:	b2e0      	uxtb	r0, r4
 8004e20:	f04f 0100 	mov.w	r1, #0
 8004e24:	f04f 0200 	mov.w	r2, #0
 8004e28:	f04f 0300 	mov.w	r3, #0
 8004e2c:	00cb      	lsls	r3, r1, #3
 8004e2e:	ea43 7350 	orr.w	r3, r3, r0, lsr #29
 8004e32:	00c2      	lsls	r2, r0, #3
 8004e34:	b2e0      	uxtb	r0, r4
 8004e36:	f04f 0100 	mov.w	r1, #0
 8004e3a:	f04f 0200 	mov.w	r2, #0
 8004e3e:	f04f 0300 	mov.w	r3, #0
 8004e42:	00cb      	lsls	r3, r1, #3
 8004e44:	ea43 7350 	orr.w	r3, r3, r0, lsr #29
 8004e48:	00c2      	lsls	r2, r0, #3
 8004e4a:	4623      	mov	r3, r4
 8004e4c:	3307      	adds	r3, #7
 8004e4e:	08db      	lsrs	r3, r3, #3
 8004e50:	00db      	lsls	r3, r3, #3
 8004e52:	ebad 0d03 	sub.w	sp, sp, r3
 8004e56:	466b      	mov	r3, sp
 8004e58:	3300      	adds	r3, #0
 8004e5a:	607b      	str	r3, [r7, #4]
 8004e5c:	2300      	movs	r3, #0
 8004e5e:	73bb      	strb	r3, [r7, #14]
 8004e60:	4a14      	ldr	r2, [pc, #80]	; (8004eb4 <calcSpeed+0xb0>)
 8004e62:	7b7b      	ldrb	r3, [r7, #13]
 8004e64:	7793      	strb	r3, [r2, #30]
 8004e66:	4b14      	ldr	r3, [pc, #80]	; (8004eb8 <calcSpeed+0xb4>)
 8004e68:	78db      	ldrb	r3, [r3, #3]
 8004e6a:	2b01      	cmp	r3, #1
 8004e6c:	d11c      	bne.n	8004ea8 <calcSpeed+0xa4>
 8004e6e:	2300      	movs	r3, #0
 8004e70:	70fb      	strb	r3, [r7, #3]
 8004e72:	2300      	movs	r3, #0
 8004e74:	73fb      	strb	r3, [r7, #15]
 8004e76:	e008      	b.n	8004e8a <calcSpeed+0x86>
 8004e78:	7bfb      	ldrb	r3, [r7, #15]
 8004e7a:	687a      	ldr	r2, [r7, #4]
 8004e7c:	5cd2      	ldrb	r2, [r2, r3]
 8004e7e:	7bbb      	ldrb	r3, [r7, #14]
 8004e80:	4413      	add	r3, r2
 8004e82:	73bb      	strb	r3, [r7, #14]
 8004e84:	7bfb      	ldrb	r3, [r7, #15]
 8004e86:	3301      	adds	r3, #1
 8004e88:	73fb      	strb	r3, [r7, #15]
 8004e8a:	7bfa      	ldrb	r2, [r7, #15]
 8004e8c:	7b3b      	ldrb	r3, [r7, #12]
 8004e8e:	429a      	cmp	r2, r3
 8004e90:	d3f2      	bcc.n	8004e78 <calcSpeed+0x74>
 8004e92:	7bba      	ldrb	r2, [r7, #14]
 8004e94:	7b3b      	ldrb	r3, [r7, #12]
 8004e96:	fbb2 f3f3 	udiv	r3, r2, r3
 8004e9a:	70fb      	strb	r3, [r7, #3]
 8004e9c:	4a05      	ldr	r2, [pc, #20]	; (8004eb4 <calcSpeed+0xb0>)
 8004e9e:	78fb      	ldrb	r3, [r7, #3]
 8004ea0:	77d3      	strb	r3, [r2, #31]
 8004ea2:	4b06      	ldr	r3, [pc, #24]	; (8004ebc <calcSpeed+0xb8>)
 8004ea4:	2200      	movs	r2, #0
 8004ea6:	701a      	strb	r2, [r3, #0]
 8004ea8:	46ad      	mov	sp, r5
 8004eaa:	bf00      	nop
 8004eac:	3714      	adds	r7, #20
 8004eae:	46bd      	mov	sp, r7
 8004eb0:	bcb0      	pop	{r4, r5, r7}
 8004eb2:	4770      	bx	lr
 8004eb4:	20000428 	.word	0x20000428
 8004eb8:	2000045c 	.word	0x2000045c
 8004ebc:	2000002e 	.word	0x2000002e

08004ec0 <crc_calc>:
 8004ec0:	b480      	push	{r7}
 8004ec2:	b083      	sub	sp, #12
 8004ec4:	af00      	add	r7, sp, #0
 8004ec6:	23ff      	movs	r3, #255	; 0xff
 8004ec8:	71fb      	strb	r3, [r7, #7]
 8004eca:	2301      	movs	r3, #1
 8004ecc:	70fb      	strb	r3, [r7, #3]
 8004ece:	2300      	movs	r3, #0
 8004ed0:	717b      	strb	r3, [r7, #5]
 8004ed2:	e02e      	b.n	8004f32 <crc_calc+0x72>
 8004ed4:	797b      	ldrb	r3, [r7, #5]
 8004ed6:	4a1c      	ldr	r2, [pc, #112]	; (8004f48 <crc_calc+0x88>)
 8004ed8:	5cd3      	ldrb	r3, [r2, r3]
 8004eda:	70bb      	strb	r3, [r7, #2]
 8004edc:	78fb      	ldrb	r3, [r7, #3]
 8004ede:	01db      	lsls	r3, r3, #7
 8004ee0:	71bb      	strb	r3, [r7, #6]
 8004ee2:	2320      	movs	r3, #32
 8004ee4:	713b      	strb	r3, [r7, #4]
 8004ee6:	e01e      	b.n	8004f26 <crc_calc+0x66>
 8004ee8:	f997 3007 	ldrsb.w	r3, [r7, #7]
 8004eec:	2b00      	cmp	r3, #0
 8004eee:	da07      	bge.n	8004f00 <crc_calc+0x40>
 8004ef0:	79fb      	ldrb	r3, [r7, #7]
 8004ef2:	005b      	lsls	r3, r3, #1
 8004ef4:	b25b      	sxtb	r3, r3
 8004ef6:	f083 0307 	eor.w	r3, r3, #7
 8004efa:	b25b      	sxtb	r3, r3
 8004efc:	71fb      	strb	r3, [r7, #7]
 8004efe:	e002      	b.n	8004f06 <crc_calc+0x46>
 8004f00:	79fb      	ldrb	r3, [r7, #7]
 8004f02:	005b      	lsls	r3, r3, #1
 8004f04:	71fb      	strb	r3, [r7, #7]
 8004f06:	78ba      	ldrb	r2, [r7, #2]
 8004f08:	79bb      	ldrb	r3, [r7, #6]
 8004f0a:	4013      	ands	r3, r2
 8004f0c:	b2db      	uxtb	r3, r3
 8004f0e:	2b00      	cmp	r3, #0
 8004f10:	d003      	beq.n	8004f1a <crc_calc+0x5a>
 8004f12:	79fb      	ldrb	r3, [r7, #7]
 8004f14:	f083 0307 	eor.w	r3, r3, #7
 8004f18:	71fb      	strb	r3, [r7, #7]
 8004f1a:	79bb      	ldrb	r3, [r7, #6]
 8004f1c:	085b      	lsrs	r3, r3, #1
 8004f1e:	71bb      	strb	r3, [r7, #6]
 8004f20:	793b      	ldrb	r3, [r7, #4]
 8004f22:	3b01      	subs	r3, #1
 8004f24:	713b      	strb	r3, [r7, #4]
 8004f26:	793b      	ldrb	r3, [r7, #4]
 8004f28:	2b00      	cmp	r3, #0
 8004f2a:	d1dd      	bne.n	8004ee8 <crc_calc+0x28>
 8004f2c:	797b      	ldrb	r3, [r7, #5]
 8004f2e:	3301      	adds	r3, #1
 8004f30:	717b      	strb	r3, [r7, #5]
 8004f32:	797b      	ldrb	r3, [r7, #5]
 8004f34:	2b13      	cmp	r3, #19
 8004f36:	d9cd      	bls.n	8004ed4 <crc_calc+0x14>
 8004f38:	79fb      	ldrb	r3, [r7, #7]
 8004f3a:	4618      	mov	r0, r3
 8004f3c:	370c      	adds	r7, #12
 8004f3e:	46bd      	mov	sp, r7
 8004f40:	f85d 7b04 	ldr.w	r7, [sp], #4
 8004f44:	4770      	bx	lr
 8004f46:	bf00      	nop
 8004f48:	200003f4 	.word	0x200003f4

08004f4c <crc_calc_TX>:
 8004f4c:	b480      	push	{r7}
 8004f4e:	b083      	sub	sp, #12
 8004f50:	af00      	add	r7, sp, #0
 8004f52:	23ff      	movs	r3, #255	; 0xff
 8004f54:	71fb      	strb	r3, [r7, #7]
 8004f56:	2301      	movs	r3, #1
 8004f58:	70fb      	strb	r3, [r7, #3]
 8004f5a:	2300      	movs	r3, #0
 8004f5c:	717b      	strb	r3, [r7, #5]
 8004f5e:	e02e      	b.n	8004fbe <crc_calc_TX+0x72>
 8004f60:	797b      	ldrb	r3, [r7, #5]
 8004f62:	4a1c      	ldr	r2, [pc, #112]	; (8004fd4 <crc_calc_TX+0x88>)
 8004f64:	5cd3      	ldrb	r3, [r2, r3]
 8004f66:	70bb      	strb	r3, [r7, #2]
 8004f68:	78fb      	ldrb	r3, [r7, #3]
 8004f6a:	01db      	lsls	r3, r3, #7
 8004f6c:	71bb      	strb	r3, [r7, #6]
 8004f6e:	2320      	movs	r3, #32
 8004f70:	713b      	strb	r3, [r7, #4]
 8004f72:	e01e      	b.n	8004fb2 <crc_calc_TX+0x66>
 8004f74:	f997 3007 	ldrsb.w	r3, [r7, #7]
 8004f78:	2b00      	cmp	r3, #0
 8004f7a:	da07      	bge.n	8004f8c <crc_calc_TX+0x40>
 8004f7c:	79fb      	ldrb	r3, [r7, #7]
 8004f7e:	005b      	lsls	r3, r3, #1
 8004f80:	b25b      	sxtb	r3, r3
 8004f82:	f083 0307 	eor.w	r3, r3, #7
 8004f86:	b25b      	sxtb	r3, r3
 8004f88:	71fb      	strb	r3, [r7, #7]
 8004f8a:	e002      	b.n	8004f92 <crc_calc_TX+0x46>
 8004f8c:	79fb      	ldrb	r3, [r7, #7]
 8004f8e:	005b      	lsls	r3, r3, #1
 8004f90:	71fb      	strb	r3, [r7, #7]
 8004f92:	78ba      	ldrb	r2, [r7, #2]
 8004f94:	79bb      	ldrb	r3, [r7, #6]
 8004f96:	4013      	ands	r3, r2
 8004f98:	b2db      	uxtb	r3, r3
 8004f9a:	2b00      	cmp	r3, #0
 8004f9c:	d003      	beq.n	8004fa6 <crc_calc_TX+0x5a>
 8004f9e:	79fb      	ldrb	r3, [r7, #7]
 8004fa0:	f083 0307 	eor.w	r3, r3, #7
 8004fa4:	71fb      	strb	r3, [r7, #7]
 8004fa6:	79bb      	ldrb	r3, [r7, #6]
 8004fa8:	085b      	lsrs	r3, r3, #1
 8004faa:	71bb      	strb	r3, [r7, #6]
 8004fac:	793b      	ldrb	r3, [r7, #4]
 8004fae:	3b01      	subs	r3, #1
 8004fb0:	713b      	strb	r3, [r7, #4]
 8004fb2:	793b      	ldrb	r3, [r7, #4]
 8004fb4:	2b00      	cmp	r3, #0
 8004fb6:	d1dd      	bne.n	8004f74 <crc_calc_TX+0x28>
 8004fb8:	797b      	ldrb	r3, [r7, #5]
 8004fba:	3301      	adds	r3, #1
 8004fbc:	717b      	strb	r3, [r7, #5]
 8004fbe:	797b      	ldrb	r3, [r7, #5]
 8004fc0:	2b04      	cmp	r3, #4
 8004fc2:	d9cd      	bls.n	8004f60 <crc_calc_TX+0x14>
 8004fc4:	79fb      	ldrb	r3, [r7, #7]
 8004fc6:	4618      	mov	r0, r3
 8004fc8:	370c      	adds	r7, #12
 8004fca:	46bd      	mov	sp, r7
 8004fcc:	f85d 7b04 	ldr.w	r7, [sp], #4
 8004fd0:	4770      	bx	lr
 8004fd2:	bf00      	nop
 8004fd4:	20000034 	.word	0x20000034

08004fd8 <rs485_init_EF>:
 8004fd8:	b580      	push	{r7, lr}
 8004fda:	af00      	add	r7, sp, #0
 8004fdc:	2201      	movs	r2, #1
 8004fde:	4904      	ldr	r1, [pc, #16]	; (8004ff0 <rs485_init_EF+0x18>)
 8004fe0:	4804      	ldr	r0, [pc, #16]	; (8004ff4 <rs485_init_EF+0x1c>)
 8004fe2:	f7fe fec9 	bl	8003d78 <HAL_UART_Receive_DMA>
 8004fe6:	f000 f8c7 	bl	8005178 <prepareNewDataToSend_EF>
 8004fea:	bf00      	nop
 8004fec:	bd80      	pop	{r7, pc}
 8004fee:	bf00      	nop
 8004ff0:	2000040d 	.word	0x2000040d
 8004ff4:	20000370 	.word	0x20000370

08004ff8 <rs485_step_EF>:
 8004ff8:	b580      	push	{r7, lr}
 8004ffa:	af00      	add	r7, sp, #0
 8004ffc:	4b04      	ldr	r3, [pc, #16]	; (8005010 <rs485_step_EF+0x18>)
 8004ffe:	781b      	ldrb	r3, [r3, #0]
 8005000:	2b00      	cmp	r3, #0
 8005002:	d101      	bne.n	8005008 <rs485_step_EF+0x10>
 8005004:	f000 f84a 	bl	800509c <receiveData_EF>
 8005008:	f000 f804 	bl	8005014 <sendData_EF>
 800500c:	bf00      	nop
 800500e:	bd80      	pop	{r7, pc}
 8005010:	20000040 	.word	0x20000040

08005014 <sendData_EF>:
 8005014:	b580      	push	{r7, lr}
 8005016:	af00      	add	r7, sp, #0
 8005018:	4b1a      	ldr	r3, [pc, #104]	; (8005084 <sendData_EF+0x70>)
 800501a:	881b      	ldrh	r3, [r3, #0]
 800501c:	2b05      	cmp	r3, #5
 800501e:	d818      	bhi.n	8005052 <sendData_EF+0x3e>
 8005020:	4b18      	ldr	r3, [pc, #96]	; (8005084 <sendData_EF+0x70>)
 8005022:	881b      	ldrh	r3, [r3, #0]
 8005024:	461a      	mov	r2, r3
 8005026:	4b18      	ldr	r3, [pc, #96]	; (8005088 <sendData_EF+0x74>)
 8005028:	5c9a      	ldrb	r2, [r3, r2]
 800502a:	4b18      	ldr	r3, [pc, #96]	; (800508c <sendData_EF+0x78>)
 800502c:	701a      	strb	r2, [r3, #0]
 800502e:	b672      	cpsid	i
 8005030:	bf00      	nop
 8005032:	f04f 33ff 	mov.w	r3, #4294967295
 8005036:	2201      	movs	r2, #1
 8005038:	4914      	ldr	r1, [pc, #80]	; (800508c <sendData_EF+0x78>)
 800503a:	4815      	ldr	r0, [pc, #84]	; (8005090 <sendData_EF+0x7c>)
 800503c:	f7fe fe03 	bl	8003c46 <HAL_UART_Transmit>
 8005040:	b662      	cpsie	i
 8005042:	bf00      	nop
 8005044:	4b0f      	ldr	r3, [pc, #60]	; (8005084 <sendData_EF+0x70>)
 8005046:	881b      	ldrh	r3, [r3, #0]
 8005048:	3301      	adds	r3, #1
 800504a:	b29a      	uxth	r2, r3
 800504c:	4b0d      	ldr	r3, [pc, #52]	; (8005084 <sendData_EF+0x70>)
 800504e:	801a      	strh	r2, [r3, #0]
 8005050:	e015      	b.n	800507e <sendData_EF+0x6a>
 8005052:	4b10      	ldr	r3, [pc, #64]	; (8005094 <sendData_EF+0x80>)
 8005054:	881b      	ldrh	r3, [r3, #0]
 8005056:	2b05      	cmp	r3, #5
 8005058:	d809      	bhi.n	800506e <sendData_EF+0x5a>
 800505a:	4b0e      	ldr	r3, [pc, #56]	; (8005094 <sendData_EF+0x80>)
 800505c:	881b      	ldrh	r3, [r3, #0]
 800505e:	3301      	adds	r3, #1
 8005060:	b29a      	uxth	r2, r3
 8005062:	4b0c      	ldr	r3, [pc, #48]	; (8005094 <sendData_EF+0x80>)
 8005064:	801a      	strh	r2, [r3, #0]
 8005066:	4b0c      	ldr	r3, [pc, #48]	; (8005098 <sendData_EF+0x84>)
 8005068:	2201      	movs	r2, #1
 800506a:	701a      	strb	r2, [r3, #0]
 800506c:	e007      	b.n	800507e <sendData_EF+0x6a>
 800506e:	4b09      	ldr	r3, [pc, #36]	; (8005094 <sendData_EF+0x80>)
 8005070:	2200      	movs	r2, #0
 8005072:	801a      	strh	r2, [r3, #0]
 8005074:	4b03      	ldr	r3, [pc, #12]	; (8005084 <sendData_EF+0x70>)
 8005076:	2200      	movs	r2, #0
 8005078:	801a      	strh	r2, [r3, #0]
 800507a:	f000 f87d 	bl	8005178 <prepareNewDataToSend_EF>
 800507e:	bf00      	nop
 8005080:	bd80      	pop	{r7, pc}
 8005082:	bf00      	nop
 8005084:	2000003a 	.word	0x2000003a
 8005088:	20000034 	.word	0x20000034
 800508c:	2000040c 	.word	0x2000040c
 8005090:	20000370 	.word	0x20000370
 8005094:	20000042 	.word	0x20000042
 8005098:	20000041 	.word	0x20000041

0800509c <receiveData_EF>:
 800509c:	b580      	push	{r7, lr}
 800509e:	b082      	sub	sp, #8
 80050a0:	af00      	add	r7, sp, #0
 80050a2:	4b2d      	ldr	r3, [pc, #180]	; (8005158 <receiveData_EF+0xbc>)
 80050a4:	781b      	ldrb	r3, [r3, #0]
 80050a6:	b2db      	uxtb	r3, r3
 80050a8:	2b00      	cmp	r3, #0
 80050aa:	d105      	bne.n	80050b8 <receiveData_EF+0x1c>
 80050ac:	4b2b      	ldr	r3, [pc, #172]	; (800515c <receiveData_EF+0xc0>)
 80050ae:	681b      	ldr	r3, [r3, #0]
 80050b0:	3301      	adds	r3, #1
 80050b2:	4a2a      	ldr	r2, [pc, #168]	; (800515c <receiveData_EF+0xc0>)
 80050b4:	6013      	str	r3, [r2, #0]
 80050b6:	e007      	b.n	80050c8 <receiveData_EF+0x2c>
 80050b8:	4b27      	ldr	r3, [pc, #156]	; (8005158 <receiveData_EF+0xbc>)
 80050ba:	781b      	ldrb	r3, [r3, #0]
 80050bc:	b2db      	uxtb	r3, r3
 80050be:	2b00      	cmp	r3, #0
 80050c0:	d002      	beq.n	80050c8 <receiveData_EF+0x2c>
 80050c2:	4b25      	ldr	r3, [pc, #148]	; (8005158 <receiveData_EF+0xbc>)
 80050c4:	2200      	movs	r2, #0
 80050c6:	701a      	strb	r2, [r3, #0]
 80050c8:	4b24      	ldr	r3, [pc, #144]	; (800515c <receiveData_EF+0xc0>)
 80050ca:	681b      	ldr	r3, [r3, #0]
 80050cc:	2b15      	cmp	r3, #21
 80050ce:	d93f      	bls.n	8005150 <receiveData_EF+0xb4>
 80050d0:	b672      	cpsid	i
 80050d2:	bf00      	nop
 80050d4:	4b21      	ldr	r3, [pc, #132]	; (800515c <receiveData_EF+0xc0>)
 80050d6:	2200      	movs	r2, #0
 80050d8:	601a      	str	r2, [r3, #0]
 80050da:	4b21      	ldr	r3, [pc, #132]	; (8005160 <receiveData_EF+0xc4>)
 80050dc:	2200      	movs	r2, #0
 80050de:	801a      	strh	r2, [r3, #0]
 80050e0:	4b20      	ldr	r3, [pc, #128]	; (8005164 <receiveData_EF+0xc8>)
 80050e2:	2201      	movs	r2, #1
 80050e4:	701a      	strb	r2, [r3, #0]
 80050e6:	4b20      	ldr	r3, [pc, #128]	; (8005168 <receiveData_EF+0xcc>)
 80050e8:	2200      	movs	r2, #0
 80050ea:	701a      	strb	r2, [r3, #0]
 80050ec:	4b1f      	ldr	r3, [pc, #124]	; (800516c <receiveData_EF+0xd0>)
 80050ee:	7cdb      	ldrb	r3, [r3, #19]
 80050f0:	2b17      	cmp	r3, #23
 80050f2:	d110      	bne.n	8005116 <receiveData_EF+0x7a>
 80050f4:	f7ff fee4 	bl	8004ec0 <crc_calc>
 80050f8:	4603      	mov	r3, r0
 80050fa:	461a      	mov	r2, r3
 80050fc:	4b1b      	ldr	r3, [pc, #108]	; (800516c <receiveData_EF+0xd0>)
 80050fe:	7d1b      	ldrb	r3, [r3, #20]
 8005100:	429a      	cmp	r2, r3
 8005102:	d108      	bne.n	8005116 <receiveData_EF+0x7a>
 8005104:	f000 f872 	bl	80051ec <processReceivedData_EF>
 8005108:	4b19      	ldr	r3, [pc, #100]	; (8005170 <receiveData_EF+0xd4>)
 800510a:	2200      	movs	r2, #0
 800510c:	701a      	strb	r2, [r3, #0]
 800510e:	4b19      	ldr	r3, [pc, #100]	; (8005174 <receiveData_EF+0xd8>)
 8005110:	2200      	movs	r2, #0
 8005112:	601a      	str	r2, [r3, #0]
 8005114:	e00d      	b.n	8005132 <receiveData_EF+0x96>
 8005116:	4b17      	ldr	r3, [pc, #92]	; (8005174 <receiveData_EF+0xd8>)
 8005118:	681b      	ldr	r3, [r3, #0]
 800511a:	3301      	adds	r3, #1
 800511c:	4a15      	ldr	r2, [pc, #84]	; (8005174 <receiveData_EF+0xd8>)
 800511e:	6013      	str	r3, [r2, #0]
 8005120:	4b14      	ldr	r3, [pc, #80]	; (8005174 <receiveData_EF+0xd8>)
 8005122:	681b      	ldr	r3, [r3, #0]
 8005124:	2b64      	cmp	r3, #100	; 0x64
 8005126:	d904      	bls.n	8005132 <receiveData_EF+0x96>
 8005128:	f000 f8d8 	bl	80052dc <resetActData_EF>
 800512c:	4b10      	ldr	r3, [pc, #64]	; (8005170 <receiveData_EF+0xd4>)
 800512e:	2211      	movs	r2, #17
 8005130:	701a      	strb	r2, [r3, #0]
 8005132:	2300      	movs	r3, #0
 8005134:	71fb      	strb	r3, [r7, #7]
 8005136:	e006      	b.n	8005146 <receiveData_EF+0xaa>
 8005138:	79fb      	ldrb	r3, [r7, #7]
 800513a:	4a0c      	ldr	r2, [pc, #48]	; (800516c <receiveData_EF+0xd0>)
 800513c:	2100      	movs	r1, #0
 800513e:	54d1      	strb	r1, [r2, r3]
 8005140:	79fb      	ldrb	r3, [r7, #7]
 8005142:	3301      	adds	r3, #1
 8005144:	71fb      	strb	r3, [r7, #7]
 8005146:	79fb      	ldrb	r3, [r7, #7]
 8005148:	2b14      	cmp	r3, #20
 800514a:	d9f5      	bls.n	8005138 <receiveData_EF+0x9c>
 800514c:	b662      	cpsie	i
 800514e:	bf00      	nop
 8005150:	bf00      	nop
 8005152:	3708      	adds	r7, #8
 8005154:	46bd      	mov	sp, r7
 8005156:	bd80      	pop	{r7, pc}
 8005158:	2000002f 	.word	0x2000002f
 800515c:	20000044 	.word	0x20000044
 8005160:	20000030 	.word	0x20000030
 8005164:	20000040 	.word	0x20000040
 8005168:	20000076 	.word	0x20000076
 800516c:	200003f4 	.word	0x200003f4
 8005170:	20000009 	.word	0x20000009
 8005174:	2000003c 	.word	0x2000003c

08005178 <prepareNewDataToSend_EF>:
 8005178:	b580      	push	{r7, lr}
 800517a:	b082      	sub	sp, #8
 800517c:	af00      	add	r7, sp, #0
 800517e:	2300      	movs	r3, #0
 8005180:	71fb      	strb	r3, [r7, #7]
 8005182:	79fb      	ldrb	r3, [r7, #7]
 8005184:	4a16      	ldr	r2, [pc, #88]	; (80051e0 <prepareNewDataToSend_EF+0x68>)
 8005186:	7811      	ldrb	r1, [r2, #0]
 8005188:	4a16      	ldr	r2, [pc, #88]	; (80051e4 <prepareNewDataToSend_EF+0x6c>)
 800518a:	54d1      	strb	r1, [r2, r3]
 800518c:	79fb      	ldrb	r3, [r7, #7]
 800518e:	3301      	adds	r3, #1
 8005190:	71fb      	strb	r3, [r7, #7]
 8005192:	79fb      	ldrb	r3, [r7, #7]
 8005194:	4a14      	ldr	r2, [pc, #80]	; (80051e8 <prepareNewDataToSend_EF+0x70>)
 8005196:	7951      	ldrb	r1, [r2, #5]
 8005198:	4a12      	ldr	r2, [pc, #72]	; (80051e4 <prepareNewDataToSend_EF+0x6c>)
 800519a:	54d1      	strb	r1, [r2, r3]
 800519c:	79fb      	ldrb	r3, [r7, #7]
 800519e:	3301      	adds	r3, #1
 80051a0:	71fb      	strb	r3, [r7, #7]
 80051a2:	79fb      	ldrb	r3, [r7, #7]
 80051a4:	4a0e      	ldr	r2, [pc, #56]	; (80051e0 <prepareNewDataToSend_EF+0x68>)
 80051a6:	7891      	ldrb	r1, [r2, #2]
 80051a8:	4a0e      	ldr	r2, [pc, #56]	; (80051e4 <prepareNewDataToSend_EF+0x6c>)
 80051aa:	54d1      	strb	r1, [r2, r3]
 80051ac:	79fb      	ldrb	r3, [r7, #7]
 80051ae:	3301      	adds	r3, #1
 80051b0:	71fb      	strb	r3, [r7, #7]
 80051b2:	79fb      	ldrb	r3, [r7, #7]
 80051b4:	4a0a      	ldr	r2, [pc, #40]	; (80051e0 <prepareNewDataToSend_EF+0x68>)
 80051b6:	78d1      	ldrb	r1, [r2, #3]
 80051b8:	4a0a      	ldr	r2, [pc, #40]	; (80051e4 <prepareNewDataToSend_EF+0x6c>)
 80051ba:	54d1      	strb	r1, [r2, r3]
 80051bc:	79fb      	ldrb	r3, [r7, #7]
 80051be:	3301      	adds	r3, #1
 80051c0:	71fb      	strb	r3, [r7, #7]
 80051c2:	79fb      	ldrb	r3, [r7, #7]
 80051c4:	4a07      	ldr	r2, [pc, #28]	; (80051e4 <prepareNewDataToSend_EF+0x6c>)
 80051c6:	2117      	movs	r1, #23
 80051c8:	54d1      	strb	r1, [r2, r3]
 80051ca:	f7ff febf 	bl	8004f4c <crc_calc_TX>
 80051ce:	4603      	mov	r3, r0
 80051d0:	461a      	mov	r2, r3
 80051d2:	4b04      	ldr	r3, [pc, #16]	; (80051e4 <prepareNewDataToSend_EF+0x6c>)
 80051d4:	715a      	strb	r2, [r3, #5]
 80051d6:	bf00      	nop
 80051d8:	3708      	adds	r7, #8
 80051da:	46bd      	mov	sp, r7
 80051dc:	bd80      	pop	{r7, pc}
 80051de:	bf00      	nop
 80051e0:	20000410 	.word	0x20000410
 80051e4:	20000034 	.word	0x20000034
 80051e8:	2000045c 	.word	0x2000045c

080051ec <processReceivedData_EF>:
 80051ec:	b480      	push	{r7}
 80051ee:	b083      	sub	sp, #12
 80051f0:	af00      	add	r7, sp, #0
 80051f2:	2300      	movs	r3, #0
 80051f4:	71fb      	strb	r3, [r7, #7]
 80051f6:	79fb      	ldrb	r3, [r7, #7]
 80051f8:	4a36      	ldr	r2, [pc, #216]	; (80052d4 <processReceivedData_EF+0xe8>)
 80051fa:	5cd2      	ldrb	r2, [r2, r3]
 80051fc:	4b36      	ldr	r3, [pc, #216]	; (80052d8 <processReceivedData_EF+0xec>)
 80051fe:	749a      	strb	r2, [r3, #18]
 8005200:	2300      	movs	r3, #0
 8005202:	71bb      	strb	r3, [r7, #6]
 8005204:	e00b      	b.n	800521e <processReceivedData_EF+0x32>
 8005206:	79fb      	ldrb	r3, [r7, #7]
 8005208:	3301      	adds	r3, #1
 800520a:	71fb      	strb	r3, [r7, #7]
 800520c:	79fa      	ldrb	r2, [r7, #7]
 800520e:	79bb      	ldrb	r3, [r7, #6]
 8005210:	4930      	ldr	r1, [pc, #192]	; (80052d4 <processReceivedData_EF+0xe8>)
 8005212:	5c89      	ldrb	r1, [r1, r2]
 8005214:	4a30      	ldr	r2, [pc, #192]	; (80052d8 <processReceivedData_EF+0xec>)
 8005216:	54d1      	strb	r1, [r2, r3]
 8005218:	79bb      	ldrb	r3, [r7, #6]
 800521a:	3301      	adds	r3, #1
 800521c:	71bb      	strb	r3, [r7, #6]
 800521e:	79bb      	ldrb	r3, [r7, #6]
 8005220:	2b03      	cmp	r3, #3
 8005222:	d9f0      	bls.n	8005206 <processReceivedData_EF+0x1a>
 8005224:	2300      	movs	r3, #0
 8005226:	717b      	strb	r3, [r7, #5]
 8005228:	e00d      	b.n	8005246 <processReceivedData_EF+0x5a>
 800522a:	79fb      	ldrb	r3, [r7, #7]
 800522c:	3301      	adds	r3, #1
 800522e:	71fb      	strb	r3, [r7, #7]
 8005230:	79fa      	ldrb	r2, [r7, #7]
 8005232:	797b      	ldrb	r3, [r7, #5]
 8005234:	4927      	ldr	r1, [pc, #156]	; (80052d4 <processReceivedData_EF+0xe8>)
 8005236:	5c89      	ldrb	r1, [r1, r2]
 8005238:	4a27      	ldr	r2, [pc, #156]	; (80052d8 <processReceivedData_EF+0xec>)
 800523a:	4413      	add	r3, r2
 800523c:	460a      	mov	r2, r1
 800523e:	711a      	strb	r2, [r3, #4]
 8005240:	797b      	ldrb	r3, [r7, #5]
 8005242:	3301      	adds	r3, #1
 8005244:	717b      	strb	r3, [r7, #5]
 8005246:	797b      	ldrb	r3, [r7, #5]
 8005248:	2b03      	cmp	r3, #3
 800524a:	d9ee      	bls.n	800522a <processReceivedData_EF+0x3e>
 800524c:	2300      	movs	r3, #0
 800524e:	713b      	strb	r3, [r7, #4]
 8005250:	e00d      	b.n	800526e <processReceivedData_EF+0x82>
 8005252:	79fb      	ldrb	r3, [r7, #7]
 8005254:	3301      	adds	r3, #1
 8005256:	71fb      	strb	r3, [r7, #7]
 8005258:	79fa      	ldrb	r2, [r7, #7]
 800525a:	793b      	ldrb	r3, [r7, #4]
 800525c:	491d      	ldr	r1, [pc, #116]	; (80052d4 <processReceivedData_EF+0xe8>)
 800525e:	5c89      	ldrb	r1, [r1, r2]
 8005260:	4a1d      	ldr	r2, [pc, #116]	; (80052d8 <processReceivedData_EF+0xec>)
 8005262:	4413      	add	r3, r2
 8005264:	460a      	mov	r2, r1
 8005266:	721a      	strb	r2, [r3, #8]
 8005268:	793b      	ldrb	r3, [r7, #4]
 800526a:	3301      	adds	r3, #1
 800526c:	713b      	strb	r3, [r7, #4]
 800526e:	793b      	ldrb	r3, [r7, #4]
 8005270:	2b03      	cmp	r3, #3
 8005272:	d9ee      	bls.n	8005252 <processReceivedData_EF+0x66>
 8005274:	2300      	movs	r3, #0
 8005276:	70fb      	strb	r3, [r7, #3]
 8005278:	e00d      	b.n	8005296 <processReceivedData_EF+0xaa>
 800527a:	79fb      	ldrb	r3, [r7, #7]
 800527c:	3301      	adds	r3, #1
 800527e:	71fb      	strb	r3, [r7, #7]
 8005280:	79fa      	ldrb	r2, [r7, #7]
 8005282:	78fb      	ldrb	r3, [r7, #3]
 8005284:	4913      	ldr	r1, [pc, #76]	; (80052d4 <processReceivedData_EF+0xe8>)
 8005286:	5c89      	ldrb	r1, [r1, r2]
 8005288:	4a13      	ldr	r2, [pc, #76]	; (80052d8 <processReceivedData_EF+0xec>)
 800528a:	4413      	add	r3, r2
 800528c:	460a      	mov	r2, r1
 800528e:	731a      	strb	r2, [r3, #12]
 8005290:	78fb      	ldrb	r3, [r7, #3]
 8005292:	3301      	adds	r3, #1
 8005294:	70fb      	strb	r3, [r7, #3]
 8005296:	78fb      	ldrb	r3, [r7, #3]
 8005298:	2b03      	cmp	r3, #3
 800529a:	d9ee      	bls.n	800527a <processReceivedData_EF+0x8e>
 800529c:	2300      	movs	r3, #0
 800529e:	70bb      	strb	r3, [r7, #2]
 80052a0:	e00d      	b.n	80052be <processReceivedData_EF+0xd2>
 80052a2:	79fb      	ldrb	r3, [r7, #7]
 80052a4:	3301      	adds	r3, #1
 80052a6:	71fb      	strb	r3, [r7, #7]
 80052a8:	79fa      	ldrb	r2, [r7, #7]
 80052aa:	78bb      	ldrb	r3, [r7, #2]
 80052ac:	4909      	ldr	r1, [pc, #36]	; (80052d4 <processReceivedData_EF+0xe8>)
 80052ae:	5c89      	ldrb	r1, [r1, r2]
 80052b0:	4a09      	ldr	r2, [pc, #36]	; (80052d8 <processReceivedData_EF+0xec>)
 80052b2:	4413      	add	r3, r2
 80052b4:	460a      	mov	r2, r1
 80052b6:	741a      	strb	r2, [r3, #16]
 80052b8:	78bb      	ldrb	r3, [r7, #2]
 80052ba:	3301      	adds	r3, #1
 80052bc:	70bb      	strb	r3, [r7, #2]
 80052be:	78bb      	ldrb	r3, [r7, #2]
 80052c0:	2b01      	cmp	r3, #1
 80052c2:	d9ee      	bls.n	80052a2 <processReceivedData_EF+0xb6>
 80052c4:	bf00      	nop
 80052c6:	bf00      	nop
 80052c8:	370c      	adds	r7, #12
 80052ca:	46bd      	mov	sp, r7
 80052cc:	f85d 7b04 	ldr.w	r7, [sp], #4
 80052d0:	4770      	bx	lr
 80052d2:	bf00      	nop
 80052d4:	200003f4 	.word	0x200003f4
 80052d8:	20000414 	.word	0x20000414

080052dc <resetActData_EF>:
 80052dc:	b480      	push	{r7}
 80052de:	b083      	sub	sp, #12
 80052e0:	af00      	add	r7, sp, #0
 80052e2:	4b21      	ldr	r3, [pc, #132]	; (8005368 <resetActData_EF+0x8c>)
 80052e4:	2200      	movs	r2, #0
 80052e6:	749a      	strb	r2, [r3, #18]
 80052e8:	2300      	movs	r3, #0
 80052ea:	71fb      	strb	r3, [r7, #7]
 80052ec:	e006      	b.n	80052fc <resetActData_EF+0x20>
 80052ee:	79fb      	ldrb	r3, [r7, #7]
 80052f0:	4a1d      	ldr	r2, [pc, #116]	; (8005368 <resetActData_EF+0x8c>)
 80052f2:	2100      	movs	r1, #0
 80052f4:	54d1      	strb	r1, [r2, r3]
 80052f6:	79fb      	ldrb	r3, [r7, #7]
 80052f8:	3301      	adds	r3, #1
 80052fa:	71fb      	strb	r3, [r7, #7]
 80052fc:	79fb      	ldrb	r3, [r7, #7]
 80052fe:	2b03      	cmp	r3, #3
 8005300:	d9f5      	bls.n	80052ee <resetActData_EF+0x12>
 8005302:	2300      	movs	r3, #0
 8005304:	71bb      	strb	r3, [r7, #6]
 8005306:	e007      	b.n	8005318 <resetActData_EF+0x3c>
 8005308:	79bb      	ldrb	r3, [r7, #6]
 800530a:	4a17      	ldr	r2, [pc, #92]	; (8005368 <resetActData_EF+0x8c>)
 800530c:	4413      	add	r3, r2
 800530e:	2200      	movs	r2, #0
 8005310:	711a      	strb	r2, [r3, #4]
 8005312:	79bb      	ldrb	r3, [r7, #6]
 8005314:	3301      	adds	r3, #1
 8005316:	71bb      	strb	r3, [r7, #6]
 8005318:	79bb      	ldrb	r3, [r7, #6]
 800531a:	2b03      	cmp	r3, #3
 800531c:	d9f4      	bls.n	8005308 <resetActData_EF+0x2c>
 800531e:	2300      	movs	r3, #0
 8005320:	717b      	strb	r3, [r7, #5]
 8005322:	e007      	b.n	8005334 <resetActData_EF+0x58>
 8005324:	797b      	ldrb	r3, [r7, #5]
 8005326:	4a10      	ldr	r2, [pc, #64]	; (8005368 <resetActData_EF+0x8c>)
 8005328:	4413      	add	r3, r2
 800532a:	2200      	movs	r2, #0
 800532c:	721a      	strb	r2, [r3, #8]
 800532e:	797b      	ldrb	r3, [r7, #5]
 8005330:	3301      	adds	r3, #1
 8005332:	717b      	strb	r3, [r7, #5]
 8005334:	797b      	ldrb	r3, [r7, #5]
 8005336:	2b03      	cmp	r3, #3
 8005338:	d9f4      	bls.n	8005324 <resetActData_EF+0x48>
 800533a:	2300      	movs	r3, #0
 800533c:	713b      	strb	r3, [r7, #4]
 800533e:	e007      	b.n	8005350 <resetActData_EF+0x74>
 8005340:	793b      	ldrb	r3, [r7, #4]
 8005342:	4a09      	ldr	r2, [pc, #36]	; (8005368 <resetActData_EF+0x8c>)
 8005344:	4413      	add	r3, r2
 8005346:	2200      	movs	r2, #0
 8005348:	731a      	strb	r2, [r3, #12]
 800534a:	793b      	ldrb	r3, [r7, #4]
 800534c:	3301      	adds	r3, #1
 800534e:	713b      	strb	r3, [r7, #4]
 8005350:	793b      	ldrb	r3, [r7, #4]
 8005352:	2b03      	cmp	r3, #3
 8005354:	d9f4      	bls.n	8005340 <resetActData_EF+0x64>
 8005356:	4b04      	ldr	r3, [pc, #16]	; (8005368 <resetActData_EF+0x8c>)
 8005358:	2200      	movs	r2, #0
 800535a:	821a      	strh	r2, [r3, #16]
 800535c:	bf00      	nop
 800535e:	370c      	adds	r7, #12
 8005360:	46bd      	mov	sp, r7
 8005362:	f85d 7b04 	ldr.w	r7, [sp], #4
 8005366:	4770      	bx	lr
 8005368:	20000414 	.word	0x20000414

0800536c <crc_calc_SW>:
 800536c:	b480      	push	{r7}
 800536e:	b083      	sub	sp, #12
 8005370:	af00      	add	r7, sp, #0
 8005372:	23ff      	movs	r3, #255	; 0xff
 8005374:	71fb      	strb	r3, [r7, #7]
 8005376:	2301      	movs	r3, #1
 8005378:	70fb      	strb	r3, [r7, #3]
 800537a:	2300      	movs	r3, #0
 800537c:	717b      	strb	r3, [r7, #5]
 800537e:	e02e      	b.n	80053de <crc_calc_SW+0x72>
 8005380:	797b      	ldrb	r3, [r7, #5]
 8005382:	4a1c      	ldr	r2, [pc, #112]	; (80053f4 <crc_calc_SW+0x88>)
 8005384:	5cd3      	ldrb	r3, [r2, r3]
 8005386:	70bb      	strb	r3, [r7, #2]
 8005388:	78fb      	ldrb	r3, [r7, #3]
 800538a:	01db      	lsls	r3, r3, #7
 800538c:	71bb      	strb	r3, [r7, #6]
 800538e:	2320      	movs	r3, #32
 8005390:	713b      	strb	r3, [r7, #4]
 8005392:	e01e      	b.n	80053d2 <crc_calc_SW+0x66>
 8005394:	f997 3007 	ldrsb.w	r3, [r7, #7]
 8005398:	2b00      	cmp	r3, #0
 800539a:	da07      	bge.n	80053ac <crc_calc_SW+0x40>
 800539c:	79fb      	ldrb	r3, [r7, #7]
 800539e:	005b      	lsls	r3, r3, #1
 80053a0:	b25b      	sxtb	r3, r3
 80053a2:	f083 0307 	eor.w	r3, r3, #7
 80053a6:	b25b      	sxtb	r3, r3
 80053a8:	71fb      	strb	r3, [r7, #7]
 80053aa:	e002      	b.n	80053b2 <crc_calc_SW+0x46>
 80053ac:	79fb      	ldrb	r3, [r7, #7]
 80053ae:	005b      	lsls	r3, r3, #1
 80053b0:	71fb      	strb	r3, [r7, #7]
 80053b2:	78ba      	ldrb	r2, [r7, #2]
 80053b4:	79bb      	ldrb	r3, [r7, #6]
 80053b6:	4013      	ands	r3, r2
 80053b8:	b2db      	uxtb	r3, r3
 80053ba:	2b00      	cmp	r3, #0
 80053bc:	d003      	beq.n	80053c6 <crc_calc_SW+0x5a>
 80053be:	79fb      	ldrb	r3, [r7, #7]
 80053c0:	f083 0307 	eor.w	r3, r3, #7
 80053c4:	71fb      	strb	r3, [r7, #7]
 80053c6:	79bb      	ldrb	r3, [r7, #6]
 80053c8:	085b      	lsrs	r3, r3, #1
 80053ca:	71bb      	strb	r3, [r7, #6]
 80053cc:	793b      	ldrb	r3, [r7, #4]
 80053ce:	3b01      	subs	r3, #1
 80053d0:	713b      	strb	r3, [r7, #4]
 80053d2:	793b      	ldrb	r3, [r7, #4]
 80053d4:	2b00      	cmp	r3, #0
 80053d6:	d1dd      	bne.n	8005394 <crc_calc_SW+0x28>
 80053d8:	797b      	ldrb	r3, [r7, #5]
 80053da:	3301      	adds	r3, #1
 80053dc:	717b      	strb	r3, [r7, #5]
 80053de:	797b      	ldrb	r3, [r7, #5]
 80053e0:	2b09      	cmp	r3, #9
 80053e2:	d9cd      	bls.n	8005380 <crc_calc_SW+0x14>
 80053e4:	79fb      	ldrb	r3, [r7, #7]
 80053e6:	4618      	mov	r0, r3
 80053e8:	370c      	adds	r7, #12
 80053ea:	46bd      	mov	sp, r7
 80053ec:	f85d 7b04 	ldr.w	r7, [sp], #4
 80053f0:	4770      	bx	lr
 80053f2:	bf00      	nop
 80053f4:	20000450 	.word	0x20000450

080053f8 <crc_calc_TX_SW>:
 80053f8:	b480      	push	{r7}
 80053fa:	b083      	sub	sp, #12
 80053fc:	af00      	add	r7, sp, #0
 80053fe:	23ff      	movs	r3, #255	; 0xff
 8005400:	71fb      	strb	r3, [r7, #7]
 8005402:	2301      	movs	r3, #1
 8005404:	70fb      	strb	r3, [r7, #3]
 8005406:	2300      	movs	r3, #0
 8005408:	717b      	strb	r3, [r7, #5]
 800540a:	e02e      	b.n	800546a <crc_calc_TX_SW+0x72>
 800540c:	797b      	ldrb	r3, [r7, #5]
 800540e:	4a1c      	ldr	r2, [pc, #112]	; (8005480 <crc_calc_TX_SW+0x88>)
 8005410:	5cd3      	ldrb	r3, [r2, r3]
 8005412:	70bb      	strb	r3, [r7, #2]
 8005414:	78fb      	ldrb	r3, [r7, #3]
 8005416:	01db      	lsls	r3, r3, #7
 8005418:	71bb      	strb	r3, [r7, #6]
 800541a:	2320      	movs	r3, #32
 800541c:	713b      	strb	r3, [r7, #4]
 800541e:	e01e      	b.n	800545e <crc_calc_TX_SW+0x66>
 8005420:	f997 3007 	ldrsb.w	r3, [r7, #7]
 8005424:	2b00      	cmp	r3, #0
 8005426:	da07      	bge.n	8005438 <crc_calc_TX_SW+0x40>
 8005428:	79fb      	ldrb	r3, [r7, #7]
 800542a:	005b      	lsls	r3, r3, #1
 800542c:	b25b      	sxtb	r3, r3
 800542e:	f083 0307 	eor.w	r3, r3, #7
 8005432:	b25b      	sxtb	r3, r3
 8005434:	71fb      	strb	r3, [r7, #7]
 8005436:	e002      	b.n	800543e <crc_calc_TX_SW+0x46>
 8005438:	79fb      	ldrb	r3, [r7, #7]
 800543a:	005b      	lsls	r3, r3, #1
 800543c:	71fb      	strb	r3, [r7, #7]
 800543e:	78ba      	ldrb	r2, [r7, #2]
 8005440:	79bb      	ldrb	r3, [r7, #6]
 8005442:	4013      	ands	r3, r2
 8005444:	b2db      	uxtb	r3, r3
 8005446:	2b00      	cmp	r3, #0
 8005448:	d003      	beq.n	8005452 <crc_calc_TX_SW+0x5a>
 800544a:	79fb      	ldrb	r3, [r7, #7]
 800544c:	f083 0307 	eor.w	r3, r3, #7
 8005450:	71fb      	strb	r3, [r7, #7]
 8005452:	79bb      	ldrb	r3, [r7, #6]
 8005454:	085b      	lsrs	r3, r3, #1
 8005456:	71bb      	strb	r3, [r7, #6]
 8005458:	793b      	ldrb	r3, [r7, #4]
 800545a:	3b01      	subs	r3, #1
 800545c:	713b      	strb	r3, [r7, #4]
 800545e:	793b      	ldrb	r3, [r7, #4]
 8005460:	2b00      	cmp	r3, #0
 8005462:	d1dd      	bne.n	8005420 <crc_calc_TX_SW+0x28>
 8005464:	797b      	ldrb	r3, [r7, #5]
 8005466:	3301      	adds	r3, #1
 8005468:	717b      	strb	r3, [r7, #5]
 800546a:	797b      	ldrb	r3, [r7, #5]
 800546c:	2b25      	cmp	r3, #37	; 0x25
 800546e:	d9cd      	bls.n	800540c <crc_calc_TX_SW+0x14>
 8005470:	79fb      	ldrb	r3, [r7, #7]
 8005472:	4618      	mov	r0, r3
 8005474:	370c      	adds	r7, #12
 8005476:	46bd      	mov	sp, r7
 8005478:	f85d 7b04 	ldr.w	r7, [sp], #4
 800547c:	4770      	bx	lr
 800547e:	bf00      	nop
 8005480:	2000004c 	.word	0x2000004c

08005484 <rs485_init_SW>:
 8005484:	b580      	push	{r7, lr}
 8005486:	af00      	add	r7, sp, #0
 8005488:	2201      	movs	r2, #1
 800548a:	4904      	ldr	r1, [pc, #16]	; (800549c <rs485_init_SW+0x18>)
 800548c:	4804      	ldr	r0, [pc, #16]	; (80054a0 <rs485_init_SW+0x1c>)
 800548e:	f7fe fc73 	bl	8003d78 <HAL_UART_Receive_DMA>
 8005492:	f000 f8c1 	bl	8005618 <prepareNewDataToSend_SW>
 8005496:	bf00      	nop
 8005498:	bd80      	pop	{r7, pc}
 800549a:	bf00      	nop
 800549c:	20000469 	.word	0x20000469
 80054a0:	200002d0 	.word	0x200002d0

080054a4 <rs485_step_SW>:
 80054a4:	b580      	push	{r7, lr}
 80054a6:	af00      	add	r7, sp, #0
 80054a8:	4b04      	ldr	r3, [pc, #16]	; (80054bc <rs485_step_SW+0x18>)
 80054aa:	781b      	ldrb	r3, [r3, #0]
 80054ac:	2b00      	cmp	r3, #0
 80054ae:	d101      	bne.n	80054b4 <rs485_step_SW+0x10>
 80054b0:	f000 f844 	bl	800553c <receiveData_SW>
 80054b4:	f000 f804 	bl	80054c0 <sendData_SW>
 80054b8:	bf00      	nop
 80054ba:	bd80      	pop	{r7, pc}
 80054bc:	20000076 	.word	0x20000076

080054c0 <sendData_SW>:
 80054c0:	b580      	push	{r7, lr}
 80054c2:	af00      	add	r7, sp, #0
 80054c4:	4b18      	ldr	r3, [pc, #96]	; (8005528 <sendData_SW+0x68>)
 80054c6:	881b      	ldrh	r3, [r3, #0]
 80054c8:	2b26      	cmp	r3, #38	; 0x26
 80054ca:	d818      	bhi.n	80054fe <sendData_SW+0x3e>
 80054cc:	4b16      	ldr	r3, [pc, #88]	; (8005528 <sendData_SW+0x68>)
 80054ce:	881b      	ldrh	r3, [r3, #0]
 80054d0:	461a      	mov	r2, r3
 80054d2:	4b16      	ldr	r3, [pc, #88]	; (800552c <sendData_SW+0x6c>)
 80054d4:	5c9a      	ldrb	r2, [r3, r2]
 80054d6:	4b16      	ldr	r3, [pc, #88]	; (8005530 <sendData_SW+0x70>)
 80054d8:	701a      	strb	r2, [r3, #0]
 80054da:	b672      	cpsid	i
 80054dc:	bf00      	nop
 80054de:	f04f 33ff 	mov.w	r3, #4294967295
 80054e2:	2201      	movs	r2, #1
 80054e4:	4912      	ldr	r1, [pc, #72]	; (8005530 <sendData_SW+0x70>)
 80054e6:	4813      	ldr	r0, [pc, #76]	; (8005534 <sendData_SW+0x74>)
 80054e8:	f7fe fbad 	bl	8003c46 <HAL_UART_Transmit>
 80054ec:	b662      	cpsie	i
 80054ee:	bf00      	nop
 80054f0:	4b0d      	ldr	r3, [pc, #52]	; (8005528 <sendData_SW+0x68>)
 80054f2:	881b      	ldrh	r3, [r3, #0]
 80054f4:	3301      	adds	r3, #1
 80054f6:	b29a      	uxth	r2, r3
 80054f8:	4b0b      	ldr	r3, [pc, #44]	; (8005528 <sendData_SW+0x68>)
 80054fa:	801a      	strh	r2, [r3, #0]
 80054fc:	e012      	b.n	8005524 <sendData_SW+0x64>
 80054fe:	4b0e      	ldr	r3, [pc, #56]	; (8005538 <sendData_SW+0x78>)
 8005500:	881b      	ldrh	r3, [r3, #0]
 8005502:	2b26      	cmp	r3, #38	; 0x26
 8005504:	d806      	bhi.n	8005514 <sendData_SW+0x54>
 8005506:	4b0c      	ldr	r3, [pc, #48]	; (8005538 <sendData_SW+0x78>)
 8005508:	881b      	ldrh	r3, [r3, #0]
 800550a:	3301      	adds	r3, #1
 800550c:	b29a      	uxth	r2, r3
 800550e:	4b0a      	ldr	r3, [pc, #40]	; (8005538 <sendData_SW+0x78>)
 8005510:	801a      	strh	r2, [r3, #0]
 8005512:	e007      	b.n	8005524 <sendData_SW+0x64>
 8005514:	4b08      	ldr	r3, [pc, #32]	; (8005538 <sendData_SW+0x78>)
 8005516:	2200      	movs	r2, #0
 8005518:	801a      	strh	r2, [r3, #0]
 800551a:	4b03      	ldr	r3, [pc, #12]	; (8005528 <sendData_SW+0x68>)
 800551c:	2200      	movs	r2, #0
 800551e:	801a      	strh	r2, [r3, #0]
 8005520:	f000 f87a 	bl	8005618 <prepareNewDataToSend_SW>
 8005524:	bf00      	nop
 8005526:	bd80      	pop	{r7, pc}
 8005528:	20000074 	.word	0x20000074
 800552c:	2000004c 	.word	0x2000004c
 8005530:	20000468 	.word	0x20000468
 8005534:	200002d0 	.word	0x200002d0
 8005538:	20000078 	.word	0x20000078

0800553c <receiveData_SW>:
 800553c:	b580      	push	{r7, lr}
 800553e:	b082      	sub	sp, #8
 8005540:	af00      	add	r7, sp, #0
 8005542:	4b2d      	ldr	r3, [pc, #180]	; (80055f8 <receiveData_SW+0xbc>)
 8005544:	781b      	ldrb	r3, [r3, #0]
 8005546:	b2db      	uxtb	r3, r3
 8005548:	2b00      	cmp	r3, #0
 800554a:	d105      	bne.n	8005558 <receiveData_SW+0x1c>
 800554c:	4b2b      	ldr	r3, [pc, #172]	; (80055fc <receiveData_SW+0xc0>)
 800554e:	681b      	ldr	r3, [r3, #0]
 8005550:	3301      	adds	r3, #1
 8005552:	4a2a      	ldr	r2, [pc, #168]	; (80055fc <receiveData_SW+0xc0>)
 8005554:	6013      	str	r3, [r2, #0]
 8005556:	e007      	b.n	8005568 <receiveData_SW+0x2c>
 8005558:	4b27      	ldr	r3, [pc, #156]	; (80055f8 <receiveData_SW+0xbc>)
 800555a:	781b      	ldrb	r3, [r3, #0]
 800555c:	b2db      	uxtb	r3, r3
 800555e:	2b00      	cmp	r3, #0
 8005560:	d002      	beq.n	8005568 <receiveData_SW+0x2c>
 8005562:	4b25      	ldr	r3, [pc, #148]	; (80055f8 <receiveData_SW+0xbc>)
 8005564:	2200      	movs	r2, #0
 8005566:	701a      	strb	r2, [r3, #0]
 8005568:	4b24      	ldr	r3, [pc, #144]	; (80055fc <receiveData_SW+0xc0>)
 800556a:	681b      	ldr	r3, [r3, #0]
 800556c:	2b0b      	cmp	r3, #11
 800556e:	d93f      	bls.n	80055f0 <receiveData_SW+0xb4>
 8005570:	b672      	cpsid	i
 8005572:	bf00      	nop
 8005574:	4b21      	ldr	r3, [pc, #132]	; (80055fc <receiveData_SW+0xc0>)
 8005576:	2200      	movs	r2, #0
 8005578:	601a      	str	r2, [r3, #0]
 800557a:	4b21      	ldr	r3, [pc, #132]	; (8005600 <receiveData_SW+0xc4>)
 800557c:	2200      	movs	r2, #0
 800557e:	801a      	strh	r2, [r3, #0]
 8005580:	4b20      	ldr	r3, [pc, #128]	; (8005604 <receiveData_SW+0xc8>)
 8005582:	2201      	movs	r2, #1
 8005584:	701a      	strb	r2, [r3, #0]
 8005586:	4b20      	ldr	r3, [pc, #128]	; (8005608 <receiveData_SW+0xcc>)
 8005588:	2200      	movs	r2, #0
 800558a:	701a      	strb	r2, [r3, #0]
 800558c:	4b1f      	ldr	r3, [pc, #124]	; (800560c <receiveData_SW+0xd0>)
 800558e:	7a5b      	ldrb	r3, [r3, #9]
 8005590:	2b17      	cmp	r3, #23
 8005592:	d110      	bne.n	80055b6 <receiveData_SW+0x7a>
 8005594:	f7ff feea 	bl	800536c <crc_calc_SW>
 8005598:	4603      	mov	r3, r0
 800559a:	461a      	mov	r2, r3
 800559c:	4b1b      	ldr	r3, [pc, #108]	; (800560c <receiveData_SW+0xd0>)
 800559e:	7a9b      	ldrb	r3, [r3, #10]
 80055a0:	429a      	cmp	r2, r3
 80055a2:	d108      	bne.n	80055b6 <receiveData_SW+0x7a>
 80055a4:	f000 f93a 	bl	800581c <processReceivedData_SW>
 80055a8:	4b19      	ldr	r3, [pc, #100]	; (8005610 <receiveData_SW+0xd4>)
 80055aa:	2200      	movs	r2, #0
 80055ac:	701a      	strb	r2, [r3, #0]
 80055ae:	4b19      	ldr	r3, [pc, #100]	; (8005614 <receiveData_SW+0xd8>)
 80055b0:	2200      	movs	r2, #0
 80055b2:	601a      	str	r2, [r3, #0]
 80055b4:	e00d      	b.n	80055d2 <receiveData_SW+0x96>
 80055b6:	4b17      	ldr	r3, [pc, #92]	; (8005614 <receiveData_SW+0xd8>)
 80055b8:	681b      	ldr	r3, [r3, #0]
 80055ba:	3301      	adds	r3, #1
 80055bc:	4a15      	ldr	r2, [pc, #84]	; (8005614 <receiveData_SW+0xd8>)
 80055be:	6013      	str	r3, [r2, #0]
 80055c0:	4b14      	ldr	r3, [pc, #80]	; (8005614 <receiveData_SW+0xd8>)
 80055c2:	681b      	ldr	r3, [r3, #0]
 80055c4:	2b32      	cmp	r3, #50	; 0x32
 80055c6:	d904      	bls.n	80055d2 <receiveData_SW+0x96>
 80055c8:	f000 f996 	bl	80058f8 <resetActData_SW>
 80055cc:	4b10      	ldr	r3, [pc, #64]	; (8005610 <receiveData_SW+0xd4>)
 80055ce:	2211      	movs	r2, #17
 80055d0:	701a      	strb	r2, [r3, #0]
 80055d2:	2300      	movs	r3, #0
 80055d4:	71fb      	strb	r3, [r7, #7]
 80055d6:	e006      	b.n	80055e6 <receiveData_SW+0xaa>
 80055d8:	79fb      	ldrb	r3, [r7, #7]
 80055da:	4a0c      	ldr	r2, [pc, #48]	; (800560c <receiveData_SW+0xd0>)
 80055dc:	2100      	movs	r1, #0
 80055de:	54d1      	strb	r1, [r2, r3]
 80055e0:	79fb      	ldrb	r3, [r7, #7]
 80055e2:	3301      	adds	r3, #1
 80055e4:	71fb      	strb	r3, [r7, #7]
 80055e6:	79fb      	ldrb	r3, [r7, #7]
 80055e8:	2b0a      	cmp	r3, #10
 80055ea:	d9f5      	bls.n	80055d8 <receiveData_SW+0x9c>
 80055ec:	b662      	cpsie	i
 80055ee:	bf00      	nop
 80055f0:	bf00      	nop
 80055f2:	3708      	adds	r7, #8
 80055f4:	46bd      	mov	sp, r7
 80055f6:	bd80      	pop	{r7, pc}
 80055f8:	20000048 	.word	0x20000048
 80055fc:	2000007c 	.word	0x2000007c
 8005600:	2000004a 	.word	0x2000004a
 8005604:	20000076 	.word	0x20000076
 8005608:	20000040 	.word	0x20000040
 800560c:	20000450 	.word	0x20000450
 8005610:	2000000a 	.word	0x2000000a
 8005614:	20000080 	.word	0x20000080

08005618 <prepareNewDataToSend_SW>:
 8005618:	b580      	push	{r7, lr}
 800561a:	b084      	sub	sp, #16
 800561c:	af00      	add	r7, sp, #0
 800561e:	2300      	movs	r3, #0
 8005620:	73fb      	strb	r3, [r7, #15]
 8005622:	7bfb      	ldrb	r3, [r7, #15]
 8005624:	4a7a      	ldr	r2, [pc, #488]	; (8005810 <prepareNewDataToSend_SW+0x1f8>)
 8005626:	7f91      	ldrb	r1, [r2, #30]
 8005628:	4a7a      	ldr	r2, [pc, #488]	; (8005814 <prepareNewDataToSend_SW+0x1fc>)
 800562a:	54d1      	strb	r1, [r2, r3]
 800562c:	7bfb      	ldrb	r3, [r7, #15]
 800562e:	3301      	adds	r3, #1
 8005630:	73fb      	strb	r3, [r7, #15]
 8005632:	7bfb      	ldrb	r3, [r7, #15]
 8005634:	4a76      	ldr	r2, [pc, #472]	; (8005810 <prepareNewDataToSend_SW+0x1f8>)
 8005636:	7fd1      	ldrb	r1, [r2, #31]
 8005638:	4a76      	ldr	r2, [pc, #472]	; (8005814 <prepareNewDataToSend_SW+0x1fc>)
 800563a:	54d1      	strb	r1, [r2, r3]
 800563c:	2300      	movs	r3, #0
 800563e:	73bb      	strb	r3, [r7, #14]
 8005640:	e00c      	b.n	800565c <prepareNewDataToSend_SW+0x44>
 8005642:	7bba      	ldrb	r2, [r7, #14]
 8005644:	7bfb      	ldrb	r3, [r7, #15]
 8005646:	3301      	adds	r3, #1
 8005648:	73fb      	strb	r3, [r7, #15]
 800564a:	7bfb      	ldrb	r3, [r7, #15]
 800564c:	4970      	ldr	r1, [pc, #448]	; (8005810 <prepareNewDataToSend_SW+0x1f8>)
 800564e:	440a      	add	r2, r1
 8005650:	7e11      	ldrb	r1, [r2, #24]
 8005652:	4a70      	ldr	r2, [pc, #448]	; (8005814 <prepareNewDataToSend_SW+0x1fc>)
 8005654:	54d1      	strb	r1, [r2, r3]
 8005656:	7bbb      	ldrb	r3, [r7, #14]
 8005658:	3301      	adds	r3, #1
 800565a:	73bb      	strb	r3, [r7, #14]
 800565c:	7bbb      	ldrb	r3, [r7, #14]
 800565e:	2b01      	cmp	r3, #1
 8005660:	d9ef      	bls.n	8005642 <prepareNewDataToSend_SW+0x2a>
 8005662:	7bfb      	ldrb	r3, [r7, #15]
 8005664:	3301      	adds	r3, #1
 8005666:	73fb      	strb	r3, [r7, #15]
 8005668:	7bfb      	ldrb	r3, [r7, #15]
 800566a:	4a69      	ldr	r2, [pc, #420]	; (8005810 <prepareNewDataToSend_SW+0x1f8>)
 800566c:	f892 1020 	ldrb.w	r1, [r2, #32]
 8005670:	4a68      	ldr	r2, [pc, #416]	; (8005814 <prepareNewDataToSend_SW+0x1fc>)
 8005672:	54d1      	strb	r1, [r2, r3]
 8005674:	2300      	movs	r3, #0
 8005676:	737b      	strb	r3, [r7, #13]
 8005678:	e00c      	b.n	8005694 <prepareNewDataToSend_SW+0x7c>
 800567a:	7b7a      	ldrb	r2, [r7, #13]
 800567c:	7bfb      	ldrb	r3, [r7, #15]
 800567e:	3301      	adds	r3, #1
 8005680:	73fb      	strb	r3, [r7, #15]
 8005682:	7bfb      	ldrb	r3, [r7, #15]
 8005684:	4962      	ldr	r1, [pc, #392]	; (8005810 <prepareNewDataToSend_SW+0x1f8>)
 8005686:	440a      	add	r2, r1
 8005688:	7e91      	ldrb	r1, [r2, #26]
 800568a:	4a62      	ldr	r2, [pc, #392]	; (8005814 <prepareNewDataToSend_SW+0x1fc>)
 800568c:	54d1      	strb	r1, [r2, r3]
 800568e:	7b7b      	ldrb	r3, [r7, #13]
 8005690:	3301      	adds	r3, #1
 8005692:	737b      	strb	r3, [r7, #13]
 8005694:	7b7b      	ldrb	r3, [r7, #13]
 8005696:	2b01      	cmp	r3, #1
 8005698:	d9ef      	bls.n	800567a <prepareNewDataToSend_SW+0x62>
 800569a:	2300      	movs	r3, #0
 800569c:	733b      	strb	r3, [r7, #12]
 800569e:	e00b      	b.n	80056b8 <prepareNewDataToSend_SW+0xa0>
 80056a0:	7b3a      	ldrb	r2, [r7, #12]
 80056a2:	7bfb      	ldrb	r3, [r7, #15]
 80056a4:	3301      	adds	r3, #1
 80056a6:	73fb      	strb	r3, [r7, #15]
 80056a8:	7bfb      	ldrb	r3, [r7, #15]
 80056aa:	495b      	ldr	r1, [pc, #364]	; (8005818 <prepareNewDataToSend_SW+0x200>)
 80056ac:	5c89      	ldrb	r1, [r1, r2]
 80056ae:	4a59      	ldr	r2, [pc, #356]	; (8005814 <prepareNewDataToSend_SW+0x1fc>)
 80056b0:	54d1      	strb	r1, [r2, r3]
 80056b2:	7b3b      	ldrb	r3, [r7, #12]
 80056b4:	3301      	adds	r3, #1
 80056b6:	733b      	strb	r3, [r7, #12]
 80056b8:	7b3b      	ldrb	r3, [r7, #12]
 80056ba:	2b03      	cmp	r3, #3
 80056bc:	d9f0      	bls.n	80056a0 <prepareNewDataToSend_SW+0x88>
 80056be:	2300      	movs	r3, #0
 80056c0:	72fb      	strb	r3, [r7, #11]
 80056c2:	e00c      	b.n	80056de <prepareNewDataToSend_SW+0xc6>
 80056c4:	7afa      	ldrb	r2, [r7, #11]
 80056c6:	7bfb      	ldrb	r3, [r7, #15]
 80056c8:	3301      	adds	r3, #1
 80056ca:	73fb      	strb	r3, [r7, #15]
 80056cc:	7bfb      	ldrb	r3, [r7, #15]
 80056ce:	4952      	ldr	r1, [pc, #328]	; (8005818 <prepareNewDataToSend_SW+0x200>)
 80056d0:	440a      	add	r2, r1
 80056d2:	7911      	ldrb	r1, [r2, #4]
 80056d4:	4a4f      	ldr	r2, [pc, #316]	; (8005814 <prepareNewDataToSend_SW+0x1fc>)
 80056d6:	54d1      	strb	r1, [r2, r3]
 80056d8:	7afb      	ldrb	r3, [r7, #11]
 80056da:	3301      	adds	r3, #1
 80056dc:	72fb      	strb	r3, [r7, #11]
 80056de:	7afb      	ldrb	r3, [r7, #11]
 80056e0:	2b03      	cmp	r3, #3
 80056e2:	d9ef      	bls.n	80056c4 <prepareNewDataToSend_SW+0xac>
 80056e4:	2300      	movs	r3, #0
 80056e6:	72bb      	strb	r3, [r7, #10]
 80056e8:	e00c      	b.n	8005704 <prepareNewDataToSend_SW+0xec>
 80056ea:	7aba      	ldrb	r2, [r7, #10]
 80056ec:	7bfb      	ldrb	r3, [r7, #15]
 80056ee:	3301      	adds	r3, #1
 80056f0:	73fb      	strb	r3, [r7, #15]
 80056f2:	7bfb      	ldrb	r3, [r7, #15]
 80056f4:	4948      	ldr	r1, [pc, #288]	; (8005818 <prepareNewDataToSend_SW+0x200>)
 80056f6:	440a      	add	r2, r1
 80056f8:	7c11      	ldrb	r1, [r2, #16]
 80056fa:	4a46      	ldr	r2, [pc, #280]	; (8005814 <prepareNewDataToSend_SW+0x1fc>)
 80056fc:	54d1      	strb	r1, [r2, r3]
 80056fe:	7abb      	ldrb	r3, [r7, #10]
 8005700:	3301      	adds	r3, #1
 8005702:	72bb      	strb	r3, [r7, #10]
 8005704:	7abb      	ldrb	r3, [r7, #10]
 8005706:	2b01      	cmp	r3, #1
 8005708:	d9ef      	bls.n	80056ea <prepareNewDataToSend_SW+0xd2>
 800570a:	2300      	movs	r3, #0
 800570c:	727b      	strb	r3, [r7, #9]
 800570e:	e00c      	b.n	800572a <prepareNewDataToSend_SW+0x112>
 8005710:	7a7a      	ldrb	r2, [r7, #9]
 8005712:	7bfb      	ldrb	r3, [r7, #15]
 8005714:	3301      	adds	r3, #1
 8005716:	73fb      	strb	r3, [r7, #15]
 8005718:	7bfb      	ldrb	r3, [r7, #15]
 800571a:	493f      	ldr	r1, [pc, #252]	; (8005818 <prepareNewDataToSend_SW+0x200>)
 800571c:	440a      	add	r2, r1
 800571e:	7a11      	ldrb	r1, [r2, #8]
 8005720:	4a3c      	ldr	r2, [pc, #240]	; (8005814 <prepareNewDataToSend_SW+0x1fc>)
 8005722:	54d1      	strb	r1, [r2, r3]
 8005724:	7a7b      	ldrb	r3, [r7, #9]
 8005726:	3301      	adds	r3, #1
 8005728:	727b      	strb	r3, [r7, #9]
 800572a:	7a7b      	ldrb	r3, [r7, #9]
 800572c:	2b03      	cmp	r3, #3
 800572e:	d9ef      	bls.n	8005710 <prepareNewDataToSend_SW+0xf8>
 8005730:	2300      	movs	r3, #0
 8005732:	723b      	strb	r3, [r7, #8]
 8005734:	e00c      	b.n	8005750 <prepareNewDataToSend_SW+0x138>
 8005736:	7a3a      	ldrb	r2, [r7, #8]
 8005738:	7bfb      	ldrb	r3, [r7, #15]
 800573a:	3301      	adds	r3, #1
 800573c:	73fb      	strb	r3, [r7, #15]
 800573e:	7bfb      	ldrb	r3, [r7, #15]
 8005740:	4933      	ldr	r1, [pc, #204]	; (8005810 <prepareNewDataToSend_SW+0x1f8>)
 8005742:	440a      	add	r2, r1
 8005744:	7c11      	ldrb	r1, [r2, #16]
 8005746:	4a33      	ldr	r2, [pc, #204]	; (8005814 <prepareNewDataToSend_SW+0x1fc>)
 8005748:	54d1      	strb	r1, [r2, r3]
 800574a:	7a3b      	ldrb	r3, [r7, #8]
 800574c:	3301      	adds	r3, #1
 800574e:	723b      	strb	r3, [r7, #8]
 8005750:	7a3b      	ldrb	r3, [r7, #8]
 8005752:	2b03      	cmp	r3, #3
 8005754:	d9ef      	bls.n	8005736 <prepareNewDataToSend_SW+0x11e>
 8005756:	7bfb      	ldrb	r3, [r7, #15]
 8005758:	3301      	adds	r3, #1
 800575a:	73fb      	strb	r3, [r7, #15]
 800575c:	7bfb      	ldrb	r3, [r7, #15]
 800575e:	4a2c      	ldr	r2, [pc, #176]	; (8005810 <prepareNewDataToSend_SW+0x1f8>)
 8005760:	f892 1023 	ldrb.w	r1, [r2, #35]	; 0x23
 8005764:	4a2b      	ldr	r2, [pc, #172]	; (8005814 <prepareNewDataToSend_SW+0x1fc>)
 8005766:	54d1      	strb	r1, [r2, r3]
 8005768:	7bfb      	ldrb	r3, [r7, #15]
 800576a:	3301      	adds	r3, #1
 800576c:	73fb      	strb	r3, [r7, #15]
 800576e:	7bfb      	ldrb	r3, [r7, #15]
 8005770:	4a27      	ldr	r2, [pc, #156]	; (8005810 <prepareNewDataToSend_SW+0x1f8>)
 8005772:	f892 1024 	ldrb.w	r1, [r2, #36]	; 0x24
 8005776:	4a27      	ldr	r2, [pc, #156]	; (8005814 <prepareNewDataToSend_SW+0x1fc>)
 8005778:	54d1      	strb	r1, [r2, r3]
 800577a:	2300      	movs	r3, #0
 800577c:	71fb      	strb	r3, [r7, #7]
 800577e:	e00c      	b.n	800579a <prepareNewDataToSend_SW+0x182>
 8005780:	79fa      	ldrb	r2, [r7, #7]
 8005782:	7bfb      	ldrb	r3, [r7, #15]
 8005784:	3301      	adds	r3, #1
 8005786:	73fb      	strb	r3, [r7, #15]
 8005788:	7bfb      	ldrb	r3, [r7, #15]
 800578a:	4923      	ldr	r1, [pc, #140]	; (8005818 <prepareNewDataToSend_SW+0x200>)
 800578c:	440a      	add	r2, r1
 800578e:	7b11      	ldrb	r1, [r2, #12]
 8005790:	4a20      	ldr	r2, [pc, #128]	; (8005814 <prepareNewDataToSend_SW+0x1fc>)
 8005792:	54d1      	strb	r1, [r2, r3]
 8005794:	79fb      	ldrb	r3, [r7, #7]
 8005796:	3301      	adds	r3, #1
 8005798:	71fb      	strb	r3, [r7, #7]
 800579a:	79fb      	ldrb	r3, [r7, #7]
 800579c:	2b03      	cmp	r3, #3
 800579e:	d9ef      	bls.n	8005780 <prepareNewDataToSend_SW+0x168>
 80057a0:	2300      	movs	r3, #0
 80057a2:	71bb      	strb	r3, [r7, #6]
 80057a4:	e00c      	b.n	80057c0 <prepareNewDataToSend_SW+0x1a8>
 80057a6:	79ba      	ldrb	r2, [r7, #6]
 80057a8:	7bfb      	ldrb	r3, [r7, #15]
 80057aa:	3301      	adds	r3, #1
 80057ac:	73fb      	strb	r3, [r7, #15]
 80057ae:	7bfb      	ldrb	r3, [r7, #15]
 80057b0:	4917      	ldr	r1, [pc, #92]	; (8005810 <prepareNewDataToSend_SW+0x1f8>)
 80057b2:	440a      	add	r2, r1
 80057b4:	7911      	ldrb	r1, [r2, #4]
 80057b6:	4a17      	ldr	r2, [pc, #92]	; (8005814 <prepareNewDataToSend_SW+0x1fc>)
 80057b8:	54d1      	strb	r1, [r2, r3]
 80057ba:	79bb      	ldrb	r3, [r7, #6]
 80057bc:	3301      	adds	r3, #1
 80057be:	71bb      	strb	r3, [r7, #6]
 80057c0:	79bb      	ldrb	r3, [r7, #6]
 80057c2:	2b03      	cmp	r3, #3
 80057c4:	d9ef      	bls.n	80057a6 <prepareNewDataToSend_SW+0x18e>
 80057c6:	7bfb      	ldrb	r3, [r7, #15]
 80057c8:	3301      	adds	r3, #1
 80057ca:	73fb      	strb	r3, [r7, #15]
 80057cc:	7bfb      	ldrb	r3, [r7, #15]
 80057ce:	4a10      	ldr	r2, [pc, #64]	; (8005810 <prepareNewDataToSend_SW+0x1f8>)
 80057d0:	f892 1025 	ldrb.w	r1, [r2, #37]	; 0x25
 80057d4:	4a0f      	ldr	r2, [pc, #60]	; (8005814 <prepareNewDataToSend_SW+0x1fc>)
 80057d6:	54d1      	strb	r1, [r2, r3]
 80057d8:	7bfb      	ldrb	r3, [r7, #15]
 80057da:	3301      	adds	r3, #1
 80057dc:	73fb      	strb	r3, [r7, #15]
 80057de:	7bfb      	ldrb	r3, [r7, #15]
 80057e0:	4a0b      	ldr	r2, [pc, #44]	; (8005810 <prepareNewDataToSend_SW+0x1f8>)
 80057e2:	f892 1026 	ldrb.w	r1, [r2, #38]	; 0x26
 80057e6:	4a0b      	ldr	r2, [pc, #44]	; (8005814 <prepareNewDataToSend_SW+0x1fc>)
 80057e8:	54d1      	strb	r1, [r2, r3]
 80057ea:	7bfb      	ldrb	r3, [r7, #15]
 80057ec:	3301      	adds	r3, #1
 80057ee:	73fb      	strb	r3, [r7, #15]
 80057f0:	7bfb      	ldrb	r3, [r7, #15]
 80057f2:	4a08      	ldr	r2, [pc, #32]	; (8005814 <prepareNewDataToSend_SW+0x1fc>)
 80057f4:	2117      	movs	r1, #23
 80057f6:	54d1      	strb	r1, [r2, r3]
 80057f8:	f7ff fdfe 	bl	80053f8 <crc_calc_TX_SW>
 80057fc:	4603      	mov	r3, r0
 80057fe:	461a      	mov	r2, r3
 8005800:	4b04      	ldr	r3, [pc, #16]	; (8005814 <prepareNewDataToSend_SW+0x1fc>)
 8005802:	f883 2026 	strb.w	r2, [r3, #38]	; 0x26
 8005806:	bf00      	nop
 8005808:	3710      	adds	r7, #16
 800580a:	46bd      	mov	sp, r7
 800580c:	bd80      	pop	{r7, pc}
 800580e:	bf00      	nop
 8005810:	20000428 	.word	0x20000428
 8005814:	2000004c 	.word	0x2000004c
 8005818:	20000414 	.word	0x20000414

0800581c <processReceivedData_SW>:
 800581c:	b480      	push	{r7}
 800581e:	b083      	sub	sp, #12
 8005820:	af00      	add	r7, sp, #0
 8005822:	2300      	movs	r3, #0
 8005824:	71fb      	strb	r3, [r7, #7]
 8005826:	79fb      	ldrb	r3, [r7, #7]
 8005828:	4a30      	ldr	r2, [pc, #192]	; (80058ec <processReceivedData_SW+0xd0>)
 800582a:	5cd2      	ldrb	r2, [r2, r3]
 800582c:	4b30      	ldr	r3, [pc, #192]	; (80058f0 <processReceivedData_SW+0xd4>)
 800582e:	701a      	strb	r2, [r3, #0]
 8005830:	79fb      	ldrb	r3, [r7, #7]
 8005832:	3301      	adds	r3, #1
 8005834:	71fb      	strb	r3, [r7, #7]
 8005836:	79fb      	ldrb	r3, [r7, #7]
 8005838:	4a2c      	ldr	r2, [pc, #176]	; (80058ec <processReceivedData_SW+0xd0>)
 800583a:	5cd2      	ldrb	r2, [r2, r3]
 800583c:	4b2c      	ldr	r3, [pc, #176]	; (80058f0 <processReceivedData_SW+0xd4>)
 800583e:	705a      	strb	r2, [r3, #1]
 8005840:	79fb      	ldrb	r3, [r7, #7]
 8005842:	3301      	adds	r3, #1
 8005844:	71fb      	strb	r3, [r7, #7]
 8005846:	79fb      	ldrb	r3, [r7, #7]
 8005848:	4a28      	ldr	r2, [pc, #160]	; (80058ec <processReceivedData_SW+0xd0>)
 800584a:	5cd2      	ldrb	r2, [r2, r3]
 800584c:	4b28      	ldr	r3, [pc, #160]	; (80058f0 <processReceivedData_SW+0xd4>)
 800584e:	709a      	strb	r2, [r3, #2]
 8005850:	79fb      	ldrb	r3, [r7, #7]
 8005852:	3301      	adds	r3, #1
 8005854:	71fb      	strb	r3, [r7, #7]
 8005856:	79fb      	ldrb	r3, [r7, #7]
 8005858:	4a24      	ldr	r2, [pc, #144]	; (80058ec <processReceivedData_SW+0xd0>)
 800585a:	5cd2      	ldrb	r2, [r2, r3]
 800585c:	4b24      	ldr	r3, [pc, #144]	; (80058f0 <processReceivedData_SW+0xd4>)
 800585e:	70da      	strb	r2, [r3, #3]
 8005860:	79fb      	ldrb	r3, [r7, #7]
 8005862:	3301      	adds	r3, #1
 8005864:	71fb      	strb	r3, [r7, #7]
 8005866:	79fb      	ldrb	r3, [r7, #7]
 8005868:	4a20      	ldr	r2, [pc, #128]	; (80058ec <processReceivedData_SW+0xd0>)
 800586a:	5cd2      	ldrb	r2, [r2, r3]
 800586c:	4b20      	ldr	r3, [pc, #128]	; (80058f0 <processReceivedData_SW+0xd4>)
 800586e:	711a      	strb	r2, [r3, #4]
 8005870:	79fb      	ldrb	r3, [r7, #7]
 8005872:	3301      	adds	r3, #1
 8005874:	71fb      	strb	r3, [r7, #7]
 8005876:	79fb      	ldrb	r3, [r7, #7]
 8005878:	4a1c      	ldr	r2, [pc, #112]	; (80058ec <processReceivedData_SW+0xd0>)
 800587a:	5cd2      	ldrb	r2, [r2, r3]
 800587c:	4b1c      	ldr	r3, [pc, #112]	; (80058f0 <processReceivedData_SW+0xd4>)
 800587e:	715a      	strb	r2, [r3, #5]
 8005880:	79fb      	ldrb	r3, [r7, #7]
 8005882:	3301      	adds	r3, #1
 8005884:	71fb      	strb	r3, [r7, #7]
 8005886:	79fb      	ldrb	r3, [r7, #7]
 8005888:	4a18      	ldr	r2, [pc, #96]	; (80058ec <processReceivedData_SW+0xd0>)
 800588a:	5cd2      	ldrb	r2, [r2, r3]
 800588c:	4b18      	ldr	r3, [pc, #96]	; (80058f0 <processReceivedData_SW+0xd4>)
 800588e:	719a      	strb	r2, [r3, #6]
 8005890:	79fb      	ldrb	r3, [r7, #7]
 8005892:	3301      	adds	r3, #1
 8005894:	71fb      	strb	r3, [r7, #7]
 8005896:	79fb      	ldrb	r3, [r7, #7]
 8005898:	4a14      	ldr	r2, [pc, #80]	; (80058ec <processReceivedData_SW+0xd0>)
 800589a:	5cd2      	ldrb	r2, [r2, r3]
 800589c:	4b14      	ldr	r3, [pc, #80]	; (80058f0 <processReceivedData_SW+0xd4>)
 800589e:	71da      	strb	r2, [r3, #7]
 80058a0:	79fb      	ldrb	r3, [r7, #7]
 80058a2:	3301      	adds	r3, #1
 80058a4:	71fb      	strb	r3, [r7, #7]
 80058a6:	79fb      	ldrb	r3, [r7, #7]
 80058a8:	4a10      	ldr	r2, [pc, #64]	; (80058ec <processReceivedData_SW+0xd0>)
 80058aa:	5cd2      	ldrb	r2, [r2, r3]
 80058ac:	4b10      	ldr	r3, [pc, #64]	; (80058f0 <processReceivedData_SW+0xd4>)
 80058ae:	721a      	strb	r2, [r3, #8]
 80058b0:	4b0f      	ldr	r3, [pc, #60]	; (80058f0 <processReceivedData_SW+0xd4>)
 80058b2:	799b      	ldrb	r3, [r3, #6]
 80058b4:	2b01      	cmp	r3, #1
 80058b6:	d103      	bne.n	80058c0 <processReceivedData_SW+0xa4>
 80058b8:	4b0e      	ldr	r3, [pc, #56]	; (80058f4 <processReceivedData_SW+0xd8>)
 80058ba:	2201      	movs	r2, #1
 80058bc:	701a      	strb	r2, [r3, #0]
 80058be:	e00e      	b.n	80058de <processReceivedData_SW+0xc2>
 80058c0:	4b0b      	ldr	r3, [pc, #44]	; (80058f0 <processReceivedData_SW+0xd4>)
 80058c2:	79db      	ldrb	r3, [r3, #7]
 80058c4:	2b01      	cmp	r3, #1
 80058c6:	d103      	bne.n	80058d0 <processReceivedData_SW+0xb4>
 80058c8:	4b0a      	ldr	r3, [pc, #40]	; (80058f4 <processReceivedData_SW+0xd8>)
 80058ca:	2202      	movs	r2, #2
 80058cc:	701a      	strb	r2, [r3, #0]
 80058ce:	e006      	b.n	80058de <processReceivedData_SW+0xc2>
 80058d0:	4b07      	ldr	r3, [pc, #28]	; (80058f0 <processReceivedData_SW+0xd4>)
 80058d2:	7a1b      	ldrb	r3, [r3, #8]
 80058d4:	2b01      	cmp	r3, #1
 80058d6:	d102      	bne.n	80058de <processReceivedData_SW+0xc2>
 80058d8:	4b06      	ldr	r3, [pc, #24]	; (80058f4 <processReceivedData_SW+0xd8>)
 80058da:	2203      	movs	r2, #3
 80058dc:	701a      	strb	r2, [r3, #0]
 80058de:	bf00      	nop
 80058e0:	370c      	adds	r7, #12
 80058e2:	46bd      	mov	sp, r7
 80058e4:	f85d 7b04 	ldr.w	r7, [sp], #4
 80058e8:	4770      	bx	lr
 80058ea:	bf00      	nop
 80058ec:	20000450 	.word	0x20000450
 80058f0:	2000045c 	.word	0x2000045c
 80058f4:	20000410 	.word	0x20000410

080058f8 <resetActData_SW>:
 80058f8:	b480      	push	{r7}
 80058fa:	af00      	add	r7, sp, #0
 80058fc:	4b0f      	ldr	r3, [pc, #60]	; (800593c <resetActData_SW+0x44>)
 80058fe:	2200      	movs	r2, #0
 8005900:	701a      	strb	r2, [r3, #0]
 8005902:	4b0e      	ldr	r3, [pc, #56]	; (800593c <resetActData_SW+0x44>)
 8005904:	2200      	movs	r2, #0
 8005906:	705a      	strb	r2, [r3, #1]
 8005908:	4b0c      	ldr	r3, [pc, #48]	; (800593c <resetActData_SW+0x44>)
 800590a:	2200      	movs	r2, #0
 800590c:	709a      	strb	r2, [r3, #2]
 800590e:	4b0b      	ldr	r3, [pc, #44]	; (800593c <resetActData_SW+0x44>)
 8005910:	2200      	movs	r2, #0
 8005912:	70da      	strb	r2, [r3, #3]
 8005914:	4b09      	ldr	r3, [pc, #36]	; (800593c <resetActData_SW+0x44>)
 8005916:	2200      	movs	r2, #0
 8005918:	711a      	strb	r2, [r3, #4]
 800591a:	4b08      	ldr	r3, [pc, #32]	; (800593c <resetActData_SW+0x44>)
 800591c:	2200      	movs	r2, #0
 800591e:	715a      	strb	r2, [r3, #5]
 8005920:	4b06      	ldr	r3, [pc, #24]	; (800593c <resetActData_SW+0x44>)
 8005922:	2200      	movs	r2, #0
 8005924:	719a      	strb	r2, [r3, #6]
 8005926:	4b05      	ldr	r3, [pc, #20]	; (800593c <resetActData_SW+0x44>)
 8005928:	2200      	movs	r2, #0
 800592a:	71da      	strb	r2, [r3, #7]
 800592c:	4b03      	ldr	r3, [pc, #12]	; (800593c <resetActData_SW+0x44>)
 800592e:	2200      	movs	r2, #0
 8005930:	721a      	strb	r2, [r3, #8]
 8005932:	bf00      	nop
 8005934:	46bd      	mov	sp, r7
 8005936:	f85d 7b04 	ldr.w	r7, [sp], #4
 800593a:	4770      	bx	lr
 800593c:	2000045c 	.word	0x2000045c

08005940 <HAL_UART_RxCpltCallback>:
 8005940:	b580      	push	{r7, lr}
 8005942:	b082      	sub	sp, #8
 8005944:	af00      	add	r7, sp, #0
 8005946:	6078      	str	r0, [r7, #4]
 8005948:	687b      	ldr	r3, [r7, #4]
 800594a:	4a22      	ldr	r2, [pc, #136]	; (80059d4 <HAL_UART_RxCpltCallback+0x94>)
 800594c:	4293      	cmp	r3, r2
 800594e:	d11c      	bne.n	800598a <HAL_UART_RxCpltCallback+0x4a>
 8005950:	2201      	movs	r2, #1
 8005952:	4921      	ldr	r1, [pc, #132]	; (80059d8 <HAL_UART_RxCpltCallback+0x98>)
 8005954:	481f      	ldr	r0, [pc, #124]	; (80059d4 <HAL_UART_RxCpltCallback+0x94>)
 8005956:	f7fe fa0f 	bl	8003d78 <HAL_UART_Receive_DMA>
 800595a:	4b20      	ldr	r3, [pc, #128]	; (80059dc <HAL_UART_RxCpltCallback+0x9c>)
 800595c:	2201      	movs	r2, #1
 800595e:	701a      	strb	r2, [r3, #0]
 8005960:	4b1f      	ldr	r3, [pc, #124]	; (80059e0 <HAL_UART_RxCpltCallback+0xa0>)
 8005962:	881b      	ldrh	r3, [r3, #0]
 8005964:	2b0b      	cmp	r3, #11
 8005966:	d902      	bls.n	800596e <HAL_UART_RxCpltCallback+0x2e>
 8005968:	4b1d      	ldr	r3, [pc, #116]	; (80059e0 <HAL_UART_RxCpltCallback+0xa0>)
 800596a:	2200      	movs	r2, #0
 800596c:	801a      	strh	r2, [r3, #0]
 800596e:	4b1c      	ldr	r3, [pc, #112]	; (80059e0 <HAL_UART_RxCpltCallback+0xa0>)
 8005970:	881b      	ldrh	r3, [r3, #0]
 8005972:	461a      	mov	r2, r3
 8005974:	4b1b      	ldr	r3, [pc, #108]	; (80059e4 <HAL_UART_RxCpltCallback+0xa4>)
 8005976:	7859      	ldrb	r1, [r3, #1]
 8005978:	4b1b      	ldr	r3, [pc, #108]	; (80059e8 <HAL_UART_RxCpltCallback+0xa8>)
 800597a:	5499      	strb	r1, [r3, r2]
 800597c:	4b18      	ldr	r3, [pc, #96]	; (80059e0 <HAL_UART_RxCpltCallback+0xa0>)
 800597e:	881b      	ldrh	r3, [r3, #0]
 8005980:	3301      	adds	r3, #1
 8005982:	b29a      	uxth	r2, r3
 8005984:	4b16      	ldr	r3, [pc, #88]	; (80059e0 <HAL_UART_RxCpltCallback+0xa0>)
 8005986:	801a      	strh	r2, [r3, #0]
 8005988:	e01f      	b.n	80059ca <HAL_UART_RxCpltCallback+0x8a>
 800598a:	687b      	ldr	r3, [r7, #4]
 800598c:	4a17      	ldr	r2, [pc, #92]	; (80059ec <HAL_UART_RxCpltCallback+0xac>)
 800598e:	4293      	cmp	r3, r2
 8005990:	d11b      	bne.n	80059ca <HAL_UART_RxCpltCallback+0x8a>
 8005992:	2201      	movs	r2, #1
 8005994:	4916      	ldr	r1, [pc, #88]	; (80059f0 <HAL_UART_RxCpltCallback+0xb0>)
 8005996:	4815      	ldr	r0, [pc, #84]	; (80059ec <HAL_UART_RxCpltCallback+0xac>)
 8005998:	f7fe f9ee 	bl	8003d78 <HAL_UART_Receive_DMA>
 800599c:	4b15      	ldr	r3, [pc, #84]	; (80059f4 <HAL_UART_RxCpltCallback+0xb4>)
 800599e:	2201      	movs	r2, #1
 80059a0:	701a      	strb	r2, [r3, #0]
 80059a2:	4b15      	ldr	r3, [pc, #84]	; (80059f8 <HAL_UART_RxCpltCallback+0xb8>)
 80059a4:	881b      	ldrh	r3, [r3, #0]
 80059a6:	2b15      	cmp	r3, #21
 80059a8:	d902      	bls.n	80059b0 <HAL_UART_RxCpltCallback+0x70>
 80059aa:	4b13      	ldr	r3, [pc, #76]	; (80059f8 <HAL_UART_RxCpltCallback+0xb8>)
 80059ac:	2200      	movs	r2, #0
 80059ae:	801a      	strh	r2, [r3, #0]
 80059b0:	4b11      	ldr	r3, [pc, #68]	; (80059f8 <HAL_UART_RxCpltCallback+0xb8>)
 80059b2:	881b      	ldrh	r3, [r3, #0]
 80059b4:	461a      	mov	r2, r3
 80059b6:	4b11      	ldr	r3, [pc, #68]	; (80059fc <HAL_UART_RxCpltCallback+0xbc>)
 80059b8:	7859      	ldrb	r1, [r3, #1]
 80059ba:	4b11      	ldr	r3, [pc, #68]	; (8005a00 <HAL_UART_RxCpltCallback+0xc0>)
 80059bc:	5499      	strb	r1, [r3, r2]
 80059be:	4b0e      	ldr	r3, [pc, #56]	; (80059f8 <HAL_UART_RxCpltCallback+0xb8>)
 80059c0:	881b      	ldrh	r3, [r3, #0]
 80059c2:	3301      	adds	r3, #1
 80059c4:	b29a      	uxth	r2, r3
 80059c6:	4b0c      	ldr	r3, [pc, #48]	; (80059f8 <HAL_UART_RxCpltCallback+0xb8>)
 80059c8:	801a      	strh	r2, [r3, #0]
 80059ca:	bf00      	nop
 80059cc:	3708      	adds	r7, #8
 80059ce:	46bd      	mov	sp, r7
 80059d0:	bd80      	pop	{r7, pc}
 80059d2:	bf00      	nop
 80059d4:	200002d0 	.word	0x200002d0
 80059d8:	20000469 	.word	0x20000469
 80059dc:	20000085 	.word	0x20000085
 80059e0:	2000004a 	.word	0x2000004a
 80059e4:	20000468 	.word	0x20000468
 80059e8:	20000450 	.word	0x20000450
 80059ec:	20000370 	.word	0x20000370
 80059f0:	2000040d 	.word	0x2000040d
 80059f4:	20000084 	.word	0x20000084
 80059f8:	20000030 	.word	0x20000030
 80059fc:	2000040c 	.word	0x2000040c
 8005a00:	200003f4 	.word	0x200003f4

08005a04 <timers_init>:
 8005a04:	b580      	push	{r7, lr}
 8005a06:	af00      	add	r7, sp, #0
 8005a08:	4803      	ldr	r0, [pc, #12]	; (8005a18 <timers_init+0x14>)
 8005a0a:	f7fd fcec 	bl	80033e6 <HAL_TIM_Base_Start_IT>
 8005a0e:	4803      	ldr	r0, [pc, #12]	; (8005a1c <timers_init+0x18>)
 8005a10:	f7fd fce9 	bl	80033e6 <HAL_TIM_Base_Start_IT>
 8005a14:	bf00      	nop
 8005a16:	bd80      	pop	{r7, pc}
 8005a18:	20000150 	.word	0x20000150
 8005a1c:	200001d0 	.word	0x200001d0

08005a20 <timers_step>:
 8005a20:	b580      	push	{r7, lr}
 8005a22:	af00      	add	r7, sp, #0
 8005a24:	4b05      	ldr	r3, [pc, #20]	; (8005a3c <timers_step+0x1c>)
 8005a26:	2201      	movs	r2, #1
 8005a28:	701a      	strb	r2, [r3, #0]
 8005a2a:	4b05      	ldr	r3, [pc, #20]	; (8005a40 <timers_step+0x20>)
 8005a2c:	2201      	movs	r2, #1
 8005a2e:	701a      	strb	r2, [r3, #0]
 8005a30:	f000 f808 	bl	8005a44 <setSystemOperatingTime>
 8005a34:	f7ff f95e 	bl	8004cf4 <measurements_step>
 8005a38:	bf00      	nop
 8005a3a:	bd80      	pop	{r7, pc}
 8005a3c:	20000470 	.word	0x20000470
 8005a40:	20000472 	.word	0x20000472

08005a44 <setSystemOperatingTime>:
 8005a44:	b480      	push	{r7}
 8005a46:	af00      	add	r7, sp, #0
 8005a48:	4b1c      	ldr	r3, [pc, #112]	; (8005abc <setSystemOperatingTime+0x78>)
 8005a4a:	881b      	ldrh	r3, [r3, #0]
 8005a4c:	b29b      	uxth	r3, r3
 8005a4e:	3301      	adds	r3, #1
 8005a50:	b29a      	uxth	r2, r3
 8005a52:	4b1a      	ldr	r3, [pc, #104]	; (8005abc <setSystemOperatingTime+0x78>)
 8005a54:	801a      	strh	r2, [r3, #0]
 8005a56:	4b19      	ldr	r3, [pc, #100]	; (8005abc <setSystemOperatingTime+0x78>)
 8005a58:	881b      	ldrh	r3, [r3, #0]
 8005a5a:	b29b      	uxth	r3, r3
 8005a5c:	f5b3 7f7a 	cmp.w	r3, #1000	; 0x3e8
 8005a60:	d309      	bcc.n	8005a76 <setSystemOperatingTime+0x32>
 8005a62:	4b16      	ldr	r3, [pc, #88]	; (8005abc <setSystemOperatingTime+0x78>)
 8005a64:	2200      	movs	r2, #0
 8005a66:	801a      	strh	r2, [r3, #0]
 8005a68:	4b15      	ldr	r3, [pc, #84]	; (8005ac0 <setSystemOperatingTime+0x7c>)
 8005a6a:	781b      	ldrb	r3, [r3, #0]
 8005a6c:	b2db      	uxtb	r3, r3
 8005a6e:	3301      	adds	r3, #1
 8005a70:	b2da      	uxtb	r2, r3
 8005a72:	4b13      	ldr	r3, [pc, #76]	; (8005ac0 <setSystemOperatingTime+0x7c>)
 8005a74:	701a      	strb	r2, [r3, #0]
 8005a76:	4b12      	ldr	r3, [pc, #72]	; (8005ac0 <setSystemOperatingTime+0x7c>)
 8005a78:	781b      	ldrb	r3, [r3, #0]
 8005a7a:	b2db      	uxtb	r3, r3
 8005a7c:	2b3b      	cmp	r3, #59	; 0x3b
 8005a7e:	d909      	bls.n	8005a94 <setSystemOperatingTime+0x50>
 8005a80:	4b0f      	ldr	r3, [pc, #60]	; (8005ac0 <setSystemOperatingTime+0x7c>)
 8005a82:	2200      	movs	r2, #0
 8005a84:	701a      	strb	r2, [r3, #0]
 8005a86:	4b0f      	ldr	r3, [pc, #60]	; (8005ac4 <setSystemOperatingTime+0x80>)
 8005a88:	781b      	ldrb	r3, [r3, #0]
 8005a8a:	b2db      	uxtb	r3, r3
 8005a8c:	3301      	adds	r3, #1
 8005a8e:	b2da      	uxtb	r2, r3
 8005a90:	4b0c      	ldr	r3, [pc, #48]	; (8005ac4 <setSystemOperatingTime+0x80>)
 8005a92:	701a      	strb	r2, [r3, #0]
 8005a94:	4b0b      	ldr	r3, [pc, #44]	; (8005ac4 <setSystemOperatingTime+0x80>)
 8005a96:	781b      	ldrb	r3, [r3, #0]
 8005a98:	b2db      	uxtb	r3, r3
 8005a9a:	2b3b      	cmp	r3, #59	; 0x3b
 8005a9c:	d909      	bls.n	8005ab2 <setSystemOperatingTime+0x6e>
 8005a9e:	4b09      	ldr	r3, [pc, #36]	; (8005ac4 <setSystemOperatingTime+0x80>)
 8005aa0:	2200      	movs	r2, #0
 8005aa2:	701a      	strb	r2, [r3, #0]
 8005aa4:	4b08      	ldr	r3, [pc, #32]	; (8005ac8 <setSystemOperatingTime+0x84>)
 8005aa6:	781b      	ldrb	r3, [r3, #0]
 8005aa8:	b2db      	uxtb	r3, r3
 8005aaa:	3301      	adds	r3, #1
 8005aac:	b2da      	uxtb	r2, r3
 8005aae:	4b06      	ldr	r3, [pc, #24]	; (8005ac8 <setSystemOperatingTime+0x84>)
 8005ab0:	701a      	strb	r2, [r3, #0]
 8005ab2:	bf00      	nop
 8005ab4:	46bd      	mov	sp, r7
 8005ab6:	f85d 7b04 	ldr.w	r7, [sp], #4
 8005aba:	4770      	bx	lr
 8005abc:	2000046e 	.word	0x2000046e
 8005ac0:	20000480 	.word	0x20000480
 8005ac4:	20000478 	.word	0x20000478
 8005ac8:	20000471 	.word	0x20000471

08005acc <timers_beforeStep1kHz>:
 8005acc:	b480      	push	{r7}
 8005ace:	af00      	add	r7, sp, #0
 8005ad0:	4b03      	ldr	r3, [pc, #12]	; (8005ae0 <timers_beforeStep1kHz+0x14>)
 8005ad2:	2200      	movs	r2, #0
 8005ad4:	601a      	str	r2, [r3, #0]
 8005ad6:	bf00      	nop
 8005ad8:	46bd      	mov	sp, r7
 8005ada:	f85d 7b04 	ldr.w	r7, [sp], #4
 8005ade:	4770      	bx	lr
 8005ae0:	20000088 	.word	0x20000088

08005ae4 <timers_afterStep1kHz>:
 8005ae4:	b480      	push	{r7}
 8005ae6:	af00      	add	r7, sp, #0
 8005ae8:	4b2a      	ldr	r3, [pc, #168]	; (8005b94 <timers_afterStep1kHz+0xb0>)
 8005aea:	781b      	ldrb	r3, [r3, #0]
 8005aec:	2b00      	cmp	r3, #0
 8005aee:	d10b      	bne.n	8005b08 <timers_afterStep1kHz+0x24>
 8005af0:	4b29      	ldr	r3, [pc, #164]	; (8005b98 <timers_afterStep1kHz+0xb4>)
 8005af2:	681a      	ldr	r2, [r3, #0]
 8005af4:	4613      	mov	r3, r2
 8005af6:	009b      	lsls	r3, r3, #2
 8005af8:	4413      	add	r3, r2
 8005afa:	005b      	lsls	r3, r3, #1
 8005afc:	461a      	mov	r2, r3
 8005afe:	4b27      	ldr	r3, [pc, #156]	; (8005b9c <timers_afterStep1kHz+0xb8>)
 8005b00:	601a      	str	r2, [r3, #0]
 8005b02:	4b24      	ldr	r3, [pc, #144]	; (8005b94 <timers_afterStep1kHz+0xb0>)
 8005b04:	2201      	movs	r2, #1
 8005b06:	701a      	strb	r2, [r3, #0]
 8005b08:	4b23      	ldr	r3, [pc, #140]	; (8005b98 <timers_afterStep1kHz+0xb4>)
 8005b0a:	681a      	ldr	r2, [r3, #0]
 8005b0c:	4613      	mov	r3, r2
 8005b0e:	009b      	lsls	r3, r3, #2
 8005b10:	4413      	add	r3, r2
 8005b12:	005b      	lsls	r3, r3, #1
 8005b14:	461a      	mov	r2, r3
 8005b16:	4b22      	ldr	r3, [pc, #136]	; (8005ba0 <timers_afterStep1kHz+0xbc>)
 8005b18:	601a      	str	r2, [r3, #0]
 8005b1a:	4b1f      	ldr	r3, [pc, #124]	; (8005b98 <timers_afterStep1kHz+0xb4>)
 8005b1c:	2200      	movs	r2, #0
 8005b1e:	601a      	str	r2, [r3, #0]
 8005b20:	4b20      	ldr	r3, [pc, #128]	; (8005ba4 <timers_afterStep1kHz+0xc0>)
 8005b22:	881b      	ldrh	r3, [r3, #0]
 8005b24:	2b64      	cmp	r3, #100	; 0x64
 8005b26:	d80d      	bhi.n	8005b44 <timers_afterStep1kHz+0x60>
 8005b28:	4b1f      	ldr	r3, [pc, #124]	; (8005ba8 <timers_afterStep1kHz+0xc4>)
 8005b2a:	681a      	ldr	r2, [r3, #0]
 8005b2c:	4b1c      	ldr	r3, [pc, #112]	; (8005ba0 <timers_afterStep1kHz+0xbc>)
 8005b2e:	681b      	ldr	r3, [r3, #0]
 8005b30:	4413      	add	r3, r2
 8005b32:	4a1d      	ldr	r2, [pc, #116]	; (8005ba8 <timers_afterStep1kHz+0xc4>)
 8005b34:	6013      	str	r3, [r2, #0]
 8005b36:	4b1b      	ldr	r3, [pc, #108]	; (8005ba4 <timers_afterStep1kHz+0xc0>)
 8005b38:	881b      	ldrh	r3, [r3, #0]
 8005b3a:	3301      	adds	r3, #1
 8005b3c:	b29a      	uxth	r2, r3
 8005b3e:	4b19      	ldr	r3, [pc, #100]	; (8005ba4 <timers_afterStep1kHz+0xc0>)
 8005b40:	801a      	strh	r2, [r3, #0]
 8005b42:	e00d      	b.n	8005b60 <timers_afterStep1kHz+0x7c>
 8005b44:	4b18      	ldr	r3, [pc, #96]	; (8005ba8 <timers_afterStep1kHz+0xc4>)
 8005b46:	681b      	ldr	r3, [r3, #0]
 8005b48:	4a16      	ldr	r2, [pc, #88]	; (8005ba4 <timers_afterStep1kHz+0xc0>)
 8005b4a:	8812      	ldrh	r2, [r2, #0]
 8005b4c:	fbb3 f3f2 	udiv	r3, r3, r2
 8005b50:	4a16      	ldr	r2, [pc, #88]	; (8005bac <timers_afterStep1kHz+0xc8>)
 8005b52:	6013      	str	r3, [r2, #0]
 8005b54:	4b14      	ldr	r3, [pc, #80]	; (8005ba8 <timers_afterStep1kHz+0xc4>)
 8005b56:	2200      	movs	r2, #0
 8005b58:	601a      	str	r2, [r3, #0]
 8005b5a:	4b12      	ldr	r3, [pc, #72]	; (8005ba4 <timers_afterStep1kHz+0xc0>)
 8005b5c:	2200      	movs	r2, #0
 8005b5e:	801a      	strh	r2, [r3, #0]
 8005b60:	4b0f      	ldr	r3, [pc, #60]	; (8005ba0 <timers_afterStep1kHz+0xbc>)
 8005b62:	681a      	ldr	r2, [r3, #0]
 8005b64:	4b0d      	ldr	r3, [pc, #52]	; (8005b9c <timers_afterStep1kHz+0xb8>)
 8005b66:	681b      	ldr	r3, [r3, #0]
 8005b68:	429a      	cmp	r2, r3
 8005b6a:	d203      	bcs.n	8005b74 <timers_afterStep1kHz+0x90>
 8005b6c:	4b0c      	ldr	r3, [pc, #48]	; (8005ba0 <timers_afterStep1kHz+0xbc>)
 8005b6e:	681b      	ldr	r3, [r3, #0]
 8005b70:	4a0a      	ldr	r2, [pc, #40]	; (8005b9c <timers_afterStep1kHz+0xb8>)
 8005b72:	6013      	str	r3, [r2, #0]
 8005b74:	4b0a      	ldr	r3, [pc, #40]	; (8005ba0 <timers_afterStep1kHz+0xbc>)
 8005b76:	681a      	ldr	r2, [r3, #0]
 8005b78:	4b0d      	ldr	r3, [pc, #52]	; (8005bb0 <timers_afterStep1kHz+0xcc>)
 8005b7a:	681b      	ldr	r3, [r3, #0]
 8005b7c:	429a      	cmp	r2, r3
 8005b7e:	d903      	bls.n	8005b88 <timers_afterStep1kHz+0xa4>
 8005b80:	4b07      	ldr	r3, [pc, #28]	; (8005ba0 <timers_afterStep1kHz+0xbc>)
 8005b82:	681b      	ldr	r3, [r3, #0]
 8005b84:	4a0a      	ldr	r2, [pc, #40]	; (8005bb0 <timers_afterStep1kHz+0xcc>)
 8005b86:	6013      	str	r3, [r2, #0]
 8005b88:	bf00      	nop
 8005b8a:	46bd      	mov	sp, r7
 8005b8c:	f85d 7b04 	ldr.w	r7, [sp], #4
 8005b90:	4770      	bx	lr
 8005b92:	bf00      	nop
 8005b94:	2000008c 	.word	0x2000008c
 8005b98:	20000088 	.word	0x20000088
 8005b9c:	2000047c 	.word	0x2000047c
 8005ba0:	20000090 	.word	0x20000090
 8005ba4:	20000094 	.word	0x20000094
 8005ba8:	20000098 	.word	0x20000098
 8005bac:	20000484 	.word	0x20000484
 8005bb0:	20000474 	.word	0x20000474

08005bb4 <HAL_SYSTICK_Callback>:
 8005bb4:	b580      	push	{r7, lr}
 8005bb6:	af00      	add	r7, sp, #0
 8005bb8:	f7ff ff32 	bl	8005a20 <timers_step>
 8005bbc:	bf00      	nop
 8005bbe:	bd80      	pop	{r7, pc}

08005bc0 <HAL_TIM_PeriodElapsedCallback>:
 8005bc0:	b480      	push	{r7}
 8005bc2:	b083      	sub	sp, #12
 8005bc4:	af00      	add	r7, sp, #0
 8005bc6:	6078      	str	r0, [r7, #4]
 8005bc8:	687b      	ldr	r3, [r7, #4]
 8005bca:	681b      	ldr	r3, [r3, #0]
 8005bcc:	4a0a      	ldr	r2, [pc, #40]	; (8005bf8 <HAL_TIM_PeriodElapsedCallback+0x38>)
 8005bce:	4293      	cmp	r3, r2
 8005bd0:	d102      	bne.n	8005bd8 <HAL_TIM_PeriodElapsedCallback+0x18>
 8005bd2:	4b0a      	ldr	r3, [pc, #40]	; (8005bfc <HAL_TIM_PeriodElapsedCallback+0x3c>)
 8005bd4:	2201      	movs	r2, #1
 8005bd6:	701a      	strb	r2, [r3, #0]
 8005bd8:	687b      	ldr	r3, [r7, #4]
 8005bda:	681b      	ldr	r3, [r3, #0]
 8005bdc:	4a08      	ldr	r2, [pc, #32]	; (8005c00 <HAL_TIM_PeriodElapsedCallback+0x40>)
 8005bde:	4293      	cmp	r3, r2
 8005be0:	d104      	bne.n	8005bec <HAL_TIM_PeriodElapsedCallback+0x2c>
 8005be2:	4b08      	ldr	r3, [pc, #32]	; (8005c04 <HAL_TIM_PeriodElapsedCallback+0x44>)
 8005be4:	681b      	ldr	r3, [r3, #0]
 8005be6:	3301      	adds	r3, #1
 8005be8:	4a06      	ldr	r2, [pc, #24]	; (8005c04 <HAL_TIM_PeriodElapsedCallback+0x44>)
 8005bea:	6013      	str	r3, [r2, #0]
 8005bec:	bf00      	nop
 8005bee:	370c      	adds	r7, #12
 8005bf0:	46bd      	mov	sp, r7
 8005bf2:	f85d 7b04 	ldr.w	r7, [sp], #4
 8005bf6:	4770      	bx	lr
 8005bf8:	40001000 	.word	0x40001000
 8005bfc:	2000046c 	.word	0x2000046c
 8005c00:	40001400 	.word	0x40001400
 8005c04:	20000088 	.word	0x20000088

08005c08 <watchdog_init>:
 8005c08:	b580      	push	{r7, lr}
 8005c0a:	af00      	add	r7, sp, #0
 8005c0c:	4b14      	ldr	r3, [pc, #80]	; (8005c60 <watchdog_init+0x58>)
 8005c0e:	6f5b      	ldr	r3, [r3, #116]	; 0x74
 8005c10:	2b00      	cmp	r3, #0
 8005c12:	da03      	bge.n	8005c1c <watchdog_init+0x14>
 8005c14:	4b13      	ldr	r3, [pc, #76]	; (8005c64 <watchdog_init+0x5c>)
 8005c16:	2201      	movs	r2, #1
 8005c18:	701a      	strb	r2, [r3, #0]
 8005c1a:	e01c      	b.n	8005c56 <watchdog_init+0x4e>
 8005c1c:	4b10      	ldr	r3, [pc, #64]	; (8005c60 <watchdog_init+0x58>)
 8005c1e:	6f5b      	ldr	r3, [r3, #116]	; 0x74
 8005c20:	f003 5300 	and.w	r3, r3, #536870912	; 0x20000000
 8005c24:	2b00      	cmp	r3, #0
 8005c26:	d003      	beq.n	8005c30 <watchdog_init+0x28>
 8005c28:	4b0e      	ldr	r3, [pc, #56]	; (8005c64 <watchdog_init+0x5c>)
 8005c2a:	2202      	movs	r2, #2
 8005c2c:	701a      	strb	r2, [r3, #0]
 8005c2e:	e012      	b.n	8005c56 <watchdog_init+0x4e>
 8005c30:	4b0b      	ldr	r3, [pc, #44]	; (8005c60 <watchdog_init+0x58>)
 8005c32:	6f5b      	ldr	r3, [r3, #116]	; 0x74
 8005c34:	f003 5380 	and.w	r3, r3, #268435456	; 0x10000000
 8005c38:	2b00      	cmp	r3, #0
 8005c3a:	d003      	beq.n	8005c44 <watchdog_init+0x3c>
 8005c3c:	4b09      	ldr	r3, [pc, #36]	; (8005c64 <watchdog_init+0x5c>)
 8005c3e:	2203      	movs	r2, #3
 8005c40:	701a      	strb	r2, [r3, #0]
 8005c42:	e008      	b.n	8005c56 <watchdog_init+0x4e>
 8005c44:	4b06      	ldr	r3, [pc, #24]	; (8005c60 <watchdog_init+0x58>)
 8005c46:	6f5b      	ldr	r3, [r3, #116]	; 0x74
 8005c48:	f003 6300 	and.w	r3, r3, #134217728	; 0x8000000
 8005c4c:	2b00      	cmp	r3, #0
 8005c4e:	d002      	beq.n	8005c56 <watchdog_init+0x4e>
 8005c50:	4b04      	ldr	r3, [pc, #16]	; (8005c64 <watchdog_init+0x5c>)
 8005c52:	2200      	movs	r2, #0
 8005c54:	701a      	strb	r2, [r3, #0]
 8005c56:	4804      	ldr	r0, [pc, #16]	; (8005c68 <watchdog_init+0x60>)
 8005c58:	f7fc fe13 	bl	8002882 <HAL_IWDG_Refresh>
 8005c5c:	bf00      	nop
 8005c5e:	bd80      	pop	{r7, pc}
 8005c60:	40023800 	.word	0x40023800
 8005c64:	20000488 	.word	0x20000488
 8005c68:	20000144 	.word	0x20000144

08005c6c <watchdog_step>:
 8005c6c:	b580      	push	{r7, lr}
 8005c6e:	af00      	add	r7, sp, #0
 8005c70:	4802      	ldr	r0, [pc, #8]	; (8005c7c <watchdog_step+0x10>)
 8005c72:	f7fc fe06 	bl	8002882 <HAL_IWDG_Refresh>
 8005c76:	bf00      	nop
 8005c78:	bd80      	pop	{r7, pc}
 8005c7a:	bf00      	nop
 8005c7c:	20000144 	.word	0x20000144

08005c80 <__libc_init_array>:
 8005c80:	b570      	push	{r4, r5, r6, lr}
 8005c82:	4d0d      	ldr	r5, [pc, #52]	; (8005cb8 <__libc_init_array+0x38>)
 8005c84:	4c0d      	ldr	r4, [pc, #52]	; (8005cbc <__libc_init_array+0x3c>)
 8005c86:	1b64      	subs	r4, r4, r5
 8005c88:	10a4      	asrs	r4, r4, #2
 8005c8a:	2600      	movs	r6, #0
 8005c8c:	42a6      	cmp	r6, r4
 8005c8e:	d109      	bne.n	8005ca4 <__libc_init_array+0x24>
 8005c90:	4d0b      	ldr	r5, [pc, #44]	; (8005cc0 <__libc_init_array+0x40>)
 8005c92:	4c0c      	ldr	r4, [pc, #48]	; (8005cc4 <__libc_init_array+0x44>)
 8005c94:	f000 f820 	bl	8005cd8 <_init>
 8005c98:	1b64      	subs	r4, r4, r5
 8005c9a:	10a4      	asrs	r4, r4, #2
 8005c9c:	2600      	movs	r6, #0
 8005c9e:	42a6      	cmp	r6, r4
 8005ca0:	d105      	bne.n	8005cae <__libc_init_array+0x2e>
 8005ca2:	bd70      	pop	{r4, r5, r6, pc}
 8005ca4:	f855 3b04 	ldr.w	r3, [r5], #4
 8005ca8:	4798      	blx	r3
 8005caa:	3601      	adds	r6, #1
 8005cac:	e7ee      	b.n	8005c8c <__libc_init_array+0xc>
 8005cae:	f855 3b04 	ldr.w	r3, [r5], #4
 8005cb2:	4798      	blx	r3
 8005cb4:	3601      	adds	r6, #1
 8005cb6:	e7f2      	b.n	8005c9e <__libc_init_array+0x1e>
 8005cb8:	08005d18 	.word	0x08005d18
 8005cbc:	08005d18 	.word	0x08005d18
 8005cc0:	08005d18 	.word	0x08005d18
 8005cc4:	08005d1c 	.word	0x08005d1c

08005cc8 <memset>:
 8005cc8:	4402      	add	r2, r0
 8005cca:	4603      	mov	r3, r0
 8005ccc:	4293      	cmp	r3, r2
 8005cce:	d100      	bne.n	8005cd2 <memset+0xa>
 8005cd0:	4770      	bx	lr
 8005cd2:	f803 1b01 	strb.w	r1, [r3], #1
 8005cd6:	e7f9      	b.n	8005ccc <memset+0x4>

08005cd8 <_init>:
 8005cd8:	b5f8      	push	{r3, r4, r5, r6, r7, lr}
 8005cda:	bf00      	nop
 8005cdc:	bcf8      	pop	{r3, r4, r5, r6, r7}
 8005cde:	bc08      	pop	{r3}
 8005ce0:	469e      	mov	lr, r3
 8005ce2:	4770      	bx	lr

08005ce4 <_fini>:
 8005ce4:	b5f8      	push	{r3, r4, r5, r6, r7, lr}
 8005ce6:	bf00      	nop
 8005ce8:	bcf8      	pop	{r3, r4, r5, r6, r7}
 8005cea:	bc08      	pop	{r3}
 8005cec:	469e      	mov	lr, r3
 8005cee:	4770      	bx	lr
